
CUSTOM_SERIAL_CHAT_SAMD21_XPLAINED_PRO2.elf:     file format elf32-littlearm

Sections:
Idx Name          Size      VMA       LMA       File off  Algn
  0 .text         0000cf64  00000000  00000000  00010000  2**2
                  CONTENTS, ALLOC, LOAD, READONLY, CODE
  1 .relocate     00000154  20000000  0000cf64  00020000  2**2
                  CONTENTS, ALLOC, LOAD, DATA
  2 .bss          00002284  20000154  0000d0b8  00020154  2**2
                  ALLOC
  3 .stack        00002000  200023d8  0000f33c  00020154  2**0
                  ALLOC
  4 .ARM.attributes 00000028  00000000  00000000  00020154  2**0
                  CONTENTS, READONLY
  5 .comment      000000b4  00000000  00000000  0002017c  2**0
                  CONTENTS, READONLY
  6 .debug_info   000333de  00000000  00000000  00020230  2**0
                  CONTENTS, READONLY, DEBUGGING
  7 .debug_abbrev 00004f63  00000000  00000000  0005360e  2**0
                  CONTENTS, READONLY, DEBUGGING
  8 .debug_loc    00008c03  00000000  00000000  00058571  2**0
                  CONTENTS, READONLY, DEBUGGING
  9 .debug_aranges 00000930  00000000  00000000  00061174  2**0
                  CONTENTS, READONLY, DEBUGGING
 10 .debug_ranges 00000b40  00000000  00000000  00061aa4  2**0
                  CONTENTS, READONLY, DEBUGGING
 11 .debug_macro  0001f4ed  00000000  00000000  000625e4  2**0
                  CONTENTS, READONLY, DEBUGGING
 12 .debug_line   00014e4f  00000000  00000000  00081ad1  2**0
                  CONTENTS, READONLY, DEBUGGING
 13 .debug_str    00097659  00000000  00000000  00096920  2**0
                  CONTENTS, READONLY, DEBUGGING
 14 .debug_frame  00001f80  00000000  00000000  0012df7c  2**2
                  CONTENTS, READONLY, DEBUGGING

Disassembly of section .text:

00000000 <_sfixed>:
       0:	200043d8 	.word	0x200043d8
       4:	00001bc5 	.word	0x00001bc5
       8:	00001bc1 	.word	0x00001bc1
       c:	00001bc1 	.word	0x00001bc1
	...
      2c:	00001bc1 	.word	0x00001bc1
	...
      38:	00001bc1 	.word	0x00001bc1
      3c:	00001bc1 	.word	0x00001bc1
      40:	00001bc1 	.word	0x00001bc1
      44:	00001bc1 	.word	0x00001bc1
      48:	00001bc1 	.word	0x00001bc1
      4c:	00001bc1 	.word	0x00001bc1
      50:	00000255 	.word	0x00000255
      54:	00001bc1 	.word	0x00001bc1
      58:	00001bc1 	.word	0x00001bc1
      5c:	00001bc1 	.word	0x00001bc1
      60:	00001bc1 	.word	0x00001bc1
      64:	000007d1 	.word	0x000007d1
      68:	000007e1 	.word	0x000007e1
      6c:	000007f1 	.word	0x000007f1
      70:	00000801 	.word	0x00000801
      74:	00000811 	.word	0x00000811
      78:	00000821 	.word	0x00000821
      7c:	00001bc1 	.word	0x00001bc1
      80:	00001bc1 	.word	0x00001bc1
      84:	00001bc1 	.word	0x00001bc1
      88:	00001841 	.word	0x00001841
      8c:	00001851 	.word	0x00001851
      90:	00001861 	.word	0x00001861
      94:	00001871 	.word	0x00001871
      98:	00001881 	.word	0x00001881
      9c:	00001bc1 	.word	0x00001bc1
      a0:	00001bc1 	.word	0x00001bc1
      a4:	00001bc1 	.word	0x00001bc1
      a8:	00001bc1 	.word	0x00001bc1
      ac:	00001bc1 	.word	0x00001bc1
      b0:	00000000 	.word	0x00000000

000000b4 <__do_global_dtors_aux>:
      b4:	b510      	push	{r4, lr}
      b6:	4c06      	ldr	r4, [pc, #24]	; (d0 <__do_global_dtors_aux+0x1c>)
      b8:	7823      	ldrb	r3, [r4, #0]
      ba:	2b00      	cmp	r3, #0
      bc:	d107      	bne.n	ce <__do_global_dtors_aux+0x1a>
      be:	4b05      	ldr	r3, [pc, #20]	; (d4 <__do_global_dtors_aux+0x20>)
      c0:	2b00      	cmp	r3, #0
      c2:	d002      	beq.n	ca <__do_global_dtors_aux+0x16>
      c4:	4804      	ldr	r0, [pc, #16]	; (d8 <__do_global_dtors_aux+0x24>)
      c6:	e000      	b.n	ca <__do_global_dtors_aux+0x16>
      c8:	bf00      	nop
      ca:	2301      	movs	r3, #1
      cc:	7023      	strb	r3, [r4, #0]
      ce:	bd10      	pop	{r4, pc}
      d0:	20000154 	.word	0x20000154
      d4:	00000000 	.word	0x00000000
      d8:	0000cf64 	.word	0x0000cf64

000000dc <frame_dummy>:
      dc:	4b08      	ldr	r3, [pc, #32]	; (100 <frame_dummy+0x24>)
      de:	b510      	push	{r4, lr}
      e0:	2b00      	cmp	r3, #0
      e2:	d003      	beq.n	ec <frame_dummy+0x10>
      e4:	4907      	ldr	r1, [pc, #28]	; (104 <frame_dummy+0x28>)
      e6:	4808      	ldr	r0, [pc, #32]	; (108 <frame_dummy+0x2c>)
      e8:	e000      	b.n	ec <frame_dummy+0x10>
      ea:	bf00      	nop
      ec:	4807      	ldr	r0, [pc, #28]	; (10c <frame_dummy+0x30>)
      ee:	6803      	ldr	r3, [r0, #0]
      f0:	2b00      	cmp	r3, #0
      f2:	d100      	bne.n	f6 <frame_dummy+0x1a>
      f4:	bd10      	pop	{r4, pc}
      f6:	4b06      	ldr	r3, [pc, #24]	; (110 <frame_dummy+0x34>)
      f8:	2b00      	cmp	r3, #0
      fa:	d0fb      	beq.n	f4 <frame_dummy+0x18>
      fc:	4798      	blx	r3
      fe:	e7f9      	b.n	f4 <frame_dummy+0x18>
     100:	00000000 	.word	0x00000000
     104:	20000158 	.word	0x20000158
     108:	0000cf64 	.word	0x0000cf64
     10c:	0000cf64 	.word	0x0000cf64
     110:	00000000 	.word	0x00000000

00000114 <delay_init>:
     114:	b570      	push	{r4, r5, r6, lr}
     116:	2000      	movs	r0, #0
     118:	4b08      	ldr	r3, [pc, #32]	; (13c <delay_init+0x28>)
     11a:	4798      	blx	r3
     11c:	0005      	movs	r5, r0
     11e:	4c08      	ldr	r4, [pc, #32]	; (140 <delay_init+0x2c>)
     120:	21fa      	movs	r1, #250	; 0xfa
     122:	0089      	lsls	r1, r1, #2
     124:	47a0      	blx	r4
     126:	4b07      	ldr	r3, [pc, #28]	; (144 <delay_init+0x30>)
     128:	6018      	str	r0, [r3, #0]
     12a:	4907      	ldr	r1, [pc, #28]	; (148 <delay_init+0x34>)
     12c:	0028      	movs	r0, r5
     12e:	47a0      	blx	r4
     130:	4b06      	ldr	r3, [pc, #24]	; (14c <delay_init+0x38>)
     132:	6018      	str	r0, [r3, #0]
     134:	2205      	movs	r2, #5
     136:	4b06      	ldr	r3, [pc, #24]	; (150 <delay_init+0x3c>)
     138:	601a      	str	r2, [r3, #0]
     13a:	bd70      	pop	{r4, r5, r6, pc}
     13c:	00001545 	.word	0x00001545
     140:	00007be5 	.word	0x00007be5
     144:	20000004 	.word	0x20000004
     148:	000f4240 	.word	0x000f4240
     14c:	20000000 	.word	0x20000000
     150:	e000e010 	.word	0xe000e010

00000154 <delay_cycles_us>:
     154:	b530      	push	{r4, r5, lr}
     156:	4b08      	ldr	r3, [pc, #32]	; (178 <delay_cycles_us+0x24>)
     158:	681c      	ldr	r4, [r3, #0]
     15a:	4a08      	ldr	r2, [pc, #32]	; (17c <delay_cycles_us+0x28>)
     15c:	2500      	movs	r5, #0
     15e:	2180      	movs	r1, #128	; 0x80
     160:	0249      	lsls	r1, r1, #9
     162:	e006      	b.n	172 <delay_cycles_us+0x1e>
     164:	2c00      	cmp	r4, #0
     166:	d004      	beq.n	172 <delay_cycles_us+0x1e>
     168:	6054      	str	r4, [r2, #4]
     16a:	6095      	str	r5, [r2, #8]
     16c:	6813      	ldr	r3, [r2, #0]
     16e:	420b      	tst	r3, r1
     170:	d0fc      	beq.n	16c <delay_cycles_us+0x18>
     172:	3801      	subs	r0, #1
     174:	d2f6      	bcs.n	164 <delay_cycles_us+0x10>
     176:	bd30      	pop	{r4, r5, pc}
     178:	20000000 	.word	0x20000000
     17c:	e000e010 	.word	0xe000e010

00000180 <delay_cycles_ms>:
     180:	b530      	push	{r4, r5, lr}
     182:	4b08      	ldr	r3, [pc, #32]	; (1a4 <delay_cycles_ms+0x24>)
     184:	681c      	ldr	r4, [r3, #0]
     186:	4a08      	ldr	r2, [pc, #32]	; (1a8 <delay_cycles_ms+0x28>)
     188:	2500      	movs	r5, #0
     18a:	2180      	movs	r1, #128	; 0x80
     18c:	0249      	lsls	r1, r1, #9
     18e:	e006      	b.n	19e <delay_cycles_ms+0x1e>
     190:	2c00      	cmp	r4, #0
     192:	d004      	beq.n	19e <delay_cycles_ms+0x1e>
     194:	6054      	str	r4, [r2, #4]
     196:	6095      	str	r5, [r2, #8]
     198:	6813      	ldr	r3, [r2, #0]
     19a:	420b      	tst	r3, r1
     19c:	d0fc      	beq.n	198 <delay_cycles_ms+0x18>
     19e:	3801      	subs	r0, #1
     1a0:	d2f6      	bcs.n	190 <delay_cycles_ms+0x10>
     1a2:	bd30      	pop	{r4, r5, pc}
     1a4:	20000004 	.word	0x20000004
     1a8:	e000e010 	.word	0xe000e010

000001ac <cpu_irq_enter_critical>:
     1ac:	4b0c      	ldr	r3, [pc, #48]	; (1e0 <cpu_irq_enter_critical+0x34>)
     1ae:	681b      	ldr	r3, [r3, #0]
     1b0:	2b00      	cmp	r3, #0
     1b2:	d110      	bne.n	1d6 <cpu_irq_enter_critical+0x2a>
     1b4:	f3ef 8310 	mrs	r3, PRIMASK
     1b8:	2b00      	cmp	r3, #0
     1ba:	d109      	bne.n	1d0 <cpu_irq_enter_critical+0x24>
     1bc:	b672      	cpsid	i
     1be:	f3bf 8f5f 	dmb	sy
     1c2:	2200      	movs	r2, #0
     1c4:	4b07      	ldr	r3, [pc, #28]	; (1e4 <cpu_irq_enter_critical+0x38>)
     1c6:	701a      	strb	r2, [r3, #0]
     1c8:	3201      	adds	r2, #1
     1ca:	4b07      	ldr	r3, [pc, #28]	; (1e8 <cpu_irq_enter_critical+0x3c>)
     1cc:	701a      	strb	r2, [r3, #0]
     1ce:	e002      	b.n	1d6 <cpu_irq_enter_critical+0x2a>
     1d0:	2200      	movs	r2, #0
     1d2:	4b05      	ldr	r3, [pc, #20]	; (1e8 <cpu_irq_enter_critical+0x3c>)
     1d4:	701a      	strb	r2, [r3, #0]
     1d6:	4a02      	ldr	r2, [pc, #8]	; (1e0 <cpu_irq_enter_critical+0x34>)
     1d8:	6813      	ldr	r3, [r2, #0]
     1da:	3301      	adds	r3, #1
     1dc:	6013      	str	r3, [r2, #0]
     1de:	4770      	bx	lr
     1e0:	20000170 	.word	0x20000170
     1e4:	20000008 	.word	0x20000008
     1e8:	20000174 	.word	0x20000174

000001ec <cpu_irq_leave_critical>:
     1ec:	4b08      	ldr	r3, [pc, #32]	; (210 <cpu_irq_leave_critical+0x24>)
     1ee:	681a      	ldr	r2, [r3, #0]
     1f0:	3a01      	subs	r2, #1
     1f2:	601a      	str	r2, [r3, #0]
     1f4:	681b      	ldr	r3, [r3, #0]
     1f6:	2b00      	cmp	r3, #0
     1f8:	d109      	bne.n	20e <cpu_irq_leave_critical+0x22>
     1fa:	4b06      	ldr	r3, [pc, #24]	; (214 <cpu_irq_leave_critical+0x28>)
     1fc:	781b      	ldrb	r3, [r3, #0]
     1fe:	2b00      	cmp	r3, #0
     200:	d005      	beq.n	20e <cpu_irq_leave_critical+0x22>
     202:	2201      	movs	r2, #1
     204:	4b04      	ldr	r3, [pc, #16]	; (218 <cpu_irq_leave_critical+0x2c>)
     206:	701a      	strb	r2, [r3, #0]
     208:	f3bf 8f5f 	dmb	sy
     20c:	b662      	cpsie	i
     20e:	4770      	bx	lr
     210:	20000170 	.word	0x20000170
     214:	20000174 	.word	0x20000174
     218:	20000008 	.word	0x20000008

0000021c <system_board_init>:
     21c:	b5f0      	push	{r4, r5, r6, r7, lr}
     21e:	b083      	sub	sp, #12
     220:	ac01      	add	r4, sp, #4
     222:	2501      	movs	r5, #1
     224:	7065      	strb	r5, [r4, #1]
     226:	2700      	movs	r7, #0
     228:	70a7      	strb	r7, [r4, #2]
     22a:	7025      	strb	r5, [r4, #0]
     22c:	0021      	movs	r1, r4
     22e:	203e      	movs	r0, #62	; 0x3e
     230:	4e06      	ldr	r6, [pc, #24]	; (24c <system_board_init+0x30>)
     232:	47b0      	blx	r6
     234:	2280      	movs	r2, #128	; 0x80
     236:	05d2      	lsls	r2, r2, #23
     238:	4b05      	ldr	r3, [pc, #20]	; (250 <system_board_init+0x34>)
     23a:	619a      	str	r2, [r3, #24]
     23c:	7027      	strb	r7, [r4, #0]
     23e:	7065      	strb	r5, [r4, #1]
     240:	0021      	movs	r1, r4
     242:	200f      	movs	r0, #15
     244:	47b0      	blx	r6
     246:	b003      	add	sp, #12
     248:	bdf0      	pop	{r4, r5, r6, r7, pc}
     24a:	46c0      	nop			; (mov r8, r8)
     24c:	00000341 	.word	0x00000341
     250:	41004480 	.word	0x41004480

00000254 <EIC_Handler>:
     254:	b570      	push	{r4, r5, r6, lr}
     256:	2200      	movs	r2, #0
     258:	4b15      	ldr	r3, [pc, #84]	; (2b0 <EIC_Handler+0x5c>)
     25a:	701a      	strb	r2, [r3, #0]
     25c:	2300      	movs	r3, #0
     25e:	251f      	movs	r5, #31
     260:	4e14      	ldr	r6, [pc, #80]	; (2b4 <EIC_Handler+0x60>)
     262:	4c13      	ldr	r4, [pc, #76]	; (2b0 <EIC_Handler+0x5c>)
     264:	2b1f      	cmp	r3, #31
     266:	d919      	bls.n	29c <EIC_Handler+0x48>
     268:	e00f      	b.n	28a <EIC_Handler+0x36>
     26a:	2100      	movs	r1, #0
     26c:	e000      	b.n	270 <EIC_Handler+0x1c>
     26e:	4912      	ldr	r1, [pc, #72]	; (2b8 <EIC_Handler+0x64>)
     270:	610a      	str	r2, [r1, #16]
     272:	009b      	lsls	r3, r3, #2
     274:	599b      	ldr	r3, [r3, r6]
     276:	2b00      	cmp	r3, #0
     278:	d000      	beq.n	27c <EIC_Handler+0x28>
     27a:	4798      	blx	r3
     27c:	7823      	ldrb	r3, [r4, #0]
     27e:	3301      	adds	r3, #1
     280:	b2db      	uxtb	r3, r3
     282:	7023      	strb	r3, [r4, #0]
     284:	2b0f      	cmp	r3, #15
     286:	d9ed      	bls.n	264 <EIC_Handler+0x10>
     288:	e011      	b.n	2ae <EIC_Handler+0x5a>
     28a:	0029      	movs	r1, r5
     28c:	4019      	ands	r1, r3
     28e:	2201      	movs	r2, #1
     290:	408a      	lsls	r2, r1
     292:	2100      	movs	r1, #0
     294:	6909      	ldr	r1, [r1, #16]
     296:	4211      	tst	r1, r2
     298:	d1e7      	bne.n	26a <EIC_Handler+0x16>
     29a:	e7ef      	b.n	27c <EIC_Handler+0x28>
     29c:	0029      	movs	r1, r5
     29e:	4019      	ands	r1, r3
     2a0:	2201      	movs	r2, #1
     2a2:	408a      	lsls	r2, r1
     2a4:	4904      	ldr	r1, [pc, #16]	; (2b8 <EIC_Handler+0x64>)
     2a6:	6909      	ldr	r1, [r1, #16]
     2a8:	4211      	tst	r1, r2
     2aa:	d1e0      	bne.n	26e <EIC_Handler+0x1a>
     2ac:	e7e6      	b.n	27c <EIC_Handler+0x28>
     2ae:	bd70      	pop	{r4, r5, r6, pc}
     2b0:	20000f90 	.word	0x20000f90
     2b4:	20000f94 	.word	0x20000f94
     2b8:	40001800 	.word	0x40001800

000002bc <_extint_enable>:
     2bc:	4a04      	ldr	r2, [pc, #16]	; (2d0 <_extint_enable+0x14>)
     2be:	7811      	ldrb	r1, [r2, #0]
     2c0:	2302      	movs	r3, #2
     2c2:	430b      	orrs	r3, r1
     2c4:	7013      	strb	r3, [r2, #0]
     2c6:	7853      	ldrb	r3, [r2, #1]
     2c8:	b25b      	sxtb	r3, r3
     2ca:	2b00      	cmp	r3, #0
     2cc:	dbfb      	blt.n	2c6 <_extint_enable+0xa>
     2ce:	4770      	bx	lr
     2d0:	40001800 	.word	0x40001800

000002d4 <_system_extint_init>:
     2d4:	b500      	push	{lr}
     2d6:	b083      	sub	sp, #12
     2d8:	4a12      	ldr	r2, [pc, #72]	; (324 <_system_extint_init+0x50>)
     2da:	6991      	ldr	r1, [r2, #24]
     2dc:	2340      	movs	r3, #64	; 0x40
     2de:	430b      	orrs	r3, r1
     2e0:	6193      	str	r3, [r2, #24]
     2e2:	a901      	add	r1, sp, #4
     2e4:	2300      	movs	r3, #0
     2e6:	700b      	strb	r3, [r1, #0]
     2e8:	2005      	movs	r0, #5
     2ea:	4b0f      	ldr	r3, [pc, #60]	; (328 <_system_extint_init+0x54>)
     2ec:	4798      	blx	r3
     2ee:	2005      	movs	r0, #5
     2f0:	4b0e      	ldr	r3, [pc, #56]	; (32c <_system_extint_init+0x58>)
     2f2:	4798      	blx	r3
     2f4:	4a0e      	ldr	r2, [pc, #56]	; (330 <_system_extint_init+0x5c>)
     2f6:	7811      	ldrb	r1, [r2, #0]
     2f8:	2301      	movs	r3, #1
     2fa:	430b      	orrs	r3, r1
     2fc:	7013      	strb	r3, [r2, #0]
     2fe:	7853      	ldrb	r3, [r2, #1]
     300:	b25b      	sxtb	r3, r3
     302:	2b00      	cmp	r3, #0
     304:	dbfb      	blt.n	2fe <_system_extint_init+0x2a>
     306:	4b0b      	ldr	r3, [pc, #44]	; (334 <_system_extint_init+0x60>)
     308:	0019      	movs	r1, r3
     30a:	3140      	adds	r1, #64	; 0x40
     30c:	2200      	movs	r2, #0
     30e:	c304      	stmia	r3!, {r2}
     310:	4299      	cmp	r1, r3
     312:	d1fc      	bne.n	30e <_system_extint_init+0x3a>
     314:	2210      	movs	r2, #16
     316:	4b08      	ldr	r3, [pc, #32]	; (338 <_system_extint_init+0x64>)
     318:	601a      	str	r2, [r3, #0]
     31a:	4b08      	ldr	r3, [pc, #32]	; (33c <_system_extint_init+0x68>)
     31c:	4798      	blx	r3
     31e:	b003      	add	sp, #12
     320:	bd00      	pop	{pc}
     322:	46c0      	nop			; (mov r8, r8)
     324:	40000400 	.word	0x40000400
     328:	0000165d 	.word	0x0000165d
     32c:	000015d1 	.word	0x000015d1
     330:	40001800 	.word	0x40001800
     334:	20000f94 	.word	0x20000f94
     338:	e000e100 	.word	0xe000e100
     33c:	000002bd 	.word	0x000002bd

00000340 <port_pin_set_config>:
     340:	b500      	push	{lr}
     342:	b083      	sub	sp, #12
     344:	ab01      	add	r3, sp, #4
     346:	2280      	movs	r2, #128	; 0x80
     348:	701a      	strb	r2, [r3, #0]
     34a:	780a      	ldrb	r2, [r1, #0]
     34c:	705a      	strb	r2, [r3, #1]
     34e:	784a      	ldrb	r2, [r1, #1]
     350:	709a      	strb	r2, [r3, #2]
     352:	788a      	ldrb	r2, [r1, #2]
     354:	70da      	strb	r2, [r3, #3]
     356:	0019      	movs	r1, r3
     358:	4b01      	ldr	r3, [pc, #4]	; (360 <port_pin_set_config+0x20>)
     35a:	4798      	blx	r3
     35c:	b003      	add	sp, #12
     35e:	bd00      	pop	{pc}
     360:	00001755 	.word	0x00001755

00000364 <_sercom_get_sync_baud_val>:
     364:	b510      	push	{r4, lr}
     366:	0849      	lsrs	r1, r1, #1
     368:	2340      	movs	r3, #64	; 0x40
     36a:	2400      	movs	r4, #0
     36c:	4281      	cmp	r1, r0
     36e:	d201      	bcs.n	374 <_sercom_get_sync_baud_val+0x10>
     370:	e00a      	b.n	388 <_sercom_get_sync_baud_val+0x24>
     372:	001c      	movs	r4, r3
     374:	1a09      	subs	r1, r1, r0
     376:	1c63      	adds	r3, r4, #1
     378:	b29b      	uxth	r3, r3
     37a:	4288      	cmp	r0, r1
     37c:	d9f9      	bls.n	372 <_sercom_get_sync_baud_val+0xe>
     37e:	2340      	movs	r3, #64	; 0x40
     380:	2cff      	cmp	r4, #255	; 0xff
     382:	d801      	bhi.n	388 <_sercom_get_sync_baud_val+0x24>
     384:	8014      	strh	r4, [r2, #0]
     386:	2300      	movs	r3, #0
     388:	0018      	movs	r0, r3
     38a:	bd10      	pop	{r4, pc}

0000038c <_sercom_get_async_baud_val>:
     38c:	b5f0      	push	{r4, r5, r6, r7, lr}
     38e:	465f      	mov	r7, fp
     390:	4656      	mov	r6, sl
     392:	464d      	mov	r5, r9
     394:	4644      	mov	r4, r8
     396:	b4f0      	push	{r4, r5, r6, r7}
     398:	b089      	sub	sp, #36	; 0x24
     39a:	000c      	movs	r4, r1
     39c:	9205      	str	r2, [sp, #20]
     39e:	aa12      	add	r2, sp, #72	; 0x48
     3a0:	7811      	ldrb	r1, [r2, #0]
     3a2:	0002      	movs	r2, r0
     3a4:	434a      	muls	r2, r1
     3a6:	2540      	movs	r5, #64	; 0x40
     3a8:	42a2      	cmp	r2, r4
     3aa:	d900      	bls.n	3ae <_sercom_get_async_baud_val+0x22>
     3ac:	e0c6      	b.n	53c <_sercom_get_async_baud_val+0x1b0>
     3ae:	2b00      	cmp	r3, #0
     3b0:	d151      	bne.n	456 <_sercom_get_async_baud_val+0xca>
     3b2:	0002      	movs	r2, r0
     3b4:	0008      	movs	r0, r1
     3b6:	2100      	movs	r1, #0
     3b8:	4d64      	ldr	r5, [pc, #400]	; (54c <_sercom_get_async_baud_val+0x1c0>)
     3ba:	47a8      	blx	r5
     3bc:	4683      	mov	fp, r0
     3be:	0026      	movs	r6, r4
     3c0:	2700      	movs	r7, #0
     3c2:	2300      	movs	r3, #0
     3c4:	2400      	movs	r4, #0
     3c6:	9300      	str	r3, [sp, #0]
     3c8:	9401      	str	r4, [sp, #4]
     3ca:	2200      	movs	r2, #0
     3cc:	2300      	movs	r3, #0
     3ce:	203f      	movs	r0, #63	; 0x3f
     3d0:	2120      	movs	r1, #32
     3d2:	468c      	mov	ip, r1
     3d4:	391f      	subs	r1, #31
     3d6:	9602      	str	r6, [sp, #8]
     3d8:	9703      	str	r7, [sp, #12]
     3da:	2420      	movs	r4, #32
     3dc:	4264      	negs	r4, r4
     3de:	1904      	adds	r4, r0, r4
     3e0:	d403      	bmi.n	3ea <_sercom_get_async_baud_val+0x5e>
     3e2:	000d      	movs	r5, r1
     3e4:	40a5      	lsls	r5, r4
     3e6:	46a8      	mov	r8, r5
     3e8:	e004      	b.n	3f4 <_sercom_get_async_baud_val+0x68>
     3ea:	4664      	mov	r4, ip
     3ec:	1a24      	subs	r4, r4, r0
     3ee:	000d      	movs	r5, r1
     3f0:	40e5      	lsrs	r5, r4
     3f2:	46a8      	mov	r8, r5
     3f4:	000c      	movs	r4, r1
     3f6:	4084      	lsls	r4, r0
     3f8:	46a1      	mov	r9, r4
     3fa:	0014      	movs	r4, r2
     3fc:	001d      	movs	r5, r3
     3fe:	18a4      	adds	r4, r4, r2
     400:	415d      	adcs	r5, r3
     402:	0022      	movs	r2, r4
     404:	002b      	movs	r3, r5
     406:	4646      	mov	r6, r8
     408:	465f      	mov	r7, fp
     40a:	423e      	tst	r6, r7
     40c:	d003      	beq.n	416 <_sercom_get_async_baud_val+0x8a>
     40e:	000e      	movs	r6, r1
     410:	4326      	orrs	r6, r4
     412:	0032      	movs	r2, r6
     414:	002b      	movs	r3, r5
     416:	9c02      	ldr	r4, [sp, #8]
     418:	9d03      	ldr	r5, [sp, #12]
     41a:	429d      	cmp	r5, r3
     41c:	d80f      	bhi.n	43e <_sercom_get_async_baud_val+0xb2>
     41e:	d101      	bne.n	424 <_sercom_get_async_baud_val+0x98>
     420:	4294      	cmp	r4, r2
     422:	d80c      	bhi.n	43e <_sercom_get_async_baud_val+0xb2>
     424:	9c02      	ldr	r4, [sp, #8]
     426:	9d03      	ldr	r5, [sp, #12]
     428:	1b12      	subs	r2, r2, r4
     42a:	41ab      	sbcs	r3, r5
     42c:	464d      	mov	r5, r9
     42e:	9e00      	ldr	r6, [sp, #0]
     430:	9f01      	ldr	r7, [sp, #4]
     432:	4335      	orrs	r5, r6
     434:	003c      	movs	r4, r7
     436:	4646      	mov	r6, r8
     438:	4334      	orrs	r4, r6
     43a:	9500      	str	r5, [sp, #0]
     43c:	9401      	str	r4, [sp, #4]
     43e:	3801      	subs	r0, #1
     440:	d2cb      	bcs.n	3da <_sercom_get_async_baud_val+0x4e>
     442:	2200      	movs	r2, #0
     444:	2301      	movs	r3, #1
     446:	9800      	ldr	r0, [sp, #0]
     448:	9901      	ldr	r1, [sp, #4]
     44a:	1a12      	subs	r2, r2, r0
     44c:	418b      	sbcs	r3, r1
     44e:	0c12      	lsrs	r2, r2, #16
     450:	041b      	lsls	r3, r3, #16
     452:	431a      	orrs	r2, r3
     454:	e06f      	b.n	536 <_sercom_get_async_baud_val+0x1aa>
     456:	2200      	movs	r2, #0
     458:	2b01      	cmp	r3, #1
     45a:	d16c      	bne.n	536 <_sercom_get_async_baud_val+0x1aa>
     45c:	0f63      	lsrs	r3, r4, #29
     45e:	9304      	str	r3, [sp, #16]
     460:	00e3      	lsls	r3, r4, #3
     462:	4698      	mov	r8, r3
     464:	000a      	movs	r2, r1
     466:	2300      	movs	r3, #0
     468:	2100      	movs	r1, #0
     46a:	4c38      	ldr	r4, [pc, #224]	; (54c <_sercom_get_async_baud_val+0x1c0>)
     46c:	47a0      	blx	r4
     46e:	0004      	movs	r4, r0
     470:	000d      	movs	r5, r1
     472:	2300      	movs	r3, #0
     474:	469c      	mov	ip, r3
     476:	9306      	str	r3, [sp, #24]
     478:	3320      	adds	r3, #32
     47a:	469b      	mov	fp, r3
     47c:	2601      	movs	r6, #1
     47e:	4663      	mov	r3, ip
     480:	9307      	str	r3, [sp, #28]
     482:	2300      	movs	r3, #0
     484:	9302      	str	r3, [sp, #8]
     486:	2200      	movs	r2, #0
     488:	2300      	movs	r3, #0
     48a:	213f      	movs	r1, #63	; 0x3f
     48c:	9400      	str	r4, [sp, #0]
     48e:	9501      	str	r5, [sp, #4]
     490:	000f      	movs	r7, r1
     492:	2120      	movs	r1, #32
     494:	4249      	negs	r1, r1
     496:	1879      	adds	r1, r7, r1
     498:	d403      	bmi.n	4a2 <_sercom_get_async_baud_val+0x116>
     49a:	0030      	movs	r0, r6
     49c:	4088      	lsls	r0, r1
     49e:	4684      	mov	ip, r0
     4a0:	e004      	b.n	4ac <_sercom_get_async_baud_val+0x120>
     4a2:	4659      	mov	r1, fp
     4a4:	1bc9      	subs	r1, r1, r7
     4a6:	0030      	movs	r0, r6
     4a8:	40c8      	lsrs	r0, r1
     4aa:	4684      	mov	ip, r0
     4ac:	0031      	movs	r1, r6
     4ae:	40b9      	lsls	r1, r7
     4b0:	4689      	mov	r9, r1
     4b2:	0010      	movs	r0, r2
     4b4:	0019      	movs	r1, r3
     4b6:	1880      	adds	r0, r0, r2
     4b8:	4159      	adcs	r1, r3
     4ba:	0002      	movs	r2, r0
     4bc:	000b      	movs	r3, r1
     4be:	4644      	mov	r4, r8
     4c0:	464d      	mov	r5, r9
     4c2:	402c      	ands	r4, r5
     4c4:	46a2      	mov	sl, r4
     4c6:	4664      	mov	r4, ip
     4c8:	9d04      	ldr	r5, [sp, #16]
     4ca:	402c      	ands	r4, r5
     4cc:	46a4      	mov	ip, r4
     4ce:	4654      	mov	r4, sl
     4d0:	4665      	mov	r5, ip
     4d2:	432c      	orrs	r4, r5
     4d4:	d003      	beq.n	4de <_sercom_get_async_baud_val+0x152>
     4d6:	0034      	movs	r4, r6
     4d8:	4304      	orrs	r4, r0
     4da:	0022      	movs	r2, r4
     4dc:	000b      	movs	r3, r1
     4de:	9800      	ldr	r0, [sp, #0]
     4e0:	9901      	ldr	r1, [sp, #4]
     4e2:	4299      	cmp	r1, r3
     4e4:	d80a      	bhi.n	4fc <_sercom_get_async_baud_val+0x170>
     4e6:	d101      	bne.n	4ec <_sercom_get_async_baud_val+0x160>
     4e8:	4290      	cmp	r0, r2
     4ea:	d807      	bhi.n	4fc <_sercom_get_async_baud_val+0x170>
     4ec:	9800      	ldr	r0, [sp, #0]
     4ee:	9901      	ldr	r1, [sp, #4]
     4f0:	1a12      	subs	r2, r2, r0
     4f2:	418b      	sbcs	r3, r1
     4f4:	9902      	ldr	r1, [sp, #8]
     4f6:	4648      	mov	r0, r9
     4f8:	4301      	orrs	r1, r0
     4fa:	9102      	str	r1, [sp, #8]
     4fc:	3f01      	subs	r7, #1
     4fe:	d2c8      	bcs.n	492 <_sercom_get_async_baud_val+0x106>
     500:	9c00      	ldr	r4, [sp, #0]
     502:	9d01      	ldr	r5, [sp, #4]
     504:	9902      	ldr	r1, [sp, #8]
     506:	9a07      	ldr	r2, [sp, #28]
     508:	1a8b      	subs	r3, r1, r2
     50a:	08db      	lsrs	r3, r3, #3
     50c:	4910      	ldr	r1, [pc, #64]	; (550 <_sercom_get_async_baud_val+0x1c4>)
     50e:	428b      	cmp	r3, r1
     510:	d90b      	bls.n	52a <_sercom_get_async_baud_val+0x19e>
     512:	9b06      	ldr	r3, [sp, #24]
     514:	3301      	adds	r3, #1
     516:	b2db      	uxtb	r3, r3
     518:	0019      	movs	r1, r3
     51a:	9306      	str	r3, [sp, #24]
     51c:	0013      	movs	r3, r2
     51e:	3301      	adds	r3, #1
     520:	9307      	str	r3, [sp, #28]
     522:	2908      	cmp	r1, #8
     524:	d1ad      	bne.n	482 <_sercom_get_async_baud_val+0xf6>
     526:	2540      	movs	r5, #64	; 0x40
     528:	e008      	b.n	53c <_sercom_get_async_baud_val+0x1b0>
     52a:	2540      	movs	r5, #64	; 0x40
     52c:	9a06      	ldr	r2, [sp, #24]
     52e:	2a08      	cmp	r2, #8
     530:	d004      	beq.n	53c <_sercom_get_async_baud_val+0x1b0>
     532:	0352      	lsls	r2, r2, #13
     534:	431a      	orrs	r2, r3
     536:	9b05      	ldr	r3, [sp, #20]
     538:	801a      	strh	r2, [r3, #0]
     53a:	2500      	movs	r5, #0
     53c:	0028      	movs	r0, r5
     53e:	b009      	add	sp, #36	; 0x24
     540:	bc3c      	pop	{r2, r3, r4, r5}
     542:	4690      	mov	r8, r2
     544:	4699      	mov	r9, r3
     546:	46a2      	mov	sl, r4
     548:	46ab      	mov	fp, r5
     54a:	bdf0      	pop	{r4, r5, r6, r7, pc}
     54c:	00007cfd 	.word	0x00007cfd
     550:	00001fff 	.word	0x00001fff

00000554 <sercom_set_gclk_generator>:
     554:	b510      	push	{r4, lr}
     556:	b082      	sub	sp, #8
     558:	0004      	movs	r4, r0
     55a:	4b0e      	ldr	r3, [pc, #56]	; (594 <sercom_set_gclk_generator+0x40>)
     55c:	781b      	ldrb	r3, [r3, #0]
     55e:	2b00      	cmp	r3, #0
     560:	d001      	beq.n	566 <sercom_set_gclk_generator+0x12>
     562:	2900      	cmp	r1, #0
     564:	d00d      	beq.n	582 <sercom_set_gclk_generator+0x2e>
     566:	a901      	add	r1, sp, #4
     568:	700c      	strb	r4, [r1, #0]
     56a:	2013      	movs	r0, #19
     56c:	4b0a      	ldr	r3, [pc, #40]	; (598 <sercom_set_gclk_generator+0x44>)
     56e:	4798      	blx	r3
     570:	2013      	movs	r0, #19
     572:	4b0a      	ldr	r3, [pc, #40]	; (59c <sercom_set_gclk_generator+0x48>)
     574:	4798      	blx	r3
     576:	4b07      	ldr	r3, [pc, #28]	; (594 <sercom_set_gclk_generator+0x40>)
     578:	705c      	strb	r4, [r3, #1]
     57a:	2201      	movs	r2, #1
     57c:	701a      	strb	r2, [r3, #0]
     57e:	2000      	movs	r0, #0
     580:	e006      	b.n	590 <sercom_set_gclk_generator+0x3c>
     582:	4b04      	ldr	r3, [pc, #16]	; (594 <sercom_set_gclk_generator+0x40>)
     584:	785b      	ldrb	r3, [r3, #1]
     586:	4283      	cmp	r3, r0
     588:	d001      	beq.n	58e <sercom_set_gclk_generator+0x3a>
     58a:	201d      	movs	r0, #29
     58c:	e000      	b.n	590 <sercom_set_gclk_generator+0x3c>
     58e:	2000      	movs	r0, #0
     590:	b002      	add	sp, #8
     592:	bd10      	pop	{r4, pc}
     594:	20000178 	.word	0x20000178
     598:	0000165d 	.word	0x0000165d
     59c:	000015d1 	.word	0x000015d1

000005a0 <_sercom_get_default_pad>:
     5a0:	4b44      	ldr	r3, [pc, #272]	; (6b4 <_sercom_get_default_pad+0x114>)
     5a2:	4298      	cmp	r0, r3
     5a4:	d033      	beq.n	60e <_sercom_get_default_pad+0x6e>
     5a6:	d806      	bhi.n	5b6 <_sercom_get_default_pad+0x16>
     5a8:	4b43      	ldr	r3, [pc, #268]	; (6b8 <_sercom_get_default_pad+0x118>)
     5aa:	4298      	cmp	r0, r3
     5ac:	d00d      	beq.n	5ca <_sercom_get_default_pad+0x2a>
     5ae:	4b43      	ldr	r3, [pc, #268]	; (6bc <_sercom_get_default_pad+0x11c>)
     5b0:	4298      	cmp	r0, r3
     5b2:	d01b      	beq.n	5ec <_sercom_get_default_pad+0x4c>
     5b4:	e06f      	b.n	696 <_sercom_get_default_pad+0xf6>
     5b6:	4b42      	ldr	r3, [pc, #264]	; (6c0 <_sercom_get_default_pad+0x120>)
     5b8:	4298      	cmp	r0, r3
     5ba:	d04a      	beq.n	652 <_sercom_get_default_pad+0xb2>
     5bc:	4b41      	ldr	r3, [pc, #260]	; (6c4 <_sercom_get_default_pad+0x124>)
     5be:	4298      	cmp	r0, r3
     5c0:	d058      	beq.n	674 <_sercom_get_default_pad+0xd4>
     5c2:	4b41      	ldr	r3, [pc, #260]	; (6c8 <_sercom_get_default_pad+0x128>)
     5c4:	4298      	cmp	r0, r3
     5c6:	d166      	bne.n	696 <_sercom_get_default_pad+0xf6>
     5c8:	e032      	b.n	630 <_sercom_get_default_pad+0x90>
     5ca:	2901      	cmp	r1, #1
     5cc:	d006      	beq.n	5dc <_sercom_get_default_pad+0x3c>
     5ce:	2900      	cmp	r1, #0
     5d0:	d063      	beq.n	69a <_sercom_get_default_pad+0xfa>
     5d2:	2902      	cmp	r1, #2
     5d4:	d006      	beq.n	5e4 <_sercom_get_default_pad+0x44>
     5d6:	2903      	cmp	r1, #3
     5d8:	d006      	beq.n	5e8 <_sercom_get_default_pad+0x48>
     5da:	e001      	b.n	5e0 <_sercom_get_default_pad+0x40>
     5dc:	483b      	ldr	r0, [pc, #236]	; (6cc <_sercom_get_default_pad+0x12c>)
     5de:	e067      	b.n	6b0 <_sercom_get_default_pad+0x110>
     5e0:	2000      	movs	r0, #0
     5e2:	e065      	b.n	6b0 <_sercom_get_default_pad+0x110>
     5e4:	483a      	ldr	r0, [pc, #232]	; (6d0 <_sercom_get_default_pad+0x130>)
     5e6:	e063      	b.n	6b0 <_sercom_get_default_pad+0x110>
     5e8:	483a      	ldr	r0, [pc, #232]	; (6d4 <_sercom_get_default_pad+0x134>)
     5ea:	e061      	b.n	6b0 <_sercom_get_default_pad+0x110>
     5ec:	2901      	cmp	r1, #1
     5ee:	d006      	beq.n	5fe <_sercom_get_default_pad+0x5e>
     5f0:	2900      	cmp	r1, #0
     5f2:	d054      	beq.n	69e <_sercom_get_default_pad+0xfe>
     5f4:	2902      	cmp	r1, #2
     5f6:	d006      	beq.n	606 <_sercom_get_default_pad+0x66>
     5f8:	2903      	cmp	r1, #3
     5fa:	d006      	beq.n	60a <_sercom_get_default_pad+0x6a>
     5fc:	e001      	b.n	602 <_sercom_get_default_pad+0x62>
     5fe:	4836      	ldr	r0, [pc, #216]	; (6d8 <_sercom_get_default_pad+0x138>)
     600:	e056      	b.n	6b0 <_sercom_get_default_pad+0x110>
     602:	2000      	movs	r0, #0
     604:	e054      	b.n	6b0 <_sercom_get_default_pad+0x110>
     606:	4835      	ldr	r0, [pc, #212]	; (6dc <_sercom_get_default_pad+0x13c>)
     608:	e052      	b.n	6b0 <_sercom_get_default_pad+0x110>
     60a:	4835      	ldr	r0, [pc, #212]	; (6e0 <_sercom_get_default_pad+0x140>)
     60c:	e050      	b.n	6b0 <_sercom_get_default_pad+0x110>
     60e:	2901      	cmp	r1, #1
     610:	d006      	beq.n	620 <_sercom_get_default_pad+0x80>
     612:	2900      	cmp	r1, #0
     614:	d045      	beq.n	6a2 <_sercom_get_default_pad+0x102>
     616:	2902      	cmp	r1, #2
     618:	d006      	beq.n	628 <_sercom_get_default_pad+0x88>
     61a:	2903      	cmp	r1, #3
     61c:	d006      	beq.n	62c <_sercom_get_default_pad+0x8c>
     61e:	e001      	b.n	624 <_sercom_get_default_pad+0x84>
     620:	4830      	ldr	r0, [pc, #192]	; (6e4 <_sercom_get_default_pad+0x144>)
     622:	e045      	b.n	6b0 <_sercom_get_default_pad+0x110>
     624:	2000      	movs	r0, #0
     626:	e043      	b.n	6b0 <_sercom_get_default_pad+0x110>
     628:	482f      	ldr	r0, [pc, #188]	; (6e8 <_sercom_get_default_pad+0x148>)
     62a:	e041      	b.n	6b0 <_sercom_get_default_pad+0x110>
     62c:	482f      	ldr	r0, [pc, #188]	; (6ec <_sercom_get_default_pad+0x14c>)
     62e:	e03f      	b.n	6b0 <_sercom_get_default_pad+0x110>
     630:	2901      	cmp	r1, #1
     632:	d006      	beq.n	642 <_sercom_get_default_pad+0xa2>
     634:	2900      	cmp	r1, #0
     636:	d036      	beq.n	6a6 <_sercom_get_default_pad+0x106>
     638:	2902      	cmp	r1, #2
     63a:	d006      	beq.n	64a <_sercom_get_default_pad+0xaa>
     63c:	2903      	cmp	r1, #3
     63e:	d006      	beq.n	64e <_sercom_get_default_pad+0xae>
     640:	e001      	b.n	646 <_sercom_get_default_pad+0xa6>
     642:	482b      	ldr	r0, [pc, #172]	; (6f0 <_sercom_get_default_pad+0x150>)
     644:	e034      	b.n	6b0 <_sercom_get_default_pad+0x110>
     646:	2000      	movs	r0, #0
     648:	e032      	b.n	6b0 <_sercom_get_default_pad+0x110>
     64a:	482a      	ldr	r0, [pc, #168]	; (6f4 <_sercom_get_default_pad+0x154>)
     64c:	e030      	b.n	6b0 <_sercom_get_default_pad+0x110>
     64e:	482a      	ldr	r0, [pc, #168]	; (6f8 <_sercom_get_default_pad+0x158>)
     650:	e02e      	b.n	6b0 <_sercom_get_default_pad+0x110>
     652:	2901      	cmp	r1, #1
     654:	d006      	beq.n	664 <_sercom_get_default_pad+0xc4>
     656:	2900      	cmp	r1, #0
     658:	d027      	beq.n	6aa <_sercom_get_default_pad+0x10a>
     65a:	2902      	cmp	r1, #2
     65c:	d006      	beq.n	66c <_sercom_get_default_pad+0xcc>
     65e:	2903      	cmp	r1, #3
     660:	d006      	beq.n	670 <_sercom_get_default_pad+0xd0>
     662:	e001      	b.n	668 <_sercom_get_default_pad+0xc8>
     664:	4825      	ldr	r0, [pc, #148]	; (6fc <_sercom_get_default_pad+0x15c>)
     666:	e023      	b.n	6b0 <_sercom_get_default_pad+0x110>
     668:	2000      	movs	r0, #0
     66a:	e021      	b.n	6b0 <_sercom_get_default_pad+0x110>
     66c:	4824      	ldr	r0, [pc, #144]	; (700 <_sercom_get_default_pad+0x160>)
     66e:	e01f      	b.n	6b0 <_sercom_get_default_pad+0x110>
     670:	4824      	ldr	r0, [pc, #144]	; (704 <_sercom_get_default_pad+0x164>)
     672:	e01d      	b.n	6b0 <_sercom_get_default_pad+0x110>
     674:	2901      	cmp	r1, #1
     676:	d006      	beq.n	686 <_sercom_get_default_pad+0xe6>
     678:	2900      	cmp	r1, #0
     67a:	d018      	beq.n	6ae <_sercom_get_default_pad+0x10e>
     67c:	2902      	cmp	r1, #2
     67e:	d006      	beq.n	68e <_sercom_get_default_pad+0xee>
     680:	2903      	cmp	r1, #3
     682:	d006      	beq.n	692 <_sercom_get_default_pad+0xf2>
     684:	e001      	b.n	68a <_sercom_get_default_pad+0xea>
     686:	4820      	ldr	r0, [pc, #128]	; (708 <_sercom_get_default_pad+0x168>)
     688:	e012      	b.n	6b0 <_sercom_get_default_pad+0x110>
     68a:	2000      	movs	r0, #0
     68c:	e010      	b.n	6b0 <_sercom_get_default_pad+0x110>
     68e:	481f      	ldr	r0, [pc, #124]	; (70c <_sercom_get_default_pad+0x16c>)
     690:	e00e      	b.n	6b0 <_sercom_get_default_pad+0x110>
     692:	481f      	ldr	r0, [pc, #124]	; (710 <_sercom_get_default_pad+0x170>)
     694:	e00c      	b.n	6b0 <_sercom_get_default_pad+0x110>
     696:	2000      	movs	r0, #0
     698:	e00a      	b.n	6b0 <_sercom_get_default_pad+0x110>
     69a:	481e      	ldr	r0, [pc, #120]	; (714 <_sercom_get_default_pad+0x174>)
     69c:	e008      	b.n	6b0 <_sercom_get_default_pad+0x110>
     69e:	2003      	movs	r0, #3
     6a0:	e006      	b.n	6b0 <_sercom_get_default_pad+0x110>
     6a2:	481d      	ldr	r0, [pc, #116]	; (718 <_sercom_get_default_pad+0x178>)
     6a4:	e004      	b.n	6b0 <_sercom_get_default_pad+0x110>
     6a6:	481d      	ldr	r0, [pc, #116]	; (71c <_sercom_get_default_pad+0x17c>)
     6a8:	e002      	b.n	6b0 <_sercom_get_default_pad+0x110>
     6aa:	481d      	ldr	r0, [pc, #116]	; (720 <_sercom_get_default_pad+0x180>)
     6ac:	e000      	b.n	6b0 <_sercom_get_default_pad+0x110>
     6ae:	481d      	ldr	r0, [pc, #116]	; (724 <_sercom_get_default_pad+0x184>)
     6b0:	4770      	bx	lr
     6b2:	46c0      	nop			; (mov r8, r8)
     6b4:	42001000 	.word	0x42001000
     6b8:	42000800 	.word	0x42000800
     6bc:	42000c00 	.word	0x42000c00
     6c0:	42001800 	.word	0x42001800
     6c4:	42001c00 	.word	0x42001c00
     6c8:	42001400 	.word	0x42001400
     6cc:	00050003 	.word	0x00050003
     6d0:	00060003 	.word	0x00060003
     6d4:	00070003 	.word	0x00070003
     6d8:	00010003 	.word	0x00010003
     6dc:	001e0003 	.word	0x001e0003
     6e0:	001f0003 	.word	0x001f0003
     6e4:	00090003 	.word	0x00090003
     6e8:	000a0003 	.word	0x000a0003
     6ec:	000b0003 	.word	0x000b0003
     6f0:	00110003 	.word	0x00110003
     6f4:	00120003 	.word	0x00120003
     6f8:	00130003 	.word	0x00130003
     6fc:	000d0003 	.word	0x000d0003
     700:	000e0003 	.word	0x000e0003
     704:	000f0003 	.word	0x000f0003
     708:	00170003 	.word	0x00170003
     70c:	00180003 	.word	0x00180003
     710:	00190003 	.word	0x00190003
     714:	00040003 	.word	0x00040003
     718:	00080003 	.word	0x00080003
     71c:	00100003 	.word	0x00100003
     720:	000c0003 	.word	0x000c0003
     724:	00160003 	.word	0x00160003

00000728 <_sercom_get_sercom_inst_index>:
     728:	b530      	push	{r4, r5, lr}
     72a:	b087      	sub	sp, #28
     72c:	4b0c      	ldr	r3, [pc, #48]	; (760 <_sercom_get_sercom_inst_index+0x38>)
     72e:	466a      	mov	r2, sp
     730:	cb32      	ldmia	r3!, {r1, r4, r5}
     732:	c232      	stmia	r2!, {r1, r4, r5}
     734:	cb32      	ldmia	r3!, {r1, r4, r5}
     736:	c232      	stmia	r2!, {r1, r4, r5}
     738:	9b00      	ldr	r3, [sp, #0]
     73a:	4283      	cmp	r3, r0
     73c:	d006      	beq.n	74c <_sercom_get_sercom_inst_index+0x24>
     73e:	2301      	movs	r3, #1
     740:	009a      	lsls	r2, r3, #2
     742:	4669      	mov	r1, sp
     744:	5852      	ldr	r2, [r2, r1]
     746:	4282      	cmp	r2, r0
     748:	d103      	bne.n	752 <_sercom_get_sercom_inst_index+0x2a>
     74a:	e000      	b.n	74e <_sercom_get_sercom_inst_index+0x26>
     74c:	2300      	movs	r3, #0
     74e:	b2d8      	uxtb	r0, r3
     750:	e003      	b.n	75a <_sercom_get_sercom_inst_index+0x32>
     752:	3301      	adds	r3, #1
     754:	2b06      	cmp	r3, #6
     756:	d1f3      	bne.n	740 <_sercom_get_sercom_inst_index+0x18>
     758:	2000      	movs	r0, #0
     75a:	b007      	add	sp, #28
     75c:	bd30      	pop	{r4, r5, pc}
     75e:	46c0      	nop			; (mov r8, r8)
     760:	00008f8c 	.word	0x00008f8c

00000764 <_sercom_default_handler>:
     764:	4770      	bx	lr
     766:	46c0      	nop			; (mov r8, r8)

00000768 <_sercom_set_handler>:
     768:	b5f0      	push	{r4, r5, r6, r7, lr}
     76a:	4b0a      	ldr	r3, [pc, #40]	; (794 <_sercom_set_handler+0x2c>)
     76c:	781b      	ldrb	r3, [r3, #0]
     76e:	2b00      	cmp	r3, #0
     770:	d10c      	bne.n	78c <_sercom_set_handler+0x24>
     772:	4f09      	ldr	r7, [pc, #36]	; (798 <_sercom_set_handler+0x30>)
     774:	4e09      	ldr	r6, [pc, #36]	; (79c <_sercom_set_handler+0x34>)
     776:	4d0a      	ldr	r5, [pc, #40]	; (7a0 <_sercom_set_handler+0x38>)
     778:	2400      	movs	r4, #0
     77a:	51de      	str	r6, [r3, r7]
     77c:	195a      	adds	r2, r3, r5
     77e:	6014      	str	r4, [r2, #0]
     780:	3304      	adds	r3, #4
     782:	2b18      	cmp	r3, #24
     784:	d1f9      	bne.n	77a <_sercom_set_handler+0x12>
     786:	2201      	movs	r2, #1
     788:	4b02      	ldr	r3, [pc, #8]	; (794 <_sercom_set_handler+0x2c>)
     78a:	701a      	strb	r2, [r3, #0]
     78c:	0080      	lsls	r0, r0, #2
     78e:	4b02      	ldr	r3, [pc, #8]	; (798 <_sercom_set_handler+0x30>)
     790:	50c1      	str	r1, [r0, r3]
     792:	bdf0      	pop	{r4, r5, r6, r7, pc}
     794:	2000017a 	.word	0x2000017a
     798:	2000017c 	.word	0x2000017c
     79c:	00000765 	.word	0x00000765
     7a0:	20000fd4 	.word	0x20000fd4

000007a4 <_sercom_get_interrupt_vector>:
     7a4:	b510      	push	{r4, lr}
     7a6:	b082      	sub	sp, #8
     7a8:	0004      	movs	r4, r0
     7aa:	2206      	movs	r2, #6
     7ac:	4905      	ldr	r1, [pc, #20]	; (7c4 <_sercom_get_interrupt_vector+0x20>)
     7ae:	4668      	mov	r0, sp
     7b0:	4b05      	ldr	r3, [pc, #20]	; (7c8 <_sercom_get_interrupt_vector+0x24>)
     7b2:	4798      	blx	r3
     7b4:	0020      	movs	r0, r4
     7b6:	4b05      	ldr	r3, [pc, #20]	; (7cc <_sercom_get_interrupt_vector+0x28>)
     7b8:	4798      	blx	r3
     7ba:	466b      	mov	r3, sp
     7bc:	5618      	ldrsb	r0, [r3, r0]
     7be:	b002      	add	sp, #8
     7c0:	bd10      	pop	{r4, pc}
     7c2:	46c0      	nop			; (mov r8, r8)
     7c4:	00008fa4 	.word	0x00008fa4
     7c8:	00007dbf 	.word	0x00007dbf
     7cc:	00000729 	.word	0x00000729

000007d0 <SERCOM0_Handler>:
     7d0:	b510      	push	{r4, lr}
     7d2:	4b02      	ldr	r3, [pc, #8]	; (7dc <SERCOM0_Handler+0xc>)
     7d4:	681b      	ldr	r3, [r3, #0]
     7d6:	2000      	movs	r0, #0
     7d8:	4798      	blx	r3
     7da:	bd10      	pop	{r4, pc}
     7dc:	2000017c 	.word	0x2000017c

000007e0 <SERCOM1_Handler>:
     7e0:	b510      	push	{r4, lr}
     7e2:	4b02      	ldr	r3, [pc, #8]	; (7ec <SERCOM1_Handler+0xc>)
     7e4:	685b      	ldr	r3, [r3, #4]
     7e6:	2001      	movs	r0, #1
     7e8:	4798      	blx	r3
     7ea:	bd10      	pop	{r4, pc}
     7ec:	2000017c 	.word	0x2000017c

000007f0 <SERCOM2_Handler>:
     7f0:	b510      	push	{r4, lr}
     7f2:	4b02      	ldr	r3, [pc, #8]	; (7fc <SERCOM2_Handler+0xc>)
     7f4:	689b      	ldr	r3, [r3, #8]
     7f6:	2002      	movs	r0, #2
     7f8:	4798      	blx	r3
     7fa:	bd10      	pop	{r4, pc}
     7fc:	2000017c 	.word	0x2000017c

00000800 <SERCOM3_Handler>:
     800:	b510      	push	{r4, lr}
     802:	4b02      	ldr	r3, [pc, #8]	; (80c <SERCOM3_Handler+0xc>)
     804:	68db      	ldr	r3, [r3, #12]
     806:	2003      	movs	r0, #3
     808:	4798      	blx	r3
     80a:	bd10      	pop	{r4, pc}
     80c:	2000017c 	.word	0x2000017c

00000810 <SERCOM4_Handler>:
     810:	b510      	push	{r4, lr}
     812:	4b02      	ldr	r3, [pc, #8]	; (81c <SERCOM4_Handler+0xc>)
     814:	691b      	ldr	r3, [r3, #16]
     816:	2004      	movs	r0, #4
     818:	4798      	blx	r3
     81a:	bd10      	pop	{r4, pc}
     81c:	2000017c 	.word	0x2000017c

00000820 <SERCOM5_Handler>:
     820:	b510      	push	{r4, lr}
     822:	4b02      	ldr	r3, [pc, #8]	; (82c <SERCOM5_Handler+0xc>)
     824:	695b      	ldr	r3, [r3, #20]
     826:	2005      	movs	r0, #5
     828:	4798      	blx	r3
     82a:	bd10      	pop	{r4, pc}
     82c:	2000017c 	.word	0x2000017c

00000830 <usart_init>:
     830:	b5f0      	push	{r4, r5, r6, r7, lr}
     832:	465f      	mov	r7, fp
     834:	4656      	mov	r6, sl
     836:	464d      	mov	r5, r9
     838:	4644      	mov	r4, r8
     83a:	b4f0      	push	{r4, r5, r6, r7}
     83c:	b091      	sub	sp, #68	; 0x44
     83e:	0005      	movs	r5, r0
     840:	000c      	movs	r4, r1
     842:	0016      	movs	r6, r2
     844:	6029      	str	r1, [r5, #0]
     846:	0008      	movs	r0, r1
     848:	4bb9      	ldr	r3, [pc, #740]	; (b30 <usart_init+0x300>)
     84a:	4798      	blx	r3
     84c:	6822      	ldr	r2, [r4, #0]
     84e:	2305      	movs	r3, #5
     850:	07d2      	lsls	r2, r2, #31
     852:	d500      	bpl.n	856 <usart_init+0x26>
     854:	e164      	b.n	b20 <usart_init+0x2f0>
     856:	6822      	ldr	r2, [r4, #0]
     858:	3317      	adds	r3, #23
     85a:	0792      	lsls	r2, r2, #30
     85c:	d500      	bpl.n	860 <usart_init+0x30>
     85e:	e15f      	b.n	b20 <usart_init+0x2f0>
     860:	49b4      	ldr	r1, [pc, #720]	; (b34 <usart_init+0x304>)
     862:	6a0a      	ldr	r2, [r1, #32]
     864:	1c87      	adds	r7, r0, #2
     866:	3b1b      	subs	r3, #27
     868:	40bb      	lsls	r3, r7
     86a:	4313      	orrs	r3, r2
     86c:	620b      	str	r3, [r1, #32]
     86e:	a90f      	add	r1, sp, #60	; 0x3c
     870:	272d      	movs	r7, #45	; 0x2d
     872:	5df3      	ldrb	r3, [r6, r7]
     874:	700b      	strb	r3, [r1, #0]
     876:	3014      	adds	r0, #20
     878:	b2c3      	uxtb	r3, r0
     87a:	9302      	str	r3, [sp, #8]
     87c:	0018      	movs	r0, r3
     87e:	4bae      	ldr	r3, [pc, #696]	; (b38 <usart_init+0x308>)
     880:	4798      	blx	r3
     882:	9802      	ldr	r0, [sp, #8]
     884:	4bad      	ldr	r3, [pc, #692]	; (b3c <usart_init+0x30c>)
     886:	4798      	blx	r3
     888:	5df0      	ldrb	r0, [r6, r7]
     88a:	2100      	movs	r1, #0
     88c:	4bac      	ldr	r3, [pc, #688]	; (b40 <usart_init+0x310>)
     88e:	4798      	blx	r3
     890:	7af3      	ldrb	r3, [r6, #11]
     892:	716b      	strb	r3, [r5, #5]
     894:	2324      	movs	r3, #36	; 0x24
     896:	5cf3      	ldrb	r3, [r6, r3]
     898:	71ab      	strb	r3, [r5, #6]
     89a:	2325      	movs	r3, #37	; 0x25
     89c:	5cf3      	ldrb	r3, [r6, r3]
     89e:	71eb      	strb	r3, [r5, #7]
     8a0:	7ef3      	ldrb	r3, [r6, #27]
     8a2:	722b      	strb	r3, [r5, #8]
     8a4:	7f33      	ldrb	r3, [r6, #28]
     8a6:	726b      	strb	r3, [r5, #9]
     8a8:	682b      	ldr	r3, [r5, #0]
     8aa:	4699      	mov	r9, r3
     8ac:	0018      	movs	r0, r3
     8ae:	4ba0      	ldr	r3, [pc, #640]	; (b30 <usart_init+0x300>)
     8b0:	4798      	blx	r3
     8b2:	3014      	adds	r0, #20
     8b4:	2200      	movs	r2, #0
     8b6:	230e      	movs	r3, #14
     8b8:	a906      	add	r1, sp, #24
     8ba:	468c      	mov	ip, r1
     8bc:	4463      	add	r3, ip
     8be:	801a      	strh	r2, [r3, #0]
     8c0:	8a32      	ldrh	r2, [r6, #16]
     8c2:	9202      	str	r2, [sp, #8]
     8c4:	2380      	movs	r3, #128	; 0x80
     8c6:	01db      	lsls	r3, r3, #7
     8c8:	429a      	cmp	r2, r3
     8ca:	d01a      	beq.n	902 <usart_init+0xd2>
     8cc:	d804      	bhi.n	8d8 <usart_init+0xa8>
     8ce:	2380      	movs	r3, #128	; 0x80
     8d0:	019b      	lsls	r3, r3, #6
     8d2:	429a      	cmp	r2, r3
     8d4:	d00b      	beq.n	8ee <usart_init+0xbe>
     8d6:	e104      	b.n	ae2 <usart_init+0x2b2>
     8d8:	23c0      	movs	r3, #192	; 0xc0
     8da:	01db      	lsls	r3, r3, #7
     8dc:	9a02      	ldr	r2, [sp, #8]
     8de:	429a      	cmp	r2, r3
     8e0:	d00a      	beq.n	8f8 <usart_init+0xc8>
     8e2:	2380      	movs	r3, #128	; 0x80
     8e4:	021b      	lsls	r3, r3, #8
     8e6:	429a      	cmp	r2, r3
     8e8:	d100      	bne.n	8ec <usart_init+0xbc>
     8ea:	e0ff      	b.n	aec <usart_init+0x2bc>
     8ec:	e0f9      	b.n	ae2 <usart_init+0x2b2>
     8ee:	2310      	movs	r3, #16
     8f0:	9306      	str	r3, [sp, #24]
     8f2:	3b0f      	subs	r3, #15
     8f4:	9307      	str	r3, [sp, #28]
     8f6:	e0fd      	b.n	af4 <usart_init+0x2c4>
     8f8:	2308      	movs	r3, #8
     8fa:	9306      	str	r3, [sp, #24]
     8fc:	3b07      	subs	r3, #7
     8fe:	9307      	str	r3, [sp, #28]
     900:	e0f8      	b.n	af4 <usart_init+0x2c4>
     902:	6833      	ldr	r3, [r6, #0]
     904:	9304      	str	r3, [sp, #16]
     906:	68f3      	ldr	r3, [r6, #12]
     908:	469b      	mov	fp, r3
     90a:	6973      	ldr	r3, [r6, #20]
     90c:	9303      	str	r3, [sp, #12]
     90e:	7e33      	ldrb	r3, [r6, #24]
     910:	4698      	mov	r8, r3
     912:	2326      	movs	r3, #38	; 0x26
     914:	5cf3      	ldrb	r3, [r6, r3]
     916:	9305      	str	r3, [sp, #20]
     918:	6873      	ldr	r3, [r6, #4]
     91a:	469a      	mov	sl, r3
     91c:	2b00      	cmp	r3, #0
     91e:	d015      	beq.n	94c <usart_init+0x11c>
     920:	2380      	movs	r3, #128	; 0x80
     922:	055b      	lsls	r3, r3, #21
     924:	459a      	cmp	sl, r3
     926:	d136      	bne.n	996 <usart_init+0x166>
     928:	2327      	movs	r3, #39	; 0x27
     92a:	5cf3      	ldrb	r3, [r6, r3]
     92c:	2b00      	cmp	r3, #0
     92e:	d136      	bne.n	99e <usart_init+0x16e>
     930:	6a33      	ldr	r3, [r6, #32]
     932:	001f      	movs	r7, r3
     934:	b2c0      	uxtb	r0, r0
     936:	4b83      	ldr	r3, [pc, #524]	; (b44 <usart_init+0x314>)
     938:	4798      	blx	r3
     93a:	0001      	movs	r1, r0
     93c:	220e      	movs	r2, #14
     93e:	ab06      	add	r3, sp, #24
     940:	469c      	mov	ip, r3
     942:	4462      	add	r2, ip
     944:	0038      	movs	r0, r7
     946:	4b80      	ldr	r3, [pc, #512]	; (b48 <usart_init+0x318>)
     948:	4798      	blx	r3
     94a:	e025      	b.n	998 <usart_init+0x168>
     94c:	2308      	movs	r3, #8
     94e:	9306      	str	r3, [sp, #24]
     950:	2300      	movs	r3, #0
     952:	9307      	str	r3, [sp, #28]
     954:	2327      	movs	r3, #39	; 0x27
     956:	5cf3      	ldrb	r3, [r6, r3]
     958:	2b00      	cmp	r3, #0
     95a:	d00b      	beq.n	974 <usart_init+0x144>
     95c:	9b06      	ldr	r3, [sp, #24]
     95e:	9300      	str	r3, [sp, #0]
     960:	9b07      	ldr	r3, [sp, #28]
     962:	220e      	movs	r2, #14
     964:	a906      	add	r1, sp, #24
     966:	468c      	mov	ip, r1
     968:	4462      	add	r2, ip
     96a:	6ab1      	ldr	r1, [r6, #40]	; 0x28
     96c:	6a30      	ldr	r0, [r6, #32]
     96e:	4f77      	ldr	r7, [pc, #476]	; (b4c <usart_init+0x31c>)
     970:	47b8      	blx	r7
     972:	e011      	b.n	998 <usart_init+0x168>
     974:	6a33      	ldr	r3, [r6, #32]
     976:	001f      	movs	r7, r3
     978:	b2c0      	uxtb	r0, r0
     97a:	4b72      	ldr	r3, [pc, #456]	; (b44 <usart_init+0x314>)
     97c:	4798      	blx	r3
     97e:	0001      	movs	r1, r0
     980:	9b06      	ldr	r3, [sp, #24]
     982:	9300      	str	r3, [sp, #0]
     984:	9b07      	ldr	r3, [sp, #28]
     986:	220e      	movs	r2, #14
     988:	a806      	add	r0, sp, #24
     98a:	4684      	mov	ip, r0
     98c:	4462      	add	r2, ip
     98e:	0038      	movs	r0, r7
     990:	4f6e      	ldr	r7, [pc, #440]	; (b4c <usart_init+0x31c>)
     992:	47b8      	blx	r7
     994:	e000      	b.n	998 <usart_init+0x168>
     996:	2000      	movs	r0, #0
     998:	1e03      	subs	r3, r0, #0
     99a:	d000      	beq.n	99e <usart_init+0x16e>
     99c:	e0c0      	b.n	b20 <usart_init+0x2f0>
     99e:	7e73      	ldrb	r3, [r6, #25]
     9a0:	2b00      	cmp	r3, #0
     9a2:	d002      	beq.n	9aa <usart_init+0x17a>
     9a4:	7eb3      	ldrb	r3, [r6, #26]
     9a6:	464a      	mov	r2, r9
     9a8:	7393      	strb	r3, [r2, #14]
     9aa:	682a      	ldr	r2, [r5, #0]
     9ac:	9f02      	ldr	r7, [sp, #8]
     9ae:	69d3      	ldr	r3, [r2, #28]
     9b0:	2b00      	cmp	r3, #0
     9b2:	d1fc      	bne.n	9ae <usart_init+0x17e>
     9b4:	330e      	adds	r3, #14
     9b6:	aa06      	add	r2, sp, #24
     9b8:	4694      	mov	ip, r2
     9ba:	4463      	add	r3, ip
     9bc:	881b      	ldrh	r3, [r3, #0]
     9be:	464a      	mov	r2, r9
     9c0:	8193      	strh	r3, [r2, #12]
     9c2:	9b04      	ldr	r3, [sp, #16]
     9c4:	465a      	mov	r2, fp
     9c6:	4313      	orrs	r3, r2
     9c8:	9a03      	ldr	r2, [sp, #12]
     9ca:	4313      	orrs	r3, r2
     9cc:	4652      	mov	r2, sl
     9ce:	4313      	orrs	r3, r2
     9d0:	433b      	orrs	r3, r7
     9d2:	4642      	mov	r2, r8
     9d4:	0212      	lsls	r2, r2, #8
     9d6:	4313      	orrs	r3, r2
     9d8:	9a05      	ldr	r2, [sp, #20]
     9da:	0757      	lsls	r7, r2, #29
     9dc:	431f      	orrs	r7, r3
     9de:	2327      	movs	r3, #39	; 0x27
     9e0:	5cf3      	ldrb	r3, [r6, r3]
     9e2:	2b00      	cmp	r3, #0
     9e4:	d101      	bne.n	9ea <usart_init+0x1ba>
     9e6:	3304      	adds	r3, #4
     9e8:	431f      	orrs	r7, r3
     9ea:	7e71      	ldrb	r1, [r6, #25]
     9ec:	0289      	lsls	r1, r1, #10
     9ee:	7f33      	ldrb	r3, [r6, #28]
     9f0:	025b      	lsls	r3, r3, #9
     9f2:	4319      	orrs	r1, r3
     9f4:	7f73      	ldrb	r3, [r6, #29]
     9f6:	021b      	lsls	r3, r3, #8
     9f8:	4319      	orrs	r1, r3
     9fa:	2324      	movs	r3, #36	; 0x24
     9fc:	5cf3      	ldrb	r3, [r6, r3]
     9fe:	045b      	lsls	r3, r3, #17
     a00:	4319      	orrs	r1, r3
     a02:	2325      	movs	r3, #37	; 0x25
     a04:	5cf2      	ldrb	r2, [r6, r3]
     a06:	0412      	lsls	r2, r2, #16
     a08:	4311      	orrs	r1, r2
     a0a:	7af3      	ldrb	r3, [r6, #11]
     a0c:	4319      	orrs	r1, r3
     a0e:	8933      	ldrh	r3, [r6, #8]
     a10:	2bff      	cmp	r3, #255	; 0xff
     a12:	d004      	beq.n	a1e <usart_init+0x1ee>
     a14:	2280      	movs	r2, #128	; 0x80
     a16:	0452      	lsls	r2, r2, #17
     a18:	4317      	orrs	r7, r2
     a1a:	4319      	orrs	r1, r3
     a1c:	e005      	b.n	a2a <usart_init+0x1fa>
     a1e:	7ef3      	ldrb	r3, [r6, #27]
     a20:	2b00      	cmp	r3, #0
     a22:	d002      	beq.n	a2a <usart_init+0x1fa>
     a24:	2380      	movs	r3, #128	; 0x80
     a26:	04db      	lsls	r3, r3, #19
     a28:	431f      	orrs	r7, r3
     a2a:	232c      	movs	r3, #44	; 0x2c
     a2c:	5cf3      	ldrb	r3, [r6, r3]
     a2e:	2b00      	cmp	r3, #0
     a30:	d103      	bne.n	a3a <usart_init+0x20a>
     a32:	4b47      	ldr	r3, [pc, #284]	; (b50 <usart_init+0x320>)
     a34:	789b      	ldrb	r3, [r3, #2]
     a36:	079b      	lsls	r3, r3, #30
     a38:	d501      	bpl.n	a3e <usart_init+0x20e>
     a3a:	2380      	movs	r3, #128	; 0x80
     a3c:	431f      	orrs	r7, r3
     a3e:	682a      	ldr	r2, [r5, #0]
     a40:	69d3      	ldr	r3, [r2, #28]
     a42:	2b00      	cmp	r3, #0
     a44:	d1fc      	bne.n	a40 <usart_init+0x210>
     a46:	464b      	mov	r3, r9
     a48:	6059      	str	r1, [r3, #4]
     a4a:	682a      	ldr	r2, [r5, #0]
     a4c:	69d3      	ldr	r3, [r2, #28]
     a4e:	2b00      	cmp	r3, #0
     a50:	d1fc      	bne.n	a4c <usart_init+0x21c>
     a52:	464b      	mov	r3, r9
     a54:	601f      	str	r7, [r3, #0]
     a56:	ab0e      	add	r3, sp, #56	; 0x38
     a58:	2280      	movs	r2, #128	; 0x80
     a5a:	701a      	strb	r2, [r3, #0]
     a5c:	2200      	movs	r2, #0
     a5e:	705a      	strb	r2, [r3, #1]
     a60:	70da      	strb	r2, [r3, #3]
     a62:	709a      	strb	r2, [r3, #2]
     a64:	6b33      	ldr	r3, [r6, #48]	; 0x30
     a66:	930a      	str	r3, [sp, #40]	; 0x28
     a68:	6b73      	ldr	r3, [r6, #52]	; 0x34
     a6a:	930b      	str	r3, [sp, #44]	; 0x2c
     a6c:	6bb3      	ldr	r3, [r6, #56]	; 0x38
     a6e:	930c      	str	r3, [sp, #48]	; 0x30
     a70:	6bf3      	ldr	r3, [r6, #60]	; 0x3c
     a72:	9302      	str	r3, [sp, #8]
     a74:	930d      	str	r3, [sp, #52]	; 0x34
     a76:	2700      	movs	r7, #0
     a78:	ae0e      	add	r6, sp, #56	; 0x38
     a7a:	b2f9      	uxtb	r1, r7
     a7c:	00bb      	lsls	r3, r7, #2
     a7e:	aa0a      	add	r2, sp, #40	; 0x28
     a80:	5898      	ldr	r0, [r3, r2]
     a82:	2800      	cmp	r0, #0
     a84:	d102      	bne.n	a8c <usart_init+0x25c>
     a86:	0020      	movs	r0, r4
     a88:	4b32      	ldr	r3, [pc, #200]	; (b54 <usart_init+0x324>)
     a8a:	4798      	blx	r3
     a8c:	1c43      	adds	r3, r0, #1
     a8e:	d005      	beq.n	a9c <usart_init+0x26c>
     a90:	7030      	strb	r0, [r6, #0]
     a92:	0c00      	lsrs	r0, r0, #16
     a94:	b2c0      	uxtb	r0, r0
     a96:	0031      	movs	r1, r6
     a98:	4b2f      	ldr	r3, [pc, #188]	; (b58 <usart_init+0x328>)
     a9a:	4798      	blx	r3
     a9c:	3701      	adds	r7, #1
     a9e:	2f04      	cmp	r7, #4
     aa0:	d1eb      	bne.n	a7a <usart_init+0x24a>
     aa2:	2300      	movs	r3, #0
     aa4:	60eb      	str	r3, [r5, #12]
     aa6:	612b      	str	r3, [r5, #16]
     aa8:	616b      	str	r3, [r5, #20]
     aaa:	61ab      	str	r3, [r5, #24]
     aac:	61eb      	str	r3, [r5, #28]
     aae:	622b      	str	r3, [r5, #32]
     ab0:	62ab      	str	r3, [r5, #40]	; 0x28
     ab2:	626b      	str	r3, [r5, #36]	; 0x24
     ab4:	2200      	movs	r2, #0
     ab6:	85eb      	strh	r3, [r5, #46]	; 0x2e
     ab8:	85ab      	strh	r3, [r5, #44]	; 0x2c
     aba:	3330      	adds	r3, #48	; 0x30
     abc:	54ea      	strb	r2, [r5, r3]
     abe:	3301      	adds	r3, #1
     ac0:	54ea      	strb	r2, [r5, r3]
     ac2:	3301      	adds	r3, #1
     ac4:	54ea      	strb	r2, [r5, r3]
     ac6:	3301      	adds	r3, #1
     ac8:	54ea      	strb	r2, [r5, r3]
     aca:	6828      	ldr	r0, [r5, #0]
     acc:	4b18      	ldr	r3, [pc, #96]	; (b30 <usart_init+0x300>)
     ace:	4798      	blx	r3
     ad0:	0004      	movs	r4, r0
     ad2:	4922      	ldr	r1, [pc, #136]	; (b5c <usart_init+0x32c>)
     ad4:	4b22      	ldr	r3, [pc, #136]	; (b60 <usart_init+0x330>)
     ad6:	4798      	blx	r3
     ad8:	00a4      	lsls	r4, r4, #2
     ada:	4b22      	ldr	r3, [pc, #136]	; (b64 <usart_init+0x334>)
     adc:	50e5      	str	r5, [r4, r3]
     ade:	2300      	movs	r3, #0
     ae0:	e01e      	b.n	b20 <usart_init+0x2f0>
     ae2:	2310      	movs	r3, #16
     ae4:	9306      	str	r3, [sp, #24]
     ae6:	2300      	movs	r3, #0
     ae8:	9307      	str	r3, [sp, #28]
     aea:	e003      	b.n	af4 <usart_init+0x2c4>
     aec:	2303      	movs	r3, #3
     aee:	9306      	str	r3, [sp, #24]
     af0:	2300      	movs	r3, #0
     af2:	9307      	str	r3, [sp, #28]
     af4:	6833      	ldr	r3, [r6, #0]
     af6:	9304      	str	r3, [sp, #16]
     af8:	68f3      	ldr	r3, [r6, #12]
     afa:	469b      	mov	fp, r3
     afc:	6973      	ldr	r3, [r6, #20]
     afe:	9303      	str	r3, [sp, #12]
     b00:	7e33      	ldrb	r3, [r6, #24]
     b02:	4698      	mov	r8, r3
     b04:	2326      	movs	r3, #38	; 0x26
     b06:	5cf3      	ldrb	r3, [r6, r3]
     b08:	9305      	str	r3, [sp, #20]
     b0a:	6873      	ldr	r3, [r6, #4]
     b0c:	469a      	mov	sl, r3
     b0e:	2b00      	cmp	r3, #0
     b10:	d100      	bne.n	b14 <usart_init+0x2e4>
     b12:	e71f      	b.n	954 <usart_init+0x124>
     b14:	2380      	movs	r3, #128	; 0x80
     b16:	055b      	lsls	r3, r3, #21
     b18:	459a      	cmp	sl, r3
     b1a:	d100      	bne.n	b1e <usart_init+0x2ee>
     b1c:	e704      	b.n	928 <usart_init+0xf8>
     b1e:	e73e      	b.n	99e <usart_init+0x16e>
     b20:	0018      	movs	r0, r3
     b22:	b011      	add	sp, #68	; 0x44
     b24:	bc3c      	pop	{r2, r3, r4, r5}
     b26:	4690      	mov	r8, r2
     b28:	4699      	mov	r9, r3
     b2a:	46a2      	mov	sl, r4
     b2c:	46ab      	mov	fp, r5
     b2e:	bdf0      	pop	{r4, r5, r6, r7, pc}
     b30:	00000729 	.word	0x00000729
     b34:	40000400 	.word	0x40000400
     b38:	0000165d 	.word	0x0000165d
     b3c:	000015d1 	.word	0x000015d1
     b40:	00000555 	.word	0x00000555
     b44:	00001679 	.word	0x00001679
     b48:	00000365 	.word	0x00000365
     b4c:	0000038d 	.word	0x0000038d
     b50:	41002000 	.word	0x41002000
     b54:	000005a1 	.word	0x000005a1
     b58:	00001755 	.word	0x00001755
     b5c:	00000e45 	.word	0x00000e45
     b60:	00000769 	.word	0x00000769
     b64:	20000fd4 	.word	0x20000fd4

00000b68 <usart_write_wait>:
     b68:	79c2      	ldrb	r2, [r0, #7]
     b6a:	231c      	movs	r3, #28
     b6c:	2a00      	cmp	r2, #0
     b6e:	d00e      	beq.n	b8e <usart_write_wait+0x26>
     b70:	8dc2      	ldrh	r2, [r0, #46]	; 0x2e
     b72:	b292      	uxth	r2, r2
     b74:	3b17      	subs	r3, #23
     b76:	2a00      	cmp	r2, #0
     b78:	d109      	bne.n	b8e <usart_write_wait+0x26>
     b7a:	6803      	ldr	r3, [r0, #0]
     b7c:	69da      	ldr	r2, [r3, #28]
     b7e:	2a00      	cmp	r2, #0
     b80:	d1fc      	bne.n	b7c <usart_write_wait+0x14>
     b82:	8519      	strh	r1, [r3, #40]	; 0x28
     b84:	2102      	movs	r1, #2
     b86:	7e1a      	ldrb	r2, [r3, #24]
     b88:	420a      	tst	r2, r1
     b8a:	d0fc      	beq.n	b86 <usart_write_wait+0x1e>
     b8c:	2300      	movs	r3, #0
     b8e:	0018      	movs	r0, r3
     b90:	4770      	bx	lr
     b92:	46c0      	nop			; (mov r8, r8)

00000b94 <usart_read_wait>:
     b94:	7982      	ldrb	r2, [r0, #6]
     b96:	231c      	movs	r3, #28
     b98:	2a00      	cmp	r2, #0
     b9a:	d030      	beq.n	bfe <usart_read_wait+0x6a>
     b9c:	8d82      	ldrh	r2, [r0, #44]	; 0x2c
     b9e:	b292      	uxth	r2, r2
     ba0:	3b17      	subs	r3, #23
     ba2:	2a00      	cmp	r2, #0
     ba4:	d12b      	bne.n	bfe <usart_read_wait+0x6a>
     ba6:	6802      	ldr	r2, [r0, #0]
     ba8:	7e10      	ldrb	r0, [r2, #24]
     baa:	0740      	lsls	r0, r0, #29
     bac:	d527      	bpl.n	bfe <usart_read_wait+0x6a>
     bae:	69d3      	ldr	r3, [r2, #28]
     bb0:	2b00      	cmp	r3, #0
     bb2:	d1fc      	bne.n	bae <usart_read_wait+0x1a>
     bb4:	8b53      	ldrh	r3, [r2, #26]
     bb6:	b2db      	uxtb	r3, r3
     bb8:	0698      	lsls	r0, r3, #26
     bba:	d01d      	beq.n	bf8 <usart_read_wait+0x64>
     bbc:	0798      	lsls	r0, r3, #30
     bbe:	d503      	bpl.n	bc8 <usart_read_wait+0x34>
     bc0:	2302      	movs	r3, #2
     bc2:	8353      	strh	r3, [r2, #26]
     bc4:	3318      	adds	r3, #24
     bc6:	e01a      	b.n	bfe <usart_read_wait+0x6a>
     bc8:	0758      	lsls	r0, r3, #29
     bca:	d503      	bpl.n	bd4 <usart_read_wait+0x40>
     bcc:	2304      	movs	r3, #4
     bce:	8353      	strh	r3, [r2, #26]
     bd0:	331a      	adds	r3, #26
     bd2:	e014      	b.n	bfe <usart_read_wait+0x6a>
     bd4:	07d8      	lsls	r0, r3, #31
     bd6:	d503      	bpl.n	be0 <usart_read_wait+0x4c>
     bd8:	2301      	movs	r3, #1
     bda:	8353      	strh	r3, [r2, #26]
     bdc:	3312      	adds	r3, #18
     bde:	e00e      	b.n	bfe <usart_read_wait+0x6a>
     be0:	06d8      	lsls	r0, r3, #27
     be2:	d503      	bpl.n	bec <usart_read_wait+0x58>
     be4:	2310      	movs	r3, #16
     be6:	8353      	strh	r3, [r2, #26]
     be8:	3332      	adds	r3, #50	; 0x32
     bea:	e008      	b.n	bfe <usart_read_wait+0x6a>
     bec:	069b      	lsls	r3, r3, #26
     bee:	d503      	bpl.n	bf8 <usart_read_wait+0x64>
     bf0:	2320      	movs	r3, #32
     bf2:	8353      	strh	r3, [r2, #26]
     bf4:	3321      	adds	r3, #33	; 0x21
     bf6:	e002      	b.n	bfe <usart_read_wait+0x6a>
     bf8:	8d13      	ldrh	r3, [r2, #40]	; 0x28
     bfa:	800b      	strh	r3, [r1, #0]
     bfc:	2300      	movs	r3, #0
     bfe:	0018      	movs	r0, r3
     c00:	4770      	bx	lr
     c02:	46c0      	nop			; (mov r8, r8)

00000c04 <usart_write_buffer_wait>:
     c04:	b5f0      	push	{r4, r5, r6, r7, lr}
     c06:	464f      	mov	r7, r9
     c08:	b480      	push	{r7}
     c0a:	b082      	sub	sp, #8
     c0c:	0004      	movs	r4, r0
     c0e:	9101      	str	r1, [sp, #4]
     c10:	2017      	movs	r0, #23
     c12:	2a00      	cmp	r2, #0
     c14:	d049      	beq.n	caa <usart_write_buffer_wait+0xa6>
     c16:	79e3      	ldrb	r3, [r4, #7]
     c18:	3005      	adds	r0, #5
     c1a:	2b00      	cmp	r3, #0
     c1c:	d045      	beq.n	caa <usart_write_buffer_wait+0xa6>
     c1e:	6827      	ldr	r7, [r4, #0]
     c20:	69fb      	ldr	r3, [r7, #28]
     c22:	2b00      	cmp	r3, #0
     c24:	d1fc      	bne.n	c20 <usart_write_buffer_wait+0x1c>
     c26:	4691      	mov	r9, r2
     c28:	2500      	movs	r5, #0
     c2a:	2601      	movs	r6, #1
     c2c:	e020      	b.n	c70 <usart_write_buffer_wait+0x6c>
     c2e:	7e3a      	ldrb	r2, [r7, #24]
     c30:	4232      	tst	r2, r6
     c32:	d104      	bne.n	c3e <usart_write_buffer_wait+0x3a>
     c34:	2b01      	cmp	r3, #1
     c36:	d02a      	beq.n	c8e <usart_write_buffer_wait+0x8a>
     c38:	3b01      	subs	r3, #1
     c3a:	2b00      	cmp	r3, #0
     c3c:	d1f7      	bne.n	c2e <usart_write_buffer_wait+0x2a>
     c3e:	1c6a      	adds	r2, r5, #1
     c40:	b292      	uxth	r2, r2
     c42:	9b01      	ldr	r3, [sp, #4]
     c44:	5d5b      	ldrb	r3, [r3, r5]
     c46:	7961      	ldrb	r1, [r4, #5]
     c48:	2901      	cmp	r1, #1
     c4a:	d002      	beq.n	c52 <usart_write_buffer_wait+0x4e>
     c4c:	b299      	uxth	r1, r3
     c4e:	0015      	movs	r5, r2
     c50:	e005      	b.n	c5e <usart_write_buffer_wait+0x5a>
     c52:	1ca9      	adds	r1, r5, #2
     c54:	b28d      	uxth	r5, r1
     c56:	9901      	ldr	r1, [sp, #4]
     c58:	5c89      	ldrb	r1, [r1, r2]
     c5a:	0209      	lsls	r1, r1, #8
     c5c:	4319      	orrs	r1, r3
     c5e:	0020      	movs	r0, r4
     c60:	4b14      	ldr	r3, [pc, #80]	; (cb4 <usart_write_buffer_wait+0xb0>)
     c62:	4798      	blx	r3
     c64:	464a      	mov	r2, r9
     c66:	3a01      	subs	r2, #1
     c68:	b293      	uxth	r3, r2
     c6a:	4699      	mov	r9, r3
     c6c:	2b00      	cmp	r3, #0
     c6e:	d016      	beq.n	c9e <usart_write_buffer_wait+0x9a>
     c70:	7e3b      	ldrb	r3, [r7, #24]
     c72:	4233      	tst	r3, r6
     c74:	d1e3      	bne.n	c3e <usart_write_buffer_wait+0x3a>
     c76:	4b10      	ldr	r3, [pc, #64]	; (cb8 <usart_write_buffer_wait+0xb4>)
     c78:	e7d9      	b.n	c2e <usart_write_buffer_wait+0x2a>
     c7a:	7e3a      	ldrb	r2, [r7, #24]
     c7c:	420a      	tst	r2, r1
     c7e:	d108      	bne.n	c92 <usart_write_buffer_wait+0x8e>
     c80:	2b01      	cmp	r3, #1
     c82:	d008      	beq.n	c96 <usart_write_buffer_wait+0x92>
     c84:	3b01      	subs	r3, #1
     c86:	2b00      	cmp	r3, #0
     c88:	d1f7      	bne.n	c7a <usart_write_buffer_wait+0x76>
     c8a:	2000      	movs	r0, #0
     c8c:	e00d      	b.n	caa <usart_write_buffer_wait+0xa6>
     c8e:	2012      	movs	r0, #18
     c90:	e00b      	b.n	caa <usart_write_buffer_wait+0xa6>
     c92:	2000      	movs	r0, #0
     c94:	e009      	b.n	caa <usart_write_buffer_wait+0xa6>
     c96:	2012      	movs	r0, #18
     c98:	e007      	b.n	caa <usart_write_buffer_wait+0xa6>
     c9a:	2000      	movs	r0, #0
     c9c:	e005      	b.n	caa <usart_write_buffer_wait+0xa6>
     c9e:	7e3b      	ldrb	r3, [r7, #24]
     ca0:	079b      	lsls	r3, r3, #30
     ca2:	d4fa      	bmi.n	c9a <usart_write_buffer_wait+0x96>
     ca4:	4b04      	ldr	r3, [pc, #16]	; (cb8 <usart_write_buffer_wait+0xb4>)
     ca6:	2102      	movs	r1, #2
     ca8:	e7e7      	b.n	c7a <usart_write_buffer_wait+0x76>
     caa:	b002      	add	sp, #8
     cac:	bc04      	pop	{r2}
     cae:	4691      	mov	r9, r2
     cb0:	bdf0      	pop	{r4, r5, r6, r7, pc}
     cb2:	46c0      	nop			; (mov r8, r8)
     cb4:	00000b69 	.word	0x00000b69
     cb8:	0000ffff 	.word	0x0000ffff

00000cbc <usart_read_buffer_wait>:
     cbc:	b5f0      	push	{r4, r5, r6, r7, lr}
     cbe:	4657      	mov	r7, sl
     cc0:	b480      	push	{r7}
     cc2:	b084      	sub	sp, #16
     cc4:	0004      	movs	r4, r0
     cc6:	9101      	str	r1, [sp, #4]
     cc8:	2017      	movs	r0, #23
     cca:	2a00      	cmp	r2, #0
     ccc:	d038      	beq.n	d40 <usart_read_buffer_wait+0x84>
     cce:	79a3      	ldrb	r3, [r4, #6]
     cd0:	3005      	adds	r0, #5
     cd2:	2b00      	cmp	r3, #0
     cd4:	d034      	beq.n	d40 <usart_read_buffer_wait+0x84>
     cd6:	6826      	ldr	r6, [r4, #0]
     cd8:	4692      	mov	sl, r2
     cda:	2500      	movs	r5, #0
     cdc:	2704      	movs	r7, #4
     cde:	e02a      	b.n	d36 <usart_read_buffer_wait+0x7a>
     ce0:	7e32      	ldrb	r2, [r6, #24]
     ce2:	423a      	tst	r2, r7
     ce4:	d104      	bne.n	cf0 <usart_read_buffer_wait+0x34>
     ce6:	2b01      	cmp	r3, #1
     ce8:	d023      	beq.n	d32 <usart_read_buffer_wait+0x76>
     cea:	3b01      	subs	r3, #1
     cec:	2b00      	cmp	r3, #0
     cee:	d1f7      	bne.n	ce0 <usart_read_buffer_wait+0x24>
     cf0:	2300      	movs	r3, #0
     cf2:	aa02      	add	r2, sp, #8
     cf4:	80d3      	strh	r3, [r2, #6]
     cf6:	1d91      	adds	r1, r2, #6
     cf8:	0020      	movs	r0, r4
     cfa:	4b13      	ldr	r3, [pc, #76]	; (d48 <usart_read_buffer_wait+0x8c>)
     cfc:	4798      	blx	r3
     cfe:	2800      	cmp	r0, #0
     d00:	d11e      	bne.n	d40 <usart_read_buffer_wait+0x84>
     d02:	1c6b      	adds	r3, r5, #1
     d04:	b29b      	uxth	r3, r3
     d06:	aa02      	add	r2, sp, #8
     d08:	88d2      	ldrh	r2, [r2, #6]
     d0a:	9901      	ldr	r1, [sp, #4]
     d0c:	554a      	strb	r2, [r1, r5]
     d0e:	7961      	ldrb	r1, [r4, #5]
     d10:	2901      	cmp	r1, #1
     d12:	d105      	bne.n	d20 <usart_read_buffer_wait+0x64>
     d14:	1ca9      	adds	r1, r5, #2
     d16:	b28d      	uxth	r5, r1
     d18:	0a12      	lsrs	r2, r2, #8
     d1a:	9901      	ldr	r1, [sp, #4]
     d1c:	54ca      	strb	r2, [r1, r3]
     d1e:	e000      	b.n	d22 <usart_read_buffer_wait+0x66>
     d20:	001d      	movs	r5, r3
     d22:	4652      	mov	r2, sl
     d24:	3a01      	subs	r2, #1
     d26:	b293      	uxth	r3, r2
     d28:	469a      	mov	sl, r3
     d2a:	2b00      	cmp	r3, #0
     d2c:	d103      	bne.n	d36 <usart_read_buffer_wait+0x7a>
     d2e:	2000      	movs	r0, #0
     d30:	e006      	b.n	d40 <usart_read_buffer_wait+0x84>
     d32:	2012      	movs	r0, #18
     d34:	e004      	b.n	d40 <usart_read_buffer_wait+0x84>
     d36:	7e33      	ldrb	r3, [r6, #24]
     d38:	423b      	tst	r3, r7
     d3a:	d1d9      	bne.n	cf0 <usart_read_buffer_wait+0x34>
     d3c:	4b03      	ldr	r3, [pc, #12]	; (d4c <usart_read_buffer_wait+0x90>)
     d3e:	e7cf      	b.n	ce0 <usart_read_buffer_wait+0x24>
     d40:	b004      	add	sp, #16
     d42:	bc04      	pop	{r2}
     d44:	4692      	mov	sl, r2
     d46:	bdf0      	pop	{r4, r5, r6, r7, pc}
     d48:	00000b95 	.word	0x00000b95
     d4c:	0000ffff 	.word	0x0000ffff

00000d50 <_usart_write_buffer>:
     d50:	b5f8      	push	{r3, r4, r5, r6, r7, lr}
     d52:	0006      	movs	r6, r0
     d54:	000c      	movs	r4, r1
     d56:	0015      	movs	r5, r2
     d58:	6807      	ldr	r7, [r0, #0]
     d5a:	4b0a      	ldr	r3, [pc, #40]	; (d84 <_usart_write_buffer+0x34>)
     d5c:	4798      	blx	r3
     d5e:	8df3      	ldrh	r3, [r6, #46]	; 0x2e
     d60:	b29b      	uxth	r3, r3
     d62:	2b00      	cmp	r3, #0
     d64:	d003      	beq.n	d6e <_usart_write_buffer+0x1e>
     d66:	4b08      	ldr	r3, [pc, #32]	; (d88 <_usart_write_buffer+0x38>)
     d68:	4798      	blx	r3
     d6a:	2005      	movs	r0, #5
     d6c:	e009      	b.n	d82 <_usart_write_buffer+0x32>
     d6e:	85f5      	strh	r5, [r6, #46]	; 0x2e
     d70:	4b05      	ldr	r3, [pc, #20]	; (d88 <_usart_write_buffer+0x38>)
     d72:	4798      	blx	r3
     d74:	62b4      	str	r4, [r6, #40]	; 0x28
     d76:	2205      	movs	r2, #5
     d78:	2333      	movs	r3, #51	; 0x33
     d7a:	54f2      	strb	r2, [r6, r3]
     d7c:	3b32      	subs	r3, #50	; 0x32
     d7e:	75bb      	strb	r3, [r7, #22]
     d80:	2000      	movs	r0, #0
     d82:	bdf8      	pop	{r3, r4, r5, r6, r7, pc}
     d84:	000001ad 	.word	0x000001ad
     d88:	000001ed 	.word	0x000001ed

00000d8c <_usart_read_buffer>:
     d8c:	b5f8      	push	{r3, r4, r5, r6, r7, lr}
     d8e:	0004      	movs	r4, r0
     d90:	000d      	movs	r5, r1
     d92:	0016      	movs	r6, r2
     d94:	6807      	ldr	r7, [r0, #0]
     d96:	4b0f      	ldr	r3, [pc, #60]	; (dd4 <_usart_read_buffer+0x48>)
     d98:	4798      	blx	r3
     d9a:	8da3      	ldrh	r3, [r4, #44]	; 0x2c
     d9c:	b29b      	uxth	r3, r3
     d9e:	2b00      	cmp	r3, #0
     da0:	d003      	beq.n	daa <_usart_read_buffer+0x1e>
     da2:	4b0d      	ldr	r3, [pc, #52]	; (dd8 <_usart_read_buffer+0x4c>)
     da4:	4798      	blx	r3
     da6:	2005      	movs	r0, #5
     da8:	e013      	b.n	dd2 <_usart_read_buffer+0x46>
     daa:	85a6      	strh	r6, [r4, #44]	; 0x2c
     dac:	4b0a      	ldr	r3, [pc, #40]	; (dd8 <_usart_read_buffer+0x4c>)
     dae:	4798      	blx	r3
     db0:	6265      	str	r5, [r4, #36]	; 0x24
     db2:	2205      	movs	r2, #5
     db4:	2332      	movs	r3, #50	; 0x32
     db6:	54e2      	strb	r2, [r4, r3]
     db8:	3b2e      	subs	r3, #46	; 0x2e
     dba:	75bb      	strb	r3, [r7, #22]
     dbc:	7a23      	ldrb	r3, [r4, #8]
     dbe:	2b00      	cmp	r3, #0
     dc0:	d001      	beq.n	dc6 <_usart_read_buffer+0x3a>
     dc2:	2320      	movs	r3, #32
     dc4:	75bb      	strb	r3, [r7, #22]
     dc6:	7a63      	ldrb	r3, [r4, #9]
     dc8:	2000      	movs	r0, #0
     dca:	2b00      	cmp	r3, #0
     dcc:	d001      	beq.n	dd2 <_usart_read_buffer+0x46>
     dce:	2308      	movs	r3, #8
     dd0:	75bb      	strb	r3, [r7, #22]
     dd2:	bdf8      	pop	{r3, r4, r5, r6, r7, pc}
     dd4:	000001ad 	.word	0x000001ad
     dd8:	000001ed 	.word	0x000001ed

00000ddc <usart_register_callback>:
     ddc:	1c93      	adds	r3, r2, #2
     dde:	009b      	lsls	r3, r3, #2
     de0:	18c3      	adds	r3, r0, r3
     de2:	6059      	str	r1, [r3, #4]
     de4:	2130      	movs	r1, #48	; 0x30
     de6:	2301      	movs	r3, #1
     de8:	4093      	lsls	r3, r2
     dea:	5c42      	ldrb	r2, [r0, r1]
     dec:	4313      	orrs	r3, r2
     dee:	5443      	strb	r3, [r0, r1]
     df0:	4770      	bx	lr
     df2:	46c0      	nop			; (mov r8, r8)

00000df4 <usart_read_job>:
     df4:	b510      	push	{r4, lr}
     df6:	2201      	movs	r2, #1
     df8:	4b01      	ldr	r3, [pc, #4]	; (e00 <usart_read_job+0xc>)
     dfa:	4798      	blx	r3
     dfc:	bd10      	pop	{r4, pc}
     dfe:	46c0      	nop			; (mov r8, r8)
     e00:	00000d8d 	.word	0x00000d8d

00000e04 <usart_write_buffer_job>:
     e04:	b510      	push	{r4, lr}
     e06:	2317      	movs	r3, #23
     e08:	2a00      	cmp	r2, #0
     e0a:	d006      	beq.n	e1a <usart_write_buffer_job+0x16>
     e0c:	79c4      	ldrb	r4, [r0, #7]
     e0e:	3305      	adds	r3, #5
     e10:	2c00      	cmp	r4, #0
     e12:	d002      	beq.n	e1a <usart_write_buffer_job+0x16>
     e14:	4b02      	ldr	r3, [pc, #8]	; (e20 <usart_write_buffer_job+0x1c>)
     e16:	4798      	blx	r3
     e18:	0003      	movs	r3, r0
     e1a:	0018      	movs	r0, r3
     e1c:	bd10      	pop	{r4, pc}
     e1e:	46c0      	nop			; (mov r8, r8)
     e20:	00000d51 	.word	0x00000d51

00000e24 <usart_get_job_status>:
     e24:	2900      	cmp	r1, #0
     e26:	d002      	beq.n	e2e <usart_get_job_status+0xa>
     e28:	2901      	cmp	r1, #1
     e2a:	d004      	beq.n	e36 <usart_get_job_status+0x12>
     e2c:	e007      	b.n	e3e <usart_get_job_status+0x1a>
     e2e:	2332      	movs	r3, #50	; 0x32
     e30:	5cc0      	ldrb	r0, [r0, r3]
     e32:	b2c0      	uxtb	r0, r0
     e34:	e004      	b.n	e40 <usart_get_job_status+0x1c>
     e36:	2333      	movs	r3, #51	; 0x33
     e38:	5cc0      	ldrb	r0, [r0, r3]
     e3a:	b2c0      	uxtb	r0, r0
     e3c:	e000      	b.n	e40 <usart_get_job_status+0x1c>
     e3e:	2017      	movs	r0, #23
     e40:	4770      	bx	lr
     e42:	46c0      	nop			; (mov r8, r8)

00000e44 <_usart_interrupt_handler>:
     e44:	b5f8      	push	{r3, r4, r5, r6, r7, lr}
     e46:	0080      	lsls	r0, r0, #2
     e48:	4b60      	ldr	r3, [pc, #384]	; (fcc <_usart_interrupt_handler+0x188>)
     e4a:	58c5      	ldr	r5, [r0, r3]
     e4c:	682c      	ldr	r4, [r5, #0]
     e4e:	69e3      	ldr	r3, [r4, #28]
     e50:	2b00      	cmp	r3, #0
     e52:	d1fc      	bne.n	e4e <_usart_interrupt_handler+0xa>
     e54:	7e23      	ldrb	r3, [r4, #24]
     e56:	7da6      	ldrb	r6, [r4, #22]
     e58:	401e      	ands	r6, r3
     e5a:	2330      	movs	r3, #48	; 0x30
     e5c:	5ceb      	ldrb	r3, [r5, r3]
     e5e:	2231      	movs	r2, #49	; 0x31
     e60:	5caf      	ldrb	r7, [r5, r2]
     e62:	401f      	ands	r7, r3
     e64:	07f3      	lsls	r3, r6, #31
     e66:	d522      	bpl.n	eae <_usart_interrupt_handler+0x6a>
     e68:	8deb      	ldrh	r3, [r5, #46]	; 0x2e
     e6a:	b29b      	uxth	r3, r3
     e6c:	2b00      	cmp	r3, #0
     e6e:	d01c      	beq.n	eaa <_usart_interrupt_handler+0x66>
     e70:	6aaa      	ldr	r2, [r5, #40]	; 0x28
     e72:	7813      	ldrb	r3, [r2, #0]
     e74:	b2db      	uxtb	r3, r3
     e76:	1c51      	adds	r1, r2, #1
     e78:	62a9      	str	r1, [r5, #40]	; 0x28
     e7a:	7969      	ldrb	r1, [r5, #5]
     e7c:	2901      	cmp	r1, #1
     e7e:	d001      	beq.n	e84 <_usart_interrupt_handler+0x40>
     e80:	b29b      	uxth	r3, r3
     e82:	e004      	b.n	e8e <_usart_interrupt_handler+0x4a>
     e84:	7851      	ldrb	r1, [r2, #1]
     e86:	0209      	lsls	r1, r1, #8
     e88:	430b      	orrs	r3, r1
     e8a:	3202      	adds	r2, #2
     e8c:	62aa      	str	r2, [r5, #40]	; 0x28
     e8e:	05db      	lsls	r3, r3, #23
     e90:	0ddb      	lsrs	r3, r3, #23
     e92:	8523      	strh	r3, [r4, #40]	; 0x28
     e94:	8deb      	ldrh	r3, [r5, #46]	; 0x2e
     e96:	3b01      	subs	r3, #1
     e98:	b29b      	uxth	r3, r3
     e9a:	85eb      	strh	r3, [r5, #46]	; 0x2e
     e9c:	2b00      	cmp	r3, #0
     e9e:	d106      	bne.n	eae <_usart_interrupt_handler+0x6a>
     ea0:	3301      	adds	r3, #1
     ea2:	7523      	strb	r3, [r4, #20]
     ea4:	3301      	adds	r3, #1
     ea6:	75a3      	strb	r3, [r4, #22]
     ea8:	e001      	b.n	eae <_usart_interrupt_handler+0x6a>
     eaa:	2301      	movs	r3, #1
     eac:	7523      	strb	r3, [r4, #20]
     eae:	07b3      	lsls	r3, r6, #30
     eb0:	d509      	bpl.n	ec6 <_usart_interrupt_handler+0x82>
     eb2:	2302      	movs	r3, #2
     eb4:	7523      	strb	r3, [r4, #20]
     eb6:	2200      	movs	r2, #0
     eb8:	3331      	adds	r3, #49	; 0x31
     eba:	54ea      	strb	r2, [r5, r3]
     ebc:	07fb      	lsls	r3, r7, #31
     ebe:	d502      	bpl.n	ec6 <_usart_interrupt_handler+0x82>
     ec0:	0028      	movs	r0, r5
     ec2:	68eb      	ldr	r3, [r5, #12]
     ec4:	4798      	blx	r3
     ec6:	0773      	lsls	r3, r6, #29
     ec8:	d560      	bpl.n	f8c <_usart_interrupt_handler+0x148>
     eca:	8dab      	ldrh	r3, [r5, #44]	; 0x2c
     ecc:	b29b      	uxth	r3, r3
     ece:	2b00      	cmp	r3, #0
     ed0:	d05a      	beq.n	f88 <_usart_interrupt_handler+0x144>
     ed2:	8b63      	ldrh	r3, [r4, #26]
     ed4:	b2db      	uxtb	r3, r3
     ed6:	071a      	lsls	r2, r3, #28
     ed8:	d402      	bmi.n	ee0 <_usart_interrupt_handler+0x9c>
     eda:	223f      	movs	r2, #63	; 0x3f
     edc:	4013      	ands	r3, r2
     ede:	e001      	b.n	ee4 <_usart_interrupt_handler+0xa0>
     ee0:	2237      	movs	r2, #55	; 0x37
     ee2:	4013      	ands	r3, r2
     ee4:	2b00      	cmp	r3, #0
     ee6:	d02d      	beq.n	f44 <_usart_interrupt_handler+0x100>
     ee8:	079a      	lsls	r2, r3, #30
     eea:	d505      	bpl.n	ef8 <_usart_interrupt_handler+0xb4>
     eec:	221a      	movs	r2, #26
     eee:	2332      	movs	r3, #50	; 0x32
     ef0:	54ea      	strb	r2, [r5, r3]
     ef2:	3b30      	subs	r3, #48	; 0x30
     ef4:	8363      	strh	r3, [r4, #26]
     ef6:	e01f      	b.n	f38 <_usart_interrupt_handler+0xf4>
     ef8:	075a      	lsls	r2, r3, #29
     efa:	d505      	bpl.n	f08 <_usart_interrupt_handler+0xc4>
     efc:	221e      	movs	r2, #30
     efe:	2332      	movs	r3, #50	; 0x32
     f00:	54ea      	strb	r2, [r5, r3]
     f02:	3b2e      	subs	r3, #46	; 0x2e
     f04:	8363      	strh	r3, [r4, #26]
     f06:	e017      	b.n	f38 <_usart_interrupt_handler+0xf4>
     f08:	07da      	lsls	r2, r3, #31
     f0a:	d505      	bpl.n	f18 <_usart_interrupt_handler+0xd4>
     f0c:	2213      	movs	r2, #19
     f0e:	2332      	movs	r3, #50	; 0x32
     f10:	54ea      	strb	r2, [r5, r3]
     f12:	3b31      	subs	r3, #49	; 0x31
     f14:	8363      	strh	r3, [r4, #26]
     f16:	e00f      	b.n	f38 <_usart_interrupt_handler+0xf4>
     f18:	06da      	lsls	r2, r3, #27
     f1a:	d505      	bpl.n	f28 <_usart_interrupt_handler+0xe4>
     f1c:	2242      	movs	r2, #66	; 0x42
     f1e:	2332      	movs	r3, #50	; 0x32
     f20:	54ea      	strb	r2, [r5, r3]
     f22:	3b22      	subs	r3, #34	; 0x22
     f24:	8363      	strh	r3, [r4, #26]
     f26:	e007      	b.n	f38 <_usart_interrupt_handler+0xf4>
     f28:	2220      	movs	r2, #32
     f2a:	421a      	tst	r2, r3
     f2c:	d004      	beq.n	f38 <_usart_interrupt_handler+0xf4>
     f2e:	3221      	adds	r2, #33	; 0x21
     f30:	2332      	movs	r3, #50	; 0x32
     f32:	54ea      	strb	r2, [r5, r3]
     f34:	3b12      	subs	r3, #18
     f36:	8363      	strh	r3, [r4, #26]
     f38:	077b      	lsls	r3, r7, #29
     f3a:	d527      	bpl.n	f8c <_usart_interrupt_handler+0x148>
     f3c:	0028      	movs	r0, r5
     f3e:	696b      	ldr	r3, [r5, #20]
     f40:	4798      	blx	r3
     f42:	e023      	b.n	f8c <_usart_interrupt_handler+0x148>
     f44:	8d23      	ldrh	r3, [r4, #40]	; 0x28
     f46:	05db      	lsls	r3, r3, #23
     f48:	0ddb      	lsrs	r3, r3, #23
     f4a:	b2da      	uxtb	r2, r3
     f4c:	6a69      	ldr	r1, [r5, #36]	; 0x24
     f4e:	700a      	strb	r2, [r1, #0]
     f50:	6a6a      	ldr	r2, [r5, #36]	; 0x24
     f52:	1c51      	adds	r1, r2, #1
     f54:	6269      	str	r1, [r5, #36]	; 0x24
     f56:	7969      	ldrb	r1, [r5, #5]
     f58:	2901      	cmp	r1, #1
     f5a:	d104      	bne.n	f66 <_usart_interrupt_handler+0x122>
     f5c:	0a1b      	lsrs	r3, r3, #8
     f5e:	7053      	strb	r3, [r2, #1]
     f60:	6a6b      	ldr	r3, [r5, #36]	; 0x24
     f62:	3301      	adds	r3, #1
     f64:	626b      	str	r3, [r5, #36]	; 0x24
     f66:	8dab      	ldrh	r3, [r5, #44]	; 0x2c
     f68:	3b01      	subs	r3, #1
     f6a:	b29b      	uxth	r3, r3
     f6c:	85ab      	strh	r3, [r5, #44]	; 0x2c
     f6e:	2b00      	cmp	r3, #0
     f70:	d10c      	bne.n	f8c <_usart_interrupt_handler+0x148>
     f72:	3304      	adds	r3, #4
     f74:	7523      	strb	r3, [r4, #20]
     f76:	2200      	movs	r2, #0
     f78:	332e      	adds	r3, #46	; 0x2e
     f7a:	54ea      	strb	r2, [r5, r3]
     f7c:	07bb      	lsls	r3, r7, #30
     f7e:	d505      	bpl.n	f8c <_usart_interrupt_handler+0x148>
     f80:	0028      	movs	r0, r5
     f82:	692b      	ldr	r3, [r5, #16]
     f84:	4798      	blx	r3
     f86:	e001      	b.n	f8c <_usart_interrupt_handler+0x148>
     f88:	2304      	movs	r3, #4
     f8a:	7523      	strb	r3, [r4, #20]
     f8c:	06f3      	lsls	r3, r6, #27
     f8e:	d507      	bpl.n	fa0 <_usart_interrupt_handler+0x15c>
     f90:	2310      	movs	r3, #16
     f92:	7523      	strb	r3, [r4, #20]
     f94:	7623      	strb	r3, [r4, #24]
     f96:	06fb      	lsls	r3, r7, #27
     f98:	d502      	bpl.n	fa0 <_usart_interrupt_handler+0x15c>
     f9a:	0028      	movs	r0, r5
     f9c:	69eb      	ldr	r3, [r5, #28]
     f9e:	4798      	blx	r3
     fa0:	06b3      	lsls	r3, r6, #26
     fa2:	d507      	bpl.n	fb4 <_usart_interrupt_handler+0x170>
     fa4:	2320      	movs	r3, #32
     fa6:	7523      	strb	r3, [r4, #20]
     fa8:	7623      	strb	r3, [r4, #24]
     faa:	073b      	lsls	r3, r7, #28
     fac:	d502      	bpl.n	fb4 <_usart_interrupt_handler+0x170>
     fae:	0028      	movs	r0, r5
     fb0:	69ab      	ldr	r3, [r5, #24]
     fb2:	4798      	blx	r3
     fb4:	0733      	lsls	r3, r6, #28
     fb6:	d507      	bpl.n	fc8 <_usart_interrupt_handler+0x184>
     fb8:	2308      	movs	r3, #8
     fba:	7523      	strb	r3, [r4, #20]
     fbc:	7623      	strb	r3, [r4, #24]
     fbe:	06bb      	lsls	r3, r7, #26
     fc0:	d502      	bpl.n	fc8 <_usart_interrupt_handler+0x184>
     fc2:	6a2b      	ldr	r3, [r5, #32]
     fc4:	0028      	movs	r0, r5
     fc6:	4798      	blx	r3
     fc8:	bdf8      	pop	{r3, r4, r5, r6, r7, pc}
     fca:	46c0      	nop			; (mov r8, r8)
     fcc:	20000fd4 	.word	0x20000fd4

00000fd0 <system_clock_source_get_hz>:
     fd0:	b510      	push	{r4, lr}
     fd2:	2808      	cmp	r0, #8
     fd4:	d803      	bhi.n	fde <system_clock_source_get_hz+0xe>
     fd6:	0080      	lsls	r0, r0, #2
     fd8:	4b1b      	ldr	r3, [pc, #108]	; (1048 <system_clock_source_get_hz+0x78>)
     fda:	581b      	ldr	r3, [r3, r0]
     fdc:	469f      	mov	pc, r3
     fde:	2000      	movs	r0, #0
     fe0:	e030      	b.n	1044 <system_clock_source_get_hz+0x74>
     fe2:	4b1a      	ldr	r3, [pc, #104]	; (104c <system_clock_source_get_hz+0x7c>)
     fe4:	6918      	ldr	r0, [r3, #16]
     fe6:	e02d      	b.n	1044 <system_clock_source_get_hz+0x74>
     fe8:	4b19      	ldr	r3, [pc, #100]	; (1050 <system_clock_source_get_hz+0x80>)
     fea:	6a1b      	ldr	r3, [r3, #32]
     fec:	059b      	lsls	r3, r3, #22
     fee:	0f9b      	lsrs	r3, r3, #30
     ff0:	4818      	ldr	r0, [pc, #96]	; (1054 <system_clock_source_get_hz+0x84>)
     ff2:	40d8      	lsrs	r0, r3
     ff4:	e026      	b.n	1044 <system_clock_source_get_hz+0x74>
     ff6:	4b15      	ldr	r3, [pc, #84]	; (104c <system_clock_source_get_hz+0x7c>)
     ff8:	6958      	ldr	r0, [r3, #20]
     ffa:	e023      	b.n	1044 <system_clock_source_get_hz+0x74>
     ffc:	4b13      	ldr	r3, [pc, #76]	; (104c <system_clock_source_get_hz+0x7c>)
     ffe:	681b      	ldr	r3, [r3, #0]
    1000:	2002      	movs	r0, #2
    1002:	4018      	ands	r0, r3
    1004:	d01e      	beq.n	1044 <system_clock_source_get_hz+0x74>
    1006:	4912      	ldr	r1, [pc, #72]	; (1050 <system_clock_source_get_hz+0x80>)
    1008:	2210      	movs	r2, #16
    100a:	68cb      	ldr	r3, [r1, #12]
    100c:	421a      	tst	r2, r3
    100e:	d0fc      	beq.n	100a <system_clock_source_get_hz+0x3a>
    1010:	4b0e      	ldr	r3, [pc, #56]	; (104c <system_clock_source_get_hz+0x7c>)
    1012:	681b      	ldr	r3, [r3, #0]
    1014:	075b      	lsls	r3, r3, #29
    1016:	d514      	bpl.n	1042 <system_clock_source_get_hz+0x72>
    1018:	2000      	movs	r0, #0
    101a:	4b0f      	ldr	r3, [pc, #60]	; (1058 <system_clock_source_get_hz+0x88>)
    101c:	4798      	blx	r3
    101e:	4b0b      	ldr	r3, [pc, #44]	; (104c <system_clock_source_get_hz+0x7c>)
    1020:	689b      	ldr	r3, [r3, #8]
    1022:	041b      	lsls	r3, r3, #16
    1024:	0c1b      	lsrs	r3, r3, #16
    1026:	4358      	muls	r0, r3
    1028:	e00c      	b.n	1044 <system_clock_source_get_hz+0x74>
    102a:	2350      	movs	r3, #80	; 0x50
    102c:	4a08      	ldr	r2, [pc, #32]	; (1050 <system_clock_source_get_hz+0x80>)
    102e:	5cd3      	ldrb	r3, [r2, r3]
    1030:	2000      	movs	r0, #0
    1032:	075b      	lsls	r3, r3, #29
    1034:	d506      	bpl.n	1044 <system_clock_source_get_hz+0x74>
    1036:	4b05      	ldr	r3, [pc, #20]	; (104c <system_clock_source_get_hz+0x7c>)
    1038:	68d8      	ldr	r0, [r3, #12]
    103a:	e003      	b.n	1044 <system_clock_source_get_hz+0x74>
    103c:	2080      	movs	r0, #128	; 0x80
    103e:	0200      	lsls	r0, r0, #8
    1040:	e000      	b.n	1044 <system_clock_source_get_hz+0x74>
    1042:	4806      	ldr	r0, [pc, #24]	; (105c <system_clock_source_get_hz+0x8c>)
    1044:	bd10      	pop	{r4, pc}
    1046:	46c0      	nop			; (mov r8, r8)
    1048:	00008fac 	.word	0x00008fac
    104c:	20000194 	.word	0x20000194
    1050:	40000800 	.word	0x40000800
    1054:	007a1200 	.word	0x007a1200
    1058:	00001679 	.word	0x00001679
    105c:	02dc6c00 	.word	0x02dc6c00

00001060 <system_clock_source_osc8m_set_config>:
    1060:	b570      	push	{r4, r5, r6, lr}
    1062:	4c0c      	ldr	r4, [pc, #48]	; (1094 <system_clock_source_osc8m_set_config+0x34>)
    1064:	6a23      	ldr	r3, [r4, #32]
    1066:	7801      	ldrb	r1, [r0, #0]
    1068:	7885      	ldrb	r5, [r0, #2]
    106a:	7842      	ldrb	r2, [r0, #1]
    106c:	2001      	movs	r0, #1
    106e:	4002      	ands	r2, r0
    1070:	0192      	lsls	r2, r2, #6
    1072:	2640      	movs	r6, #64	; 0x40
    1074:	43b3      	bics	r3, r6
    1076:	4313      	orrs	r3, r2
    1078:	0002      	movs	r2, r0
    107a:	402a      	ands	r2, r5
    107c:	01d2      	lsls	r2, r2, #7
    107e:	307f      	adds	r0, #127	; 0x7f
    1080:	4383      	bics	r3, r0
    1082:	4313      	orrs	r3, r2
    1084:	2203      	movs	r2, #3
    1086:	400a      	ands	r2, r1
    1088:	0212      	lsls	r2, r2, #8
    108a:	4903      	ldr	r1, [pc, #12]	; (1098 <system_clock_source_osc8m_set_config+0x38>)
    108c:	400b      	ands	r3, r1
    108e:	4313      	orrs	r3, r2
    1090:	6223      	str	r3, [r4, #32]
    1092:	bd70      	pop	{r4, r5, r6, pc}
    1094:	40000800 	.word	0x40000800
    1098:	fffffcff 	.word	0xfffffcff

0000109c <system_clock_source_xosc32k_set_config>:
    109c:	b5f0      	push	{r4, r5, r6, r7, lr}
    109e:	465f      	mov	r7, fp
    10a0:	4656      	mov	r6, sl
    10a2:	464d      	mov	r5, r9
    10a4:	4644      	mov	r4, r8
    10a6:	b4f0      	push	{r4, r5, r6, r7}
    10a8:	b083      	sub	sp, #12
    10aa:	4e2e      	ldr	r6, [pc, #184]	; (1164 <system_clock_source_xosc32k_set_config+0xc8>)
    10ac:	8ab3      	ldrh	r3, [r6, #20]
    10ae:	469c      	mov	ip, r3
    10b0:	7845      	ldrb	r5, [r0, #1]
    10b2:	7803      	ldrb	r3, [r0, #0]
    10b4:	425a      	negs	r2, r3
    10b6:	415a      	adcs	r2, r3
    10b8:	4691      	mov	r9, r2
    10ba:	7883      	ldrb	r3, [r0, #2]
    10bc:	469b      	mov	fp, r3
    10be:	78c3      	ldrb	r3, [r0, #3]
    10c0:	7902      	ldrb	r2, [r0, #4]
    10c2:	4690      	mov	r8, r2
    10c4:	7b47      	ldrb	r7, [r0, #13]
    10c6:	7b02      	ldrb	r2, [r0, #12]
    10c8:	9201      	str	r2, [sp, #4]
    10ca:	7b84      	ldrb	r4, [r0, #14]
    10cc:	6882      	ldr	r2, [r0, #8]
    10ce:	4826      	ldr	r0, [pc, #152]	; (1168 <system_clock_source_xosc32k_set_config+0xcc>)
    10d0:	6142      	str	r2, [r0, #20]
    10d2:	2001      	movs	r0, #1
    10d4:	464a      	mov	r2, r9
    10d6:	0092      	lsls	r2, r2, #2
    10d8:	4691      	mov	r9, r2
    10da:	2204      	movs	r2, #4
    10dc:	4692      	mov	sl, r2
    10de:	4662      	mov	r2, ip
    10e0:	4651      	mov	r1, sl
    10e2:	438a      	bics	r2, r1
    10e4:	4694      	mov	ip, r2
    10e6:	464a      	mov	r2, r9
    10e8:	4661      	mov	r1, ip
    10ea:	430a      	orrs	r2, r1
    10ec:	4694      	mov	ip, r2
    10ee:	4642      	mov	r2, r8
    10f0:	4002      	ands	r2, r0
    10f2:	00d2      	lsls	r2, r2, #3
    10f4:	4690      	mov	r8, r2
    10f6:	2208      	movs	r2, #8
    10f8:	4691      	mov	r9, r2
    10fa:	4662      	mov	r2, ip
    10fc:	4649      	mov	r1, r9
    10fe:	438a      	bics	r2, r1
    1100:	4694      	mov	ip, r2
    1102:	4642      	mov	r2, r8
    1104:	4661      	mov	r1, ip
    1106:	430a      	orrs	r2, r1
    1108:	4694      	mov	ip, r2
    110a:	4003      	ands	r3, r0
    110c:	011b      	lsls	r3, r3, #4
    110e:	2210      	movs	r2, #16
    1110:	4690      	mov	r8, r2
    1112:	4662      	mov	r2, ip
    1114:	4641      	mov	r1, r8
    1116:	438a      	bics	r2, r1
    1118:	4313      	orrs	r3, r2
    111a:	4659      	mov	r1, fp
    111c:	4001      	ands	r1, r0
    111e:	0149      	lsls	r1, r1, #5
    1120:	2220      	movs	r2, #32
    1122:	4393      	bics	r3, r2
    1124:	430b      	orrs	r3, r1
    1126:	9a01      	ldr	r2, [sp, #4]
    1128:	4002      	ands	r2, r0
    112a:	0192      	lsls	r2, r2, #6
    112c:	2140      	movs	r1, #64	; 0x40
    112e:	438b      	bics	r3, r1
    1130:	4313      	orrs	r3, r2
    1132:	4007      	ands	r7, r0
    1134:	01ff      	lsls	r7, r7, #7
    1136:	2280      	movs	r2, #128	; 0x80
    1138:	4393      	bics	r3, r2
    113a:	433b      	orrs	r3, r7
    113c:	3a79      	subs	r2, #121	; 0x79
    113e:	4015      	ands	r5, r2
    1140:	022d      	lsls	r5, r5, #8
    1142:	4f0a      	ldr	r7, [pc, #40]	; (116c <system_clock_source_xosc32k_set_config+0xd0>)
    1144:	403b      	ands	r3, r7
    1146:	432b      	orrs	r3, r5
    1148:	4004      	ands	r4, r0
    114a:	0320      	lsls	r0, r4, #12
    114c:	4c08      	ldr	r4, [pc, #32]	; (1170 <system_clock_source_xosc32k_set_config+0xd4>)
    114e:	401c      	ands	r4, r3
    1150:	4304      	orrs	r4, r0
    1152:	82b4      	strh	r4, [r6, #20]
    1154:	b003      	add	sp, #12
    1156:	bc3c      	pop	{r2, r3, r4, r5}
    1158:	4690      	mov	r8, r2
    115a:	4699      	mov	r9, r3
    115c:	46a2      	mov	sl, r4
    115e:	46ab      	mov	fp, r5
    1160:	bdf0      	pop	{r4, r5, r6, r7, pc}
    1162:	46c0      	nop			; (mov r8, r8)
    1164:	40000800 	.word	0x40000800
    1168:	20000194 	.word	0x20000194
    116c:	fffff8ff 	.word	0xfffff8ff
    1170:	ffffefff 	.word	0xffffefff

00001174 <system_clock_source_dfll_set_config>:
    1174:	b510      	push	{r4, lr}
    1176:	7a03      	ldrb	r3, [r0, #8]
    1178:	069b      	lsls	r3, r3, #26
    117a:	0c1a      	lsrs	r2, r3, #16
    117c:	8943      	ldrh	r3, [r0, #10]
    117e:	059b      	lsls	r3, r3, #22
    1180:	0d9b      	lsrs	r3, r3, #22
    1182:	4313      	orrs	r3, r2
    1184:	4c19      	ldr	r4, [pc, #100]	; (11ec <system_clock_source_dfll_set_config+0x78>)
    1186:	6063      	str	r3, [r4, #4]
    1188:	7981      	ldrb	r1, [r0, #6]
    118a:	79c3      	ldrb	r3, [r0, #7]
    118c:	4319      	orrs	r1, r3
    118e:	8843      	ldrh	r3, [r0, #2]
    1190:	8882      	ldrh	r2, [r0, #4]
    1192:	4313      	orrs	r3, r2
    1194:	430b      	orrs	r3, r1
    1196:	7842      	ldrb	r2, [r0, #1]
    1198:	01d2      	lsls	r2, r2, #7
    119a:	4313      	orrs	r3, r2
    119c:	6023      	str	r3, [r4, #0]
    119e:	7803      	ldrb	r3, [r0, #0]
    11a0:	2b04      	cmp	r3, #4
    11a2:	d10f      	bne.n	11c4 <system_clock_source_dfll_set_config+0x50>
    11a4:	7b03      	ldrb	r3, [r0, #12]
    11a6:	069b      	lsls	r3, r3, #26
    11a8:	8a02      	ldrh	r2, [r0, #16]
    11aa:	4313      	orrs	r3, r2
    11ac:	0019      	movs	r1, r3
    11ae:	89c3      	ldrh	r3, [r0, #14]
    11b0:	041b      	lsls	r3, r3, #16
    11b2:	4a0f      	ldr	r2, [pc, #60]	; (11f0 <system_clock_source_dfll_set_config+0x7c>)
    11b4:	4013      	ands	r3, r2
    11b6:	430b      	orrs	r3, r1
    11b8:	60a3      	str	r3, [r4, #8]
    11ba:	6821      	ldr	r1, [r4, #0]
    11bc:	2304      	movs	r3, #4
    11be:	430b      	orrs	r3, r1
    11c0:	6023      	str	r3, [r4, #0]
    11c2:	e011      	b.n	11e8 <system_clock_source_dfll_set_config+0x74>
    11c4:	2b20      	cmp	r3, #32
    11c6:	d10f      	bne.n	11e8 <system_clock_source_dfll_set_config+0x74>
    11c8:	7b03      	ldrb	r3, [r0, #12]
    11ca:	069b      	lsls	r3, r3, #26
    11cc:	8a02      	ldrh	r2, [r0, #16]
    11ce:	4313      	orrs	r3, r2
    11d0:	0019      	movs	r1, r3
    11d2:	89c3      	ldrh	r3, [r0, #14]
    11d4:	041b      	lsls	r3, r3, #16
    11d6:	4a06      	ldr	r2, [pc, #24]	; (11f0 <system_clock_source_dfll_set_config+0x7c>)
    11d8:	4013      	ands	r3, r2
    11da:	430b      	orrs	r3, r1
    11dc:	4a03      	ldr	r2, [pc, #12]	; (11ec <system_clock_source_dfll_set_config+0x78>)
    11de:	6093      	str	r3, [r2, #8]
    11e0:	6813      	ldr	r3, [r2, #0]
    11e2:	4904      	ldr	r1, [pc, #16]	; (11f4 <system_clock_source_dfll_set_config+0x80>)
    11e4:	430b      	orrs	r3, r1
    11e6:	6013      	str	r3, [r2, #0]
    11e8:	bd10      	pop	{r4, pc}
    11ea:	46c0      	nop			; (mov r8, r8)
    11ec:	20000194 	.word	0x20000194
    11f0:	03ff0000 	.word	0x03ff0000
    11f4:	00000424 	.word	0x00000424

000011f8 <system_clock_source_enable>:
    11f8:	2808      	cmp	r0, #8
    11fa:	d803      	bhi.n	1204 <system_clock_source_enable+0xc>
    11fc:	0080      	lsls	r0, r0, #2
    11fe:	4b25      	ldr	r3, [pc, #148]	; (1294 <system_clock_source_enable+0x9c>)
    1200:	581b      	ldr	r3, [r3, r0]
    1202:	469f      	mov	pc, r3
    1204:	2017      	movs	r0, #23
    1206:	e044      	b.n	1292 <system_clock_source_enable+0x9a>
    1208:	4a23      	ldr	r2, [pc, #140]	; (1298 <system_clock_source_enable+0xa0>)
    120a:	6a11      	ldr	r1, [r2, #32]
    120c:	2302      	movs	r3, #2
    120e:	430b      	orrs	r3, r1
    1210:	6213      	str	r3, [r2, #32]
    1212:	2000      	movs	r0, #0
    1214:	e03d      	b.n	1292 <system_clock_source_enable+0x9a>
    1216:	4a20      	ldr	r2, [pc, #128]	; (1298 <system_clock_source_enable+0xa0>)
    1218:	6991      	ldr	r1, [r2, #24]
    121a:	2302      	movs	r3, #2
    121c:	430b      	orrs	r3, r1
    121e:	6193      	str	r3, [r2, #24]
    1220:	2000      	movs	r0, #0
    1222:	e036      	b.n	1292 <system_clock_source_enable+0x9a>
    1224:	4a1c      	ldr	r2, [pc, #112]	; (1298 <system_clock_source_enable+0xa0>)
    1226:	8a11      	ldrh	r1, [r2, #16]
    1228:	2302      	movs	r3, #2
    122a:	430b      	orrs	r3, r1
    122c:	8213      	strh	r3, [r2, #16]
    122e:	2000      	movs	r0, #0
    1230:	e02f      	b.n	1292 <system_clock_source_enable+0x9a>
    1232:	4a19      	ldr	r2, [pc, #100]	; (1298 <system_clock_source_enable+0xa0>)
    1234:	8a91      	ldrh	r1, [r2, #20]
    1236:	2302      	movs	r3, #2
    1238:	430b      	orrs	r3, r1
    123a:	8293      	strh	r3, [r2, #20]
    123c:	2000      	movs	r0, #0
    123e:	e028      	b.n	1292 <system_clock_source_enable+0x9a>
    1240:	4916      	ldr	r1, [pc, #88]	; (129c <system_clock_source_enable+0xa4>)
    1242:	680b      	ldr	r3, [r1, #0]
    1244:	2202      	movs	r2, #2
    1246:	4313      	orrs	r3, r2
    1248:	600b      	str	r3, [r1, #0]
    124a:	4b13      	ldr	r3, [pc, #76]	; (1298 <system_clock_source_enable+0xa0>)
    124c:	849a      	strh	r2, [r3, #36]	; 0x24
    124e:	0019      	movs	r1, r3
    1250:	320e      	adds	r2, #14
    1252:	68cb      	ldr	r3, [r1, #12]
    1254:	421a      	tst	r2, r3
    1256:	d0fc      	beq.n	1252 <system_clock_source_enable+0x5a>
    1258:	4a10      	ldr	r2, [pc, #64]	; (129c <system_clock_source_enable+0xa4>)
    125a:	6891      	ldr	r1, [r2, #8]
    125c:	4b0e      	ldr	r3, [pc, #56]	; (1298 <system_clock_source_enable+0xa0>)
    125e:	62d9      	str	r1, [r3, #44]	; 0x2c
    1260:	6852      	ldr	r2, [r2, #4]
    1262:	629a      	str	r2, [r3, #40]	; 0x28
    1264:	2200      	movs	r2, #0
    1266:	849a      	strh	r2, [r3, #36]	; 0x24
    1268:	0019      	movs	r1, r3
    126a:	3210      	adds	r2, #16
    126c:	68cb      	ldr	r3, [r1, #12]
    126e:	421a      	tst	r2, r3
    1270:	d0fc      	beq.n	126c <system_clock_source_enable+0x74>
    1272:	4b0a      	ldr	r3, [pc, #40]	; (129c <system_clock_source_enable+0xa4>)
    1274:	681b      	ldr	r3, [r3, #0]
    1276:	b29b      	uxth	r3, r3
    1278:	4a07      	ldr	r2, [pc, #28]	; (1298 <system_clock_source_enable+0xa0>)
    127a:	8493      	strh	r3, [r2, #36]	; 0x24
    127c:	2000      	movs	r0, #0
    127e:	e008      	b.n	1292 <system_clock_source_enable+0x9a>
    1280:	4905      	ldr	r1, [pc, #20]	; (1298 <system_clock_source_enable+0xa0>)
    1282:	2244      	movs	r2, #68	; 0x44
    1284:	5c88      	ldrb	r0, [r1, r2]
    1286:	2302      	movs	r3, #2
    1288:	4303      	orrs	r3, r0
    128a:	548b      	strb	r3, [r1, r2]
    128c:	2000      	movs	r0, #0
    128e:	e000      	b.n	1292 <system_clock_source_enable+0x9a>
    1290:	2000      	movs	r0, #0
    1292:	4770      	bx	lr
    1294:	00008fd0 	.word	0x00008fd0
    1298:	40000800 	.word	0x40000800
    129c:	20000194 	.word	0x20000194

000012a0 <system_clock_init>:
    12a0:	b5f0      	push	{r4, r5, r6, r7, lr}
    12a2:	464f      	mov	r7, r9
    12a4:	4646      	mov	r6, r8
    12a6:	b4c0      	push	{r6, r7}
    12a8:	b08f      	sub	sp, #60	; 0x3c
    12aa:	22c2      	movs	r2, #194	; 0xc2
    12ac:	00d2      	lsls	r2, r2, #3
    12ae:	4b50      	ldr	r3, [pc, #320]	; (13f0 <system_clock_init+0x150>)
    12b0:	609a      	str	r2, [r3, #8]
    12b2:	4950      	ldr	r1, [pc, #320]	; (13f4 <system_clock_init+0x154>)
    12b4:	684b      	ldr	r3, [r1, #4]
    12b6:	221e      	movs	r2, #30
    12b8:	4393      	bics	r3, r2
    12ba:	3a1a      	subs	r2, #26
    12bc:	4313      	orrs	r3, r2
    12be:	604b      	str	r3, [r1, #4]
    12c0:	3a02      	subs	r2, #2
    12c2:	ab01      	add	r3, sp, #4
    12c4:	701a      	strb	r2, [r3, #0]
    12c6:	2400      	movs	r4, #0
    12c8:	4d4b      	ldr	r5, [pc, #300]	; (13f8 <system_clock_init+0x158>)
    12ca:	b2e0      	uxtb	r0, r4
    12cc:	a901      	add	r1, sp, #4
    12ce:	47a8      	blx	r5
    12d0:	3401      	adds	r4, #1
    12d2:	2c25      	cmp	r4, #37	; 0x25
    12d4:	d1f9      	bne.n	12ca <system_clock_init+0x2a>
    12d6:	a80a      	add	r0, sp, #40	; 0x28
    12d8:	2300      	movs	r3, #0
    12da:	7003      	strb	r3, [r0, #0]
    12dc:	7083      	strb	r3, [r0, #2]
    12de:	2280      	movs	r2, #128	; 0x80
    12e0:	0212      	lsls	r2, r2, #8
    12e2:	6082      	str	r2, [r0, #8]
    12e4:	70c3      	strb	r3, [r0, #3]
    12e6:	2201      	movs	r2, #1
    12e8:	7102      	strb	r2, [r0, #4]
    12ea:	7383      	strb	r3, [r0, #14]
    12ec:	2106      	movs	r1, #6
    12ee:	7041      	strb	r1, [r0, #1]
    12f0:	7343      	strb	r3, [r0, #13]
    12f2:	7302      	strb	r2, [r0, #12]
    12f4:	4b41      	ldr	r3, [pc, #260]	; (13fc <system_clock_init+0x15c>)
    12f6:	4798      	blx	r3
    12f8:	2005      	movs	r0, #5
    12fa:	4b41      	ldr	r3, [pc, #260]	; (1400 <system_clock_init+0x160>)
    12fc:	4798      	blx	r3
    12fe:	493c      	ldr	r1, [pc, #240]	; (13f0 <system_clock_init+0x150>)
    1300:	2202      	movs	r2, #2
    1302:	68cb      	ldr	r3, [r1, #12]
    1304:	421a      	tst	r2, r3
    1306:	d0fc      	beq.n	1302 <system_clock_init+0x62>
    1308:	ab05      	add	r3, sp, #20
    130a:	2100      	movs	r1, #0
    130c:	2200      	movs	r2, #0
    130e:	8059      	strh	r1, [r3, #2]
    1310:	8099      	strh	r1, [r3, #4]
    1312:	719a      	strb	r2, [r3, #6]
    1314:	71da      	strb	r2, [r3, #7]
    1316:	313f      	adds	r1, #63	; 0x3f
    1318:	8159      	strh	r1, [r3, #10]
    131a:	393e      	subs	r1, #62	; 0x3e
    131c:	81d9      	strh	r1, [r3, #14]
    131e:	3103      	adds	r1, #3
    1320:	7019      	strb	r1, [r3, #0]
    1322:	705a      	strb	r2, [r3, #1]
    1324:	4b37      	ldr	r3, [pc, #220]	; (1404 <system_clock_init+0x164>)
    1326:	681b      	ldr	r3, [r3, #0]
    1328:	0e9b      	lsrs	r3, r3, #26
    132a:	2b3f      	cmp	r3, #63	; 0x3f
    132c:	d100      	bne.n	1330 <system_clock_init+0x90>
    132e:	3b20      	subs	r3, #32
    1330:	a805      	add	r0, sp, #20
    1332:	7203      	strb	r3, [r0, #8]
    1334:	23b7      	movs	r3, #183	; 0xb7
    1336:	00db      	lsls	r3, r3, #3
    1338:	8203      	strh	r3, [r0, #16]
    133a:	2307      	movs	r3, #7
    133c:	7303      	strb	r3, [r0, #12]
    133e:	4b32      	ldr	r3, [pc, #200]	; (1408 <system_clock_init+0x168>)
    1340:	4798      	blx	r3
    1342:	a804      	add	r0, sp, #16
    1344:	2500      	movs	r5, #0
    1346:	7045      	strb	r5, [r0, #1]
    1348:	7005      	strb	r5, [r0, #0]
    134a:	7085      	strb	r5, [r0, #2]
    134c:	4b2f      	ldr	r3, [pc, #188]	; (140c <system_clock_init+0x16c>)
    134e:	4798      	blx	r3
    1350:	2006      	movs	r0, #6
    1352:	4f2b      	ldr	r7, [pc, #172]	; (1400 <system_clock_init+0x160>)
    1354:	47b8      	blx	r7
    1356:	4b2e      	ldr	r3, [pc, #184]	; (1410 <system_clock_init+0x170>)
    1358:	4798      	blx	r3
    135a:	ac01      	add	r4, sp, #4
    135c:	2601      	movs	r6, #1
    135e:	9602      	str	r6, [sp, #8]
    1360:	7065      	strb	r5, [r4, #1]
    1362:	2306      	movs	r3, #6
    1364:	7023      	strb	r3, [r4, #0]
    1366:	7225      	strb	r5, [r4, #8]
    1368:	7265      	strb	r5, [r4, #9]
    136a:	0021      	movs	r1, r4
    136c:	2001      	movs	r0, #1
    136e:	4b29      	ldr	r3, [pc, #164]	; (1414 <system_clock_init+0x174>)
    1370:	4699      	mov	r9, r3
    1372:	4798      	blx	r3
    1374:	2001      	movs	r0, #1
    1376:	4b28      	ldr	r3, [pc, #160]	; (1418 <system_clock_init+0x178>)
    1378:	4698      	mov	r8, r3
    137a:	4798      	blx	r3
    137c:	6066      	str	r6, [r4, #4]
    137e:	7065      	strb	r5, [r4, #1]
    1380:	7265      	strb	r5, [r4, #9]
    1382:	2305      	movs	r3, #5
    1384:	7023      	strb	r3, [r4, #0]
    1386:	7226      	strb	r6, [r4, #8]
    1388:	0021      	movs	r1, r4
    138a:	2003      	movs	r0, #3
    138c:	47c8      	blx	r9
    138e:	2003      	movs	r0, #3
    1390:	47c0      	blx	r8
    1392:	2303      	movs	r3, #3
    1394:	7023      	strb	r3, [r4, #0]
    1396:	0021      	movs	r1, r4
    1398:	2000      	movs	r0, #0
    139a:	4b17      	ldr	r3, [pc, #92]	; (13f8 <system_clock_init+0x158>)
    139c:	4798      	blx	r3
    139e:	2000      	movs	r0, #0
    13a0:	4b1e      	ldr	r3, [pc, #120]	; (141c <system_clock_init+0x17c>)
    13a2:	4798      	blx	r3
    13a4:	2007      	movs	r0, #7
    13a6:	47b8      	blx	r7
    13a8:	4911      	ldr	r1, [pc, #68]	; (13f0 <system_clock_init+0x150>)
    13aa:	22d0      	movs	r2, #208	; 0xd0
    13ac:	68cb      	ldr	r3, [r1, #12]
    13ae:	4013      	ands	r3, r2
    13b0:	2bd0      	cmp	r3, #208	; 0xd0
    13b2:	d1fb      	bne.n	13ac <system_clock_init+0x10c>
    13b4:	4a0e      	ldr	r2, [pc, #56]	; (13f0 <system_clock_init+0x150>)
    13b6:	8c91      	ldrh	r1, [r2, #36]	; 0x24
    13b8:	2380      	movs	r3, #128	; 0x80
    13ba:	430b      	orrs	r3, r1
    13bc:	8493      	strh	r3, [r2, #36]	; 0x24
    13be:	4a18      	ldr	r2, [pc, #96]	; (1420 <system_clock_init+0x180>)
    13c0:	2300      	movs	r3, #0
    13c2:	7213      	strb	r3, [r2, #8]
    13c4:	7253      	strb	r3, [r2, #9]
    13c6:	7293      	strb	r3, [r2, #10]
    13c8:	72d3      	strb	r3, [r2, #11]
    13ca:	a901      	add	r1, sp, #4
    13cc:	2201      	movs	r2, #1
    13ce:	604a      	str	r2, [r1, #4]
    13d0:	704b      	strb	r3, [r1, #1]
    13d2:	720b      	strb	r3, [r1, #8]
    13d4:	3307      	adds	r3, #7
    13d6:	700b      	strb	r3, [r1, #0]
    13d8:	724a      	strb	r2, [r1, #9]
    13da:	2000      	movs	r0, #0
    13dc:	4b0d      	ldr	r3, [pc, #52]	; (1414 <system_clock_init+0x174>)
    13de:	4798      	blx	r3
    13e0:	2000      	movs	r0, #0
    13e2:	4b0d      	ldr	r3, [pc, #52]	; (1418 <system_clock_init+0x178>)
    13e4:	4798      	blx	r3
    13e6:	b00f      	add	sp, #60	; 0x3c
    13e8:	bc0c      	pop	{r2, r3}
    13ea:	4690      	mov	r8, r2
    13ec:	4699      	mov	r9, r3
    13ee:	bdf0      	pop	{r4, r5, r6, r7, pc}
    13f0:	40000800 	.word	0x40000800
    13f4:	41004000 	.word	0x41004000
    13f8:	0000165d 	.word	0x0000165d
    13fc:	0000109d 	.word	0x0000109d
    1400:	000011f9 	.word	0x000011f9
    1404:	00806024 	.word	0x00806024
    1408:	00001175 	.word	0x00001175
    140c:	00001061 	.word	0x00001061
    1410:	00001425 	.word	0x00001425
    1414:	00001449 	.word	0x00001449
    1418:	00001501 	.word	0x00001501
    141c:	000015d1 	.word	0x000015d1
    1420:	40000400 	.word	0x40000400

00001424 <system_gclk_init>:
    1424:	4a06      	ldr	r2, [pc, #24]	; (1440 <system_gclk_init+0x1c>)
    1426:	6991      	ldr	r1, [r2, #24]
    1428:	2308      	movs	r3, #8
    142a:	430b      	orrs	r3, r1
    142c:	6193      	str	r3, [r2, #24]
    142e:	2201      	movs	r2, #1
    1430:	4b04      	ldr	r3, [pc, #16]	; (1444 <system_gclk_init+0x20>)
    1432:	701a      	strb	r2, [r3, #0]
    1434:	0019      	movs	r1, r3
    1436:	780b      	ldrb	r3, [r1, #0]
    1438:	4213      	tst	r3, r2
    143a:	d1fc      	bne.n	1436 <system_gclk_init+0x12>
    143c:	4770      	bx	lr
    143e:	46c0      	nop			; (mov r8, r8)
    1440:	40000400 	.word	0x40000400
    1444:	40000c00 	.word	0x40000c00

00001448 <system_gclk_gen_set_config>:
    1448:	b570      	push	{r4, r5, r6, lr}
    144a:	0006      	movs	r6, r0
    144c:	0005      	movs	r5, r0
    144e:	780c      	ldrb	r4, [r1, #0]
    1450:	0224      	lsls	r4, r4, #8
    1452:	4304      	orrs	r4, r0
    1454:	784b      	ldrb	r3, [r1, #1]
    1456:	2b00      	cmp	r3, #0
    1458:	d002      	beq.n	1460 <system_gclk_gen_set_config+0x18>
    145a:	2380      	movs	r3, #128	; 0x80
    145c:	02db      	lsls	r3, r3, #11
    145e:	431c      	orrs	r4, r3
    1460:	7a4b      	ldrb	r3, [r1, #9]
    1462:	2b00      	cmp	r3, #0
    1464:	d002      	beq.n	146c <system_gclk_gen_set_config+0x24>
    1466:	2380      	movs	r3, #128	; 0x80
    1468:	031b      	lsls	r3, r3, #12
    146a:	431c      	orrs	r4, r3
    146c:	6848      	ldr	r0, [r1, #4]
    146e:	2801      	cmp	r0, #1
    1470:	d918      	bls.n	14a4 <system_gclk_gen_set_config+0x5c>
    1472:	1e43      	subs	r3, r0, #1
    1474:	4218      	tst	r0, r3
    1476:	d110      	bne.n	149a <system_gclk_gen_set_config+0x52>
    1478:	2802      	cmp	r0, #2
    147a:	d906      	bls.n	148a <system_gclk_gen_set_config+0x42>
    147c:	2302      	movs	r3, #2
    147e:	2200      	movs	r2, #0
    1480:	3201      	adds	r2, #1
    1482:	005b      	lsls	r3, r3, #1
    1484:	4298      	cmp	r0, r3
    1486:	d8fb      	bhi.n	1480 <system_gclk_gen_set_config+0x38>
    1488:	e000      	b.n	148c <system_gclk_gen_set_config+0x44>
    148a:	2200      	movs	r2, #0
    148c:	0212      	lsls	r2, r2, #8
    148e:	4332      	orrs	r2, r6
    1490:	0015      	movs	r5, r2
    1492:	2380      	movs	r3, #128	; 0x80
    1494:	035b      	lsls	r3, r3, #13
    1496:	431c      	orrs	r4, r3
    1498:	e004      	b.n	14a4 <system_gclk_gen_set_config+0x5c>
    149a:	0205      	lsls	r5, r0, #8
    149c:	4335      	orrs	r5, r6
    149e:	2380      	movs	r3, #128	; 0x80
    14a0:	029b      	lsls	r3, r3, #10
    14a2:	431c      	orrs	r4, r3
    14a4:	7a0b      	ldrb	r3, [r1, #8]
    14a6:	2b00      	cmp	r3, #0
    14a8:	d002      	beq.n	14b0 <system_gclk_gen_set_config+0x68>
    14aa:	2380      	movs	r3, #128	; 0x80
    14ac:	039b      	lsls	r3, r3, #14
    14ae:	431c      	orrs	r4, r3
    14b0:	4a0f      	ldr	r2, [pc, #60]	; (14f0 <system_gclk_gen_set_config+0xa8>)
    14b2:	7853      	ldrb	r3, [r2, #1]
    14b4:	b25b      	sxtb	r3, r3
    14b6:	2b00      	cmp	r3, #0
    14b8:	dbfb      	blt.n	14b2 <system_gclk_gen_set_config+0x6a>
    14ba:	4b0e      	ldr	r3, [pc, #56]	; (14f4 <system_gclk_gen_set_config+0xac>)
    14bc:	4798      	blx	r3
    14be:	4b0e      	ldr	r3, [pc, #56]	; (14f8 <system_gclk_gen_set_config+0xb0>)
    14c0:	701e      	strb	r6, [r3, #0]
    14c2:	4a0b      	ldr	r2, [pc, #44]	; (14f0 <system_gclk_gen_set_config+0xa8>)
    14c4:	7853      	ldrb	r3, [r2, #1]
    14c6:	b25b      	sxtb	r3, r3
    14c8:	2b00      	cmp	r3, #0
    14ca:	dbfb      	blt.n	14c4 <system_gclk_gen_set_config+0x7c>
    14cc:	4b08      	ldr	r3, [pc, #32]	; (14f0 <system_gclk_gen_set_config+0xa8>)
    14ce:	609d      	str	r5, [r3, #8]
    14d0:	001a      	movs	r2, r3
    14d2:	7853      	ldrb	r3, [r2, #1]
    14d4:	b25b      	sxtb	r3, r3
    14d6:	2b00      	cmp	r3, #0
    14d8:	dbfb      	blt.n	14d2 <system_gclk_gen_set_config+0x8a>
    14da:	4a05      	ldr	r2, [pc, #20]	; (14f0 <system_gclk_gen_set_config+0xa8>)
    14dc:	6851      	ldr	r1, [r2, #4]
    14de:	2380      	movs	r3, #128	; 0x80
    14e0:	025b      	lsls	r3, r3, #9
    14e2:	400b      	ands	r3, r1
    14e4:	431c      	orrs	r4, r3
    14e6:	6054      	str	r4, [r2, #4]
    14e8:	4b04      	ldr	r3, [pc, #16]	; (14fc <system_gclk_gen_set_config+0xb4>)
    14ea:	4798      	blx	r3
    14ec:	bd70      	pop	{r4, r5, r6, pc}
    14ee:	46c0      	nop			; (mov r8, r8)
    14f0:	40000c00 	.word	0x40000c00
    14f4:	000001ad 	.word	0x000001ad
    14f8:	40000c08 	.word	0x40000c08
    14fc:	000001ed 	.word	0x000001ed

00001500 <system_gclk_gen_enable>:
    1500:	b510      	push	{r4, lr}
    1502:	0004      	movs	r4, r0
    1504:	4a0b      	ldr	r2, [pc, #44]	; (1534 <system_gclk_gen_enable+0x34>)
    1506:	7853      	ldrb	r3, [r2, #1]
    1508:	b25b      	sxtb	r3, r3
    150a:	2b00      	cmp	r3, #0
    150c:	dbfb      	blt.n	1506 <system_gclk_gen_enable+0x6>
    150e:	4b0a      	ldr	r3, [pc, #40]	; (1538 <system_gclk_gen_enable+0x38>)
    1510:	4798      	blx	r3
    1512:	4b0a      	ldr	r3, [pc, #40]	; (153c <system_gclk_gen_enable+0x3c>)
    1514:	701c      	strb	r4, [r3, #0]
    1516:	4a07      	ldr	r2, [pc, #28]	; (1534 <system_gclk_gen_enable+0x34>)
    1518:	7853      	ldrb	r3, [r2, #1]
    151a:	b25b      	sxtb	r3, r3
    151c:	2b00      	cmp	r3, #0
    151e:	dbfb      	blt.n	1518 <system_gclk_gen_enable+0x18>
    1520:	4a04      	ldr	r2, [pc, #16]	; (1534 <system_gclk_gen_enable+0x34>)
    1522:	6853      	ldr	r3, [r2, #4]
    1524:	2180      	movs	r1, #128	; 0x80
    1526:	0249      	lsls	r1, r1, #9
    1528:	430b      	orrs	r3, r1
    152a:	6053      	str	r3, [r2, #4]
    152c:	4b04      	ldr	r3, [pc, #16]	; (1540 <system_gclk_gen_enable+0x40>)
    152e:	4798      	blx	r3
    1530:	bd10      	pop	{r4, pc}
    1532:	46c0      	nop			; (mov r8, r8)
    1534:	40000c00 	.word	0x40000c00
    1538:	000001ad 	.word	0x000001ad
    153c:	40000c04 	.word	0x40000c04
    1540:	000001ed 	.word	0x000001ed

00001544 <system_gclk_gen_get_hz>:
    1544:	b570      	push	{r4, r5, r6, lr}
    1546:	0004      	movs	r4, r0
    1548:	4a1a      	ldr	r2, [pc, #104]	; (15b4 <system_gclk_gen_get_hz+0x70>)
    154a:	7853      	ldrb	r3, [r2, #1]
    154c:	b25b      	sxtb	r3, r3
    154e:	2b00      	cmp	r3, #0
    1550:	dbfb      	blt.n	154a <system_gclk_gen_get_hz+0x6>
    1552:	4b19      	ldr	r3, [pc, #100]	; (15b8 <system_gclk_gen_get_hz+0x74>)
    1554:	4798      	blx	r3
    1556:	4b19      	ldr	r3, [pc, #100]	; (15bc <system_gclk_gen_get_hz+0x78>)
    1558:	701c      	strb	r4, [r3, #0]
    155a:	4a16      	ldr	r2, [pc, #88]	; (15b4 <system_gclk_gen_get_hz+0x70>)
    155c:	7853      	ldrb	r3, [r2, #1]
    155e:	b25b      	sxtb	r3, r3
    1560:	2b00      	cmp	r3, #0
    1562:	dbfb      	blt.n	155c <system_gclk_gen_get_hz+0x18>
    1564:	4e13      	ldr	r6, [pc, #76]	; (15b4 <system_gclk_gen_get_hz+0x70>)
    1566:	6870      	ldr	r0, [r6, #4]
    1568:	04c0      	lsls	r0, r0, #19
    156a:	0ec0      	lsrs	r0, r0, #27
    156c:	4b14      	ldr	r3, [pc, #80]	; (15c0 <system_gclk_gen_get_hz+0x7c>)
    156e:	4798      	blx	r3
    1570:	0005      	movs	r5, r0
    1572:	4b12      	ldr	r3, [pc, #72]	; (15bc <system_gclk_gen_get_hz+0x78>)
    1574:	701c      	strb	r4, [r3, #0]
    1576:	6876      	ldr	r6, [r6, #4]
    1578:	02f6      	lsls	r6, r6, #11
    157a:	0ff6      	lsrs	r6, r6, #31
    157c:	4b11      	ldr	r3, [pc, #68]	; (15c4 <system_gclk_gen_get_hz+0x80>)
    157e:	701c      	strb	r4, [r3, #0]
    1580:	4a0c      	ldr	r2, [pc, #48]	; (15b4 <system_gclk_gen_get_hz+0x70>)
    1582:	7853      	ldrb	r3, [r2, #1]
    1584:	b25b      	sxtb	r3, r3
    1586:	2b00      	cmp	r3, #0
    1588:	dbfb      	blt.n	1582 <system_gclk_gen_get_hz+0x3e>
    158a:	4b0a      	ldr	r3, [pc, #40]	; (15b4 <system_gclk_gen_get_hz+0x70>)
    158c:	689c      	ldr	r4, [r3, #8]
    158e:	0224      	lsls	r4, r4, #8
    1590:	0c24      	lsrs	r4, r4, #16
    1592:	4b0d      	ldr	r3, [pc, #52]	; (15c8 <system_gclk_gen_get_hz+0x84>)
    1594:	4798      	blx	r3
    1596:	2e00      	cmp	r6, #0
    1598:	d107      	bne.n	15aa <system_gclk_gen_get_hz+0x66>
    159a:	2c01      	cmp	r4, #1
    159c:	d907      	bls.n	15ae <system_gclk_gen_get_hz+0x6a>
    159e:	0021      	movs	r1, r4
    15a0:	0028      	movs	r0, r5
    15a2:	4b0a      	ldr	r3, [pc, #40]	; (15cc <system_gclk_gen_get_hz+0x88>)
    15a4:	4798      	blx	r3
    15a6:	0005      	movs	r5, r0
    15a8:	e001      	b.n	15ae <system_gclk_gen_get_hz+0x6a>
    15aa:	3401      	adds	r4, #1
    15ac:	40e5      	lsrs	r5, r4
    15ae:	0028      	movs	r0, r5
    15b0:	bd70      	pop	{r4, r5, r6, pc}
    15b2:	46c0      	nop			; (mov r8, r8)
    15b4:	40000c00 	.word	0x40000c00
    15b8:	000001ad 	.word	0x000001ad
    15bc:	40000c04 	.word	0x40000c04
    15c0:	00000fd1 	.word	0x00000fd1
    15c4:	40000c08 	.word	0x40000c08
    15c8:	000001ed 	.word	0x000001ed
    15cc:	00007be5 	.word	0x00007be5

000015d0 <system_gclk_chan_enable>:
    15d0:	b510      	push	{r4, lr}
    15d2:	0004      	movs	r4, r0
    15d4:	4b06      	ldr	r3, [pc, #24]	; (15f0 <system_gclk_chan_enable+0x20>)
    15d6:	4798      	blx	r3
    15d8:	4b06      	ldr	r3, [pc, #24]	; (15f4 <system_gclk_chan_enable+0x24>)
    15da:	701c      	strb	r4, [r3, #0]
    15dc:	4a06      	ldr	r2, [pc, #24]	; (15f8 <system_gclk_chan_enable+0x28>)
    15de:	8851      	ldrh	r1, [r2, #2]
    15e0:	2380      	movs	r3, #128	; 0x80
    15e2:	01db      	lsls	r3, r3, #7
    15e4:	430b      	orrs	r3, r1
    15e6:	8053      	strh	r3, [r2, #2]
    15e8:	4b04      	ldr	r3, [pc, #16]	; (15fc <system_gclk_chan_enable+0x2c>)
    15ea:	4798      	blx	r3
    15ec:	bd10      	pop	{r4, pc}
    15ee:	46c0      	nop			; (mov r8, r8)
    15f0:	000001ad 	.word	0x000001ad
    15f4:	40000c02 	.word	0x40000c02
    15f8:	40000c00 	.word	0x40000c00
    15fc:	000001ed 	.word	0x000001ed

00001600 <system_gclk_chan_disable>:
    1600:	b510      	push	{r4, lr}
    1602:	0004      	movs	r4, r0
    1604:	4b0f      	ldr	r3, [pc, #60]	; (1644 <system_gclk_chan_disable+0x44>)
    1606:	4798      	blx	r3
    1608:	4b0f      	ldr	r3, [pc, #60]	; (1648 <system_gclk_chan_disable+0x48>)
    160a:	701c      	strb	r4, [r3, #0]
    160c:	4b0f      	ldr	r3, [pc, #60]	; (164c <system_gclk_chan_disable+0x4c>)
    160e:	885a      	ldrh	r2, [r3, #2]
    1610:	0512      	lsls	r2, r2, #20
    1612:	0f10      	lsrs	r0, r2, #28
    1614:	8859      	ldrh	r1, [r3, #2]
    1616:	4a0e      	ldr	r2, [pc, #56]	; (1650 <system_gclk_chan_disable+0x50>)
    1618:	400a      	ands	r2, r1
    161a:	805a      	strh	r2, [r3, #2]
    161c:	8859      	ldrh	r1, [r3, #2]
    161e:	4a0d      	ldr	r2, [pc, #52]	; (1654 <system_gclk_chan_disable+0x54>)
    1620:	400a      	ands	r2, r1
    1622:	805a      	strh	r2, [r3, #2]
    1624:	0019      	movs	r1, r3
    1626:	2280      	movs	r2, #128	; 0x80
    1628:	01d2      	lsls	r2, r2, #7
    162a:	884b      	ldrh	r3, [r1, #2]
    162c:	4213      	tst	r3, r2
    162e:	d1fc      	bne.n	162a <system_gclk_chan_disable+0x2a>
    1630:	4906      	ldr	r1, [pc, #24]	; (164c <system_gclk_chan_disable+0x4c>)
    1632:	884c      	ldrh	r4, [r1, #2]
    1634:	0202      	lsls	r2, r0, #8
    1636:	4b06      	ldr	r3, [pc, #24]	; (1650 <system_gclk_chan_disable+0x50>)
    1638:	4023      	ands	r3, r4
    163a:	4313      	orrs	r3, r2
    163c:	804b      	strh	r3, [r1, #2]
    163e:	4b06      	ldr	r3, [pc, #24]	; (1658 <system_gclk_chan_disable+0x58>)
    1640:	4798      	blx	r3
    1642:	bd10      	pop	{r4, pc}
    1644:	000001ad 	.word	0x000001ad
    1648:	40000c02 	.word	0x40000c02
    164c:	40000c00 	.word	0x40000c00
    1650:	fffff0ff 	.word	0xfffff0ff
    1654:	ffffbfff 	.word	0xffffbfff
    1658:	000001ed 	.word	0x000001ed

0000165c <system_gclk_chan_set_config>:
    165c:	b510      	push	{r4, lr}
    165e:	780c      	ldrb	r4, [r1, #0]
    1660:	0224      	lsls	r4, r4, #8
    1662:	4304      	orrs	r4, r0
    1664:	4b02      	ldr	r3, [pc, #8]	; (1670 <system_gclk_chan_set_config+0x14>)
    1666:	4798      	blx	r3
    1668:	b2a4      	uxth	r4, r4
    166a:	4b02      	ldr	r3, [pc, #8]	; (1674 <system_gclk_chan_set_config+0x18>)
    166c:	805c      	strh	r4, [r3, #2]
    166e:	bd10      	pop	{r4, pc}
    1670:	00001601 	.word	0x00001601
    1674:	40000c00 	.word	0x40000c00

00001678 <system_gclk_chan_get_hz>:
    1678:	b510      	push	{r4, lr}
    167a:	0004      	movs	r4, r0
    167c:	4b06      	ldr	r3, [pc, #24]	; (1698 <system_gclk_chan_get_hz+0x20>)
    167e:	4798      	blx	r3
    1680:	4b06      	ldr	r3, [pc, #24]	; (169c <system_gclk_chan_get_hz+0x24>)
    1682:	701c      	strb	r4, [r3, #0]
    1684:	4b06      	ldr	r3, [pc, #24]	; (16a0 <system_gclk_chan_get_hz+0x28>)
    1686:	885c      	ldrh	r4, [r3, #2]
    1688:	0524      	lsls	r4, r4, #20
    168a:	0f24      	lsrs	r4, r4, #28
    168c:	4b05      	ldr	r3, [pc, #20]	; (16a4 <system_gclk_chan_get_hz+0x2c>)
    168e:	4798      	blx	r3
    1690:	0020      	movs	r0, r4
    1692:	4b05      	ldr	r3, [pc, #20]	; (16a8 <system_gclk_chan_get_hz+0x30>)
    1694:	4798      	blx	r3
    1696:	bd10      	pop	{r4, pc}
    1698:	000001ad 	.word	0x000001ad
    169c:	40000c02 	.word	0x40000c02
    16a0:	40000c00 	.word	0x40000c00
    16a4:	000001ed 	.word	0x000001ed
    16a8:	00001545 	.word	0x00001545

000016ac <_system_pinmux_config>:
    16ac:	b530      	push	{r4, r5, lr}
    16ae:	78d3      	ldrb	r3, [r2, #3]
    16b0:	2b00      	cmp	r3, #0
    16b2:	d11e      	bne.n	16f2 <_system_pinmux_config+0x46>
    16b4:	7813      	ldrb	r3, [r2, #0]
    16b6:	2b80      	cmp	r3, #128	; 0x80
    16b8:	d004      	beq.n	16c4 <_system_pinmux_config+0x18>
    16ba:	061b      	lsls	r3, r3, #24
    16bc:	2480      	movs	r4, #128	; 0x80
    16be:	0264      	lsls	r4, r4, #9
    16c0:	4323      	orrs	r3, r4
    16c2:	e000      	b.n	16c6 <_system_pinmux_config+0x1a>
    16c4:	2300      	movs	r3, #0
    16c6:	7854      	ldrb	r4, [r2, #1]
    16c8:	2502      	movs	r5, #2
    16ca:	43ac      	bics	r4, r5
    16cc:	d10a      	bne.n	16e4 <_system_pinmux_config+0x38>
    16ce:	7894      	ldrb	r4, [r2, #2]
    16d0:	2c00      	cmp	r4, #0
    16d2:	d103      	bne.n	16dc <_system_pinmux_config+0x30>
    16d4:	2480      	movs	r4, #128	; 0x80
    16d6:	02a4      	lsls	r4, r4, #10
    16d8:	4323      	orrs	r3, r4
    16da:	e002      	b.n	16e2 <_system_pinmux_config+0x36>
    16dc:	24c0      	movs	r4, #192	; 0xc0
    16de:	02e4      	lsls	r4, r4, #11
    16e0:	4323      	orrs	r3, r4
    16e2:	6041      	str	r1, [r0, #4]
    16e4:	7854      	ldrb	r4, [r2, #1]
    16e6:	3c01      	subs	r4, #1
    16e8:	2c01      	cmp	r4, #1
    16ea:	d812      	bhi.n	1712 <_system_pinmux_config+0x66>
    16ec:	4c18      	ldr	r4, [pc, #96]	; (1750 <_system_pinmux_config+0xa4>)
    16ee:	4023      	ands	r3, r4
    16f0:	e00f      	b.n	1712 <_system_pinmux_config+0x66>
    16f2:	6041      	str	r1, [r0, #4]
    16f4:	040b      	lsls	r3, r1, #16
    16f6:	0c1b      	lsrs	r3, r3, #16
    16f8:	24a0      	movs	r4, #160	; 0xa0
    16fa:	05e4      	lsls	r4, r4, #23
    16fc:	4323      	orrs	r3, r4
    16fe:	6283      	str	r3, [r0, #40]	; 0x28
    1700:	0c0b      	lsrs	r3, r1, #16
    1702:	24d0      	movs	r4, #208	; 0xd0
    1704:	0624      	lsls	r4, r4, #24
    1706:	4323      	orrs	r3, r4
    1708:	6283      	str	r3, [r0, #40]	; 0x28
    170a:	78d3      	ldrb	r3, [r2, #3]
    170c:	2b00      	cmp	r3, #0
    170e:	d018      	beq.n	1742 <_system_pinmux_config+0x96>
    1710:	e01c      	b.n	174c <_system_pinmux_config+0xa0>
    1712:	040c      	lsls	r4, r1, #16
    1714:	0c24      	lsrs	r4, r4, #16
    1716:	25a0      	movs	r5, #160	; 0xa0
    1718:	05ed      	lsls	r5, r5, #23
    171a:	432c      	orrs	r4, r5
    171c:	431c      	orrs	r4, r3
    171e:	6284      	str	r4, [r0, #40]	; 0x28
    1720:	0c0c      	lsrs	r4, r1, #16
    1722:	25d0      	movs	r5, #208	; 0xd0
    1724:	062d      	lsls	r5, r5, #24
    1726:	432c      	orrs	r4, r5
    1728:	431c      	orrs	r4, r3
    172a:	6284      	str	r4, [r0, #40]	; 0x28
    172c:	78d4      	ldrb	r4, [r2, #3]
    172e:	2c00      	cmp	r4, #0
    1730:	d10c      	bne.n	174c <_system_pinmux_config+0xa0>
    1732:	035b      	lsls	r3, r3, #13
    1734:	d505      	bpl.n	1742 <_system_pinmux_config+0x96>
    1736:	7893      	ldrb	r3, [r2, #2]
    1738:	2b01      	cmp	r3, #1
    173a:	d101      	bne.n	1740 <_system_pinmux_config+0x94>
    173c:	6181      	str	r1, [r0, #24]
    173e:	e000      	b.n	1742 <_system_pinmux_config+0x96>
    1740:	6141      	str	r1, [r0, #20]
    1742:	7853      	ldrb	r3, [r2, #1]
    1744:	3b01      	subs	r3, #1
    1746:	2b01      	cmp	r3, #1
    1748:	d800      	bhi.n	174c <_system_pinmux_config+0xa0>
    174a:	6081      	str	r1, [r0, #8]
    174c:	bd30      	pop	{r4, r5, pc}
    174e:	46c0      	nop			; (mov r8, r8)
    1750:	fffbffff 	.word	0xfffbffff

00001754 <system_pinmux_pin_set_config>:
    1754:	b510      	push	{r4, lr}
    1756:	0003      	movs	r3, r0
    1758:	000a      	movs	r2, r1
    175a:	09c1      	lsrs	r1, r0, #7
    175c:	2000      	movs	r0, #0
    175e:	2900      	cmp	r1, #0
    1760:	d104      	bne.n	176c <system_pinmux_pin_set_config+0x18>
    1762:	0958      	lsrs	r0, r3, #5
    1764:	01c0      	lsls	r0, r0, #7
    1766:	4905      	ldr	r1, [pc, #20]	; (177c <system_pinmux_pin_set_config+0x28>)
    1768:	468c      	mov	ip, r1
    176a:	4460      	add	r0, ip
    176c:	211f      	movs	r1, #31
    176e:	400b      	ands	r3, r1
    1770:	391e      	subs	r1, #30
    1772:	4099      	lsls	r1, r3
    1774:	4b02      	ldr	r3, [pc, #8]	; (1780 <system_pinmux_pin_set_config+0x2c>)
    1776:	4798      	blx	r3
    1778:	bd10      	pop	{r4, pc}
    177a:	46c0      	nop			; (mov r8, r8)
    177c:	41004400 	.word	0x41004400
    1780:	000016ad 	.word	0x000016ad

00001784 <_system_dummy_init>:
    1784:	4770      	bx	lr
    1786:	46c0      	nop			; (mov r8, r8)

00001788 <system_init>:
    1788:	b510      	push	{r4, lr}
    178a:	4b05      	ldr	r3, [pc, #20]	; (17a0 <system_init+0x18>)
    178c:	4798      	blx	r3
    178e:	4b05      	ldr	r3, [pc, #20]	; (17a4 <system_init+0x1c>)
    1790:	4798      	blx	r3
    1792:	4b05      	ldr	r3, [pc, #20]	; (17a8 <system_init+0x20>)
    1794:	4798      	blx	r3
    1796:	4b05      	ldr	r3, [pc, #20]	; (17ac <system_init+0x24>)
    1798:	4798      	blx	r3
    179a:	4b05      	ldr	r3, [pc, #20]	; (17b0 <system_init+0x28>)
    179c:	4798      	blx	r3
    179e:	bd10      	pop	{r4, pc}
    17a0:	000012a1 	.word	0x000012a1
    17a4:	0000021d 	.word	0x0000021d
    17a8:	00001785 	.word	0x00001785
    17ac:	000002d5 	.word	0x000002d5
    17b0:	00001785 	.word	0x00001785

000017b4 <tc_register_callback>:
    17b4:	1c93      	adds	r3, r2, #2
    17b6:	009b      	lsls	r3, r3, #2
    17b8:	5019      	str	r1, [r3, r0]
    17ba:	2a02      	cmp	r2, #2
    17bc:	d104      	bne.n	17c8 <tc_register_callback+0x14>
    17be:	7e02      	ldrb	r2, [r0, #24]
    17c0:	2310      	movs	r3, #16
    17c2:	4313      	orrs	r3, r2
    17c4:	7603      	strb	r3, [r0, #24]
    17c6:	e00b      	b.n	17e0 <tc_register_callback+0x2c>
    17c8:	2a03      	cmp	r2, #3
    17ca:	d104      	bne.n	17d6 <tc_register_callback+0x22>
    17cc:	7e02      	ldrb	r2, [r0, #24]
    17ce:	2320      	movs	r3, #32
    17d0:	4313      	orrs	r3, r2
    17d2:	7603      	strb	r3, [r0, #24]
    17d4:	e004      	b.n	17e0 <tc_register_callback+0x2c>
    17d6:	2301      	movs	r3, #1
    17d8:	4093      	lsls	r3, r2
    17da:	7e02      	ldrb	r2, [r0, #24]
    17dc:	4313      	orrs	r3, r2
    17de:	7603      	strb	r3, [r0, #24]
    17e0:	2000      	movs	r0, #0
    17e2:	4770      	bx	lr

000017e4 <_tc_interrupt_handler>:
    17e4:	b570      	push	{r4, r5, r6, lr}
    17e6:	0080      	lsls	r0, r0, #2
    17e8:	4b14      	ldr	r3, [pc, #80]	; (183c <_tc_interrupt_handler+0x58>)
    17ea:	58c5      	ldr	r5, [r0, r3]
    17ec:	682b      	ldr	r3, [r5, #0]
    17ee:	7b9c      	ldrb	r4, [r3, #14]
    17f0:	7e2b      	ldrb	r3, [r5, #24]
    17f2:	401c      	ands	r4, r3
    17f4:	7e6b      	ldrb	r3, [r5, #25]
    17f6:	401c      	ands	r4, r3
    17f8:	07e3      	lsls	r3, r4, #31
    17fa:	d505      	bpl.n	1808 <_tc_interrupt_handler+0x24>
    17fc:	0028      	movs	r0, r5
    17fe:	68ab      	ldr	r3, [r5, #8]
    1800:	4798      	blx	r3
    1802:	2301      	movs	r3, #1
    1804:	682a      	ldr	r2, [r5, #0]
    1806:	7393      	strb	r3, [r2, #14]
    1808:	07a3      	lsls	r3, r4, #30
    180a:	d505      	bpl.n	1818 <_tc_interrupt_handler+0x34>
    180c:	0028      	movs	r0, r5
    180e:	68eb      	ldr	r3, [r5, #12]
    1810:	4798      	blx	r3
    1812:	2302      	movs	r3, #2
    1814:	682a      	ldr	r2, [r5, #0]
    1816:	7393      	strb	r3, [r2, #14]
    1818:	06e3      	lsls	r3, r4, #27
    181a:	d505      	bpl.n	1828 <_tc_interrupt_handler+0x44>
    181c:	0028      	movs	r0, r5
    181e:	692b      	ldr	r3, [r5, #16]
    1820:	4798      	blx	r3
    1822:	2310      	movs	r3, #16
    1824:	682a      	ldr	r2, [r5, #0]
    1826:	7393      	strb	r3, [r2, #14]
    1828:	06a3      	lsls	r3, r4, #26
    182a:	d505      	bpl.n	1838 <_tc_interrupt_handler+0x54>
    182c:	0028      	movs	r0, r5
    182e:	696b      	ldr	r3, [r5, #20]
    1830:	4798      	blx	r3
    1832:	682b      	ldr	r3, [r5, #0]
    1834:	2220      	movs	r2, #32
    1836:	739a      	strb	r2, [r3, #14]
    1838:	bd70      	pop	{r4, r5, r6, pc}
    183a:	46c0      	nop			; (mov r8, r8)
    183c:	20000fec 	.word	0x20000fec

00001840 <TC3_Handler>:
    1840:	b510      	push	{r4, lr}
    1842:	2000      	movs	r0, #0
    1844:	4b01      	ldr	r3, [pc, #4]	; (184c <TC3_Handler+0xc>)
    1846:	4798      	blx	r3
    1848:	bd10      	pop	{r4, pc}
    184a:	46c0      	nop			; (mov r8, r8)
    184c:	000017e5 	.word	0x000017e5

00001850 <TC4_Handler>:
    1850:	b510      	push	{r4, lr}
    1852:	2001      	movs	r0, #1
    1854:	4b01      	ldr	r3, [pc, #4]	; (185c <TC4_Handler+0xc>)
    1856:	4798      	blx	r3
    1858:	bd10      	pop	{r4, pc}
    185a:	46c0      	nop			; (mov r8, r8)
    185c:	000017e5 	.word	0x000017e5

00001860 <TC5_Handler>:
    1860:	b510      	push	{r4, lr}
    1862:	2002      	movs	r0, #2
    1864:	4b01      	ldr	r3, [pc, #4]	; (186c <TC5_Handler+0xc>)
    1866:	4798      	blx	r3
    1868:	bd10      	pop	{r4, pc}
    186a:	46c0      	nop			; (mov r8, r8)
    186c:	000017e5 	.word	0x000017e5

00001870 <TC6_Handler>:
    1870:	b510      	push	{r4, lr}
    1872:	2003      	movs	r0, #3
    1874:	4b01      	ldr	r3, [pc, #4]	; (187c <TC6_Handler+0xc>)
    1876:	4798      	blx	r3
    1878:	bd10      	pop	{r4, pc}
    187a:	46c0      	nop			; (mov r8, r8)
    187c:	000017e5 	.word	0x000017e5

00001880 <TC7_Handler>:
    1880:	b510      	push	{r4, lr}
    1882:	2004      	movs	r0, #4
    1884:	4b01      	ldr	r3, [pc, #4]	; (188c <TC7_Handler+0xc>)
    1886:	4798      	blx	r3
    1888:	bd10      	pop	{r4, pc}
    188a:	46c0      	nop			; (mov r8, r8)
    188c:	000017e5 	.word	0x000017e5

00001890 <_tc_get_inst_index>:
    1890:	b530      	push	{r4, r5, lr}
    1892:	b087      	sub	sp, #28
    1894:	a901      	add	r1, sp, #4
    1896:	4b0c      	ldr	r3, [pc, #48]	; (18c8 <_tc_get_inst_index+0x38>)
    1898:	000a      	movs	r2, r1
    189a:	cb32      	ldmia	r3!, {r1, r4, r5}
    189c:	c232      	stmia	r2!, {r1, r4, r5}
    189e:	cb12      	ldmia	r3!, {r1, r4}
    18a0:	c212      	stmia	r2!, {r1, r4}
    18a2:	9b01      	ldr	r3, [sp, #4]
    18a4:	4298      	cmp	r0, r3
    18a6:	d006      	beq.n	18b6 <_tc_get_inst_index+0x26>
    18a8:	2301      	movs	r3, #1
    18aa:	009a      	lsls	r2, r3, #2
    18ac:	a901      	add	r1, sp, #4
    18ae:	5852      	ldr	r2, [r2, r1]
    18b0:	4282      	cmp	r2, r0
    18b2:	d103      	bne.n	18bc <_tc_get_inst_index+0x2c>
    18b4:	e000      	b.n	18b8 <_tc_get_inst_index+0x28>
    18b6:	2300      	movs	r3, #0
    18b8:	b2d8      	uxtb	r0, r3
    18ba:	e003      	b.n	18c4 <_tc_get_inst_index+0x34>
    18bc:	3301      	adds	r3, #1
    18be:	2b05      	cmp	r3, #5
    18c0:	d1f3      	bne.n	18aa <_tc_get_inst_index+0x1a>
    18c2:	2000      	movs	r0, #0
    18c4:	b007      	add	sp, #28
    18c6:	bd30      	pop	{r4, r5, pc}
    18c8:	00008ff4 	.word	0x00008ff4

000018cc <tc_init>:
    18cc:	b5f0      	push	{r4, r5, r6, r7, lr}
    18ce:	464f      	mov	r7, r9
    18d0:	4646      	mov	r6, r8
    18d2:	b4c0      	push	{r6, r7}
    18d4:	b089      	sub	sp, #36	; 0x24
    18d6:	0004      	movs	r4, r0
    18d8:	000e      	movs	r6, r1
    18da:	4690      	mov	r8, r2
    18dc:	0008      	movs	r0, r1
    18de:	4b92      	ldr	r3, [pc, #584]	; (1b28 <tc_init+0x25c>)
    18e0:	4798      	blx	r3
    18e2:	4681      	mov	r9, r0
    18e4:	4d91      	ldr	r5, [pc, #580]	; (1b2c <tc_init+0x260>)
    18e6:	0029      	movs	r1, r5
    18e8:	3114      	adds	r1, #20
    18ea:	2205      	movs	r2, #5
    18ec:	a806      	add	r0, sp, #24
    18ee:	4f90      	ldr	r7, [pc, #576]	; (1b30 <tc_init+0x264>)
    18f0:	47b8      	blx	r7
    18f2:	0029      	movs	r1, r5
    18f4:	311c      	adds	r1, #28
    18f6:	220a      	movs	r2, #10
    18f8:	a803      	add	r0, sp, #12
    18fa:	47b8      	blx	r7
    18fc:	2300      	movs	r3, #0
    18fe:	60a3      	str	r3, [r4, #8]
    1900:	60e3      	str	r3, [r4, #12]
    1902:	6123      	str	r3, [r4, #16]
    1904:	6163      	str	r3, [r4, #20]
    1906:	7623      	strb	r3, [r4, #24]
    1908:	7663      	strb	r3, [r4, #25]
    190a:	464b      	mov	r3, r9
    190c:	009a      	lsls	r2, r3, #2
    190e:	4b89      	ldr	r3, [pc, #548]	; (1b34 <tc_init+0x268>)
    1910:	50d4      	str	r4, [r2, r3]
    1912:	6026      	str	r6, [r4, #0]
    1914:	4643      	mov	r3, r8
    1916:	789b      	ldrb	r3, [r3, #2]
    1918:	2b08      	cmp	r3, #8
    191a:	d104      	bne.n	1926 <tc_init+0x5a>
    191c:	2017      	movs	r0, #23
    191e:	464a      	mov	r2, r9
    1920:	07d2      	lsls	r2, r2, #31
    1922:	d400      	bmi.n	1926 <tc_init+0x5a>
    1924:	e0fb      	b.n	1b1e <tc_init+0x252>
    1926:	7123      	strb	r3, [r4, #4]
    1928:	8833      	ldrh	r3, [r6, #0]
    192a:	2005      	movs	r0, #5
    192c:	07db      	lsls	r3, r3, #31
    192e:	d500      	bpl.n	1932 <tc_init+0x66>
    1930:	e0f5      	b.n	1b1e <tc_init+0x252>
    1932:	7bf3      	ldrb	r3, [r6, #15]
    1934:	3017      	adds	r0, #23
    1936:	06db      	lsls	r3, r3, #27
    1938:	d500      	bpl.n	193c <tc_init+0x70>
    193a:	e0f0      	b.n	1b1e <tc_init+0x252>
    193c:	8833      	ldrh	r3, [r6, #0]
    193e:	079b      	lsls	r3, r3, #30
    1940:	d500      	bpl.n	1944 <tc_init+0x78>
    1942:	e0ec      	b.n	1b1e <tc_init+0x252>
    1944:	4643      	mov	r3, r8
    1946:	7c1b      	ldrb	r3, [r3, #16]
    1948:	2b00      	cmp	r3, #0
    194a:	d00c      	beq.n	1966 <tc_init+0x9a>
    194c:	a902      	add	r1, sp, #8
    194e:	2301      	movs	r3, #1
    1950:	708b      	strb	r3, [r1, #2]
    1952:	2200      	movs	r2, #0
    1954:	70ca      	strb	r2, [r1, #3]
    1956:	4642      	mov	r2, r8
    1958:	7e12      	ldrb	r2, [r2, #24]
    195a:	700a      	strb	r2, [r1, #0]
    195c:	704b      	strb	r3, [r1, #1]
    195e:	4643      	mov	r3, r8
    1960:	7d18      	ldrb	r0, [r3, #20]
    1962:	4b75      	ldr	r3, [pc, #468]	; (1b38 <tc_init+0x26c>)
    1964:	4798      	blx	r3
    1966:	4643      	mov	r3, r8
    1968:	7f1b      	ldrb	r3, [r3, #28]
    196a:	2b00      	cmp	r3, #0
    196c:	d00d      	beq.n	198a <tc_init+0xbe>
    196e:	a902      	add	r1, sp, #8
    1970:	2301      	movs	r3, #1
    1972:	708b      	strb	r3, [r1, #2]
    1974:	2200      	movs	r2, #0
    1976:	70ca      	strb	r2, [r1, #3]
    1978:	4642      	mov	r2, r8
    197a:	6a52      	ldr	r2, [r2, #36]	; 0x24
    197c:	700a      	strb	r2, [r1, #0]
    197e:	704b      	strb	r3, [r1, #1]
    1980:	4643      	mov	r3, r8
    1982:	6a1b      	ldr	r3, [r3, #32]
    1984:	b2d8      	uxtb	r0, r3
    1986:	4b6c      	ldr	r3, [pc, #432]	; (1b38 <tc_init+0x26c>)
    1988:	4798      	blx	r3
    198a:	496c      	ldr	r1, [pc, #432]	; (1b3c <tc_init+0x270>)
    198c:	6a0b      	ldr	r3, [r1, #32]
    198e:	464a      	mov	r2, r9
    1990:	0052      	lsls	r2, r2, #1
    1992:	a803      	add	r0, sp, #12
    1994:	5a12      	ldrh	r2, [r2, r0]
    1996:	4313      	orrs	r3, r2
    1998:	620b      	str	r3, [r1, #32]
    199a:	4643      	mov	r3, r8
    199c:	789b      	ldrb	r3, [r3, #2]
    199e:	2b08      	cmp	r3, #8
    19a0:	d106      	bne.n	19b0 <tc_init+0xe4>
    19a2:	6a0b      	ldr	r3, [r1, #32]
    19a4:	464a      	mov	r2, r9
    19a6:	3201      	adds	r2, #1
    19a8:	0052      	lsls	r2, r2, #1
    19aa:	5a12      	ldrh	r2, [r2, r0]
    19ac:	4313      	orrs	r3, r2
    19ae:	620b      	str	r3, [r1, #32]
    19b0:	a901      	add	r1, sp, #4
    19b2:	4643      	mov	r3, r8
    19b4:	781b      	ldrb	r3, [r3, #0]
    19b6:	700b      	strb	r3, [r1, #0]
    19b8:	ab06      	add	r3, sp, #24
    19ba:	464a      	mov	r2, r9
    19bc:	5c9d      	ldrb	r5, [r3, r2]
    19be:	0028      	movs	r0, r5
    19c0:	4b5f      	ldr	r3, [pc, #380]	; (1b40 <tc_init+0x274>)
    19c2:	4798      	blx	r3
    19c4:	0028      	movs	r0, r5
    19c6:	4b5f      	ldr	r3, [pc, #380]	; (1b44 <tc_init+0x278>)
    19c8:	4798      	blx	r3
    19ca:	4643      	mov	r3, r8
    19cc:	7898      	ldrb	r0, [r3, #2]
    19ce:	799b      	ldrb	r3, [r3, #6]
    19d0:	0002      	movs	r2, r0
    19d2:	431a      	orrs	r2, r3
    19d4:	4643      	mov	r3, r8
    19d6:	8918      	ldrh	r0, [r3, #8]
    19d8:	889b      	ldrh	r3, [r3, #4]
    19da:	4303      	orrs	r3, r0
    19dc:	431a      	orrs	r2, r3
    19de:	0010      	movs	r0, r2
    19e0:	4643      	mov	r3, r8
    19e2:	785b      	ldrb	r3, [r3, #1]
    19e4:	2b00      	cmp	r3, #0
    19e6:	d002      	beq.n	19ee <tc_init+0x122>
    19e8:	2380      	movs	r3, #128	; 0x80
    19ea:	011b      	lsls	r3, r3, #4
    19ec:	4318      	orrs	r0, r3
    19ee:	6821      	ldr	r1, [r4, #0]
    19f0:	227f      	movs	r2, #127	; 0x7f
    19f2:	7bcb      	ldrb	r3, [r1, #15]
    19f4:	4393      	bics	r3, r2
    19f6:	d1fc      	bne.n	19f2 <tc_init+0x126>
    19f8:	8030      	strh	r0, [r6, #0]
    19fa:	4643      	mov	r3, r8
    19fc:	7b58      	ldrb	r0, [r3, #13]
    19fe:	1e43      	subs	r3, r0, #1
    1a00:	4198      	sbcs	r0, r3
    1a02:	0080      	lsls	r0, r0, #2
    1a04:	4643      	mov	r3, r8
    1a06:	7b9b      	ldrb	r3, [r3, #14]
    1a08:	2b00      	cmp	r3, #0
    1a0a:	d001      	beq.n	1a10 <tc_init+0x144>
    1a0c:	2301      	movs	r3, #1
    1a0e:	4318      	orrs	r0, r3
    1a10:	6821      	ldr	r1, [r4, #0]
    1a12:	227f      	movs	r2, #127	; 0x7f
    1a14:	7bcb      	ldrb	r3, [r1, #15]
    1a16:	4393      	bics	r3, r2
    1a18:	d1fc      	bne.n	1a14 <tc_init+0x148>
    1a1a:	33ff      	adds	r3, #255	; 0xff
    1a1c:	7133      	strb	r3, [r6, #4]
    1a1e:	2800      	cmp	r0, #0
    1a20:	d005      	beq.n	1a2e <tc_init+0x162>
    1a22:	6821      	ldr	r1, [r4, #0]
    1a24:	227f      	movs	r2, #127	; 0x7f
    1a26:	7bcb      	ldrb	r3, [r1, #15]
    1a28:	4393      	bics	r3, r2
    1a2a:	d1fc      	bne.n	1a26 <tc_init+0x15a>
    1a2c:	7170      	strb	r0, [r6, #5]
    1a2e:	4643      	mov	r3, r8
    1a30:	7a98      	ldrb	r0, [r3, #10]
    1a32:	7adb      	ldrb	r3, [r3, #11]
    1a34:	2b00      	cmp	r3, #0
    1a36:	d001      	beq.n	1a3c <tc_init+0x170>
    1a38:	2310      	movs	r3, #16
    1a3a:	4318      	orrs	r0, r3
    1a3c:	4643      	mov	r3, r8
    1a3e:	7b1b      	ldrb	r3, [r3, #12]
    1a40:	2b00      	cmp	r3, #0
    1a42:	d001      	beq.n	1a48 <tc_init+0x17c>
    1a44:	2320      	movs	r3, #32
    1a46:	4318      	orrs	r0, r3
    1a48:	6821      	ldr	r1, [r4, #0]
    1a4a:	227f      	movs	r2, #127	; 0x7f
    1a4c:	7bcb      	ldrb	r3, [r1, #15]
    1a4e:	4393      	bics	r3, r2
    1a50:	d1fc      	bne.n	1a4c <tc_init+0x180>
    1a52:	71b0      	strb	r0, [r6, #6]
    1a54:	6822      	ldr	r2, [r4, #0]
    1a56:	217f      	movs	r1, #127	; 0x7f
    1a58:	7bd3      	ldrb	r3, [r2, #15]
    1a5a:	438b      	bics	r3, r1
    1a5c:	d1fc      	bne.n	1a58 <tc_init+0x18c>
    1a5e:	7923      	ldrb	r3, [r4, #4]
    1a60:	2b04      	cmp	r3, #4
    1a62:	d005      	beq.n	1a70 <tc_init+0x1a4>
    1a64:	2b08      	cmp	r3, #8
    1a66:	d041      	beq.n	1aec <tc_init+0x220>
    1a68:	2017      	movs	r0, #23
    1a6a:	2b00      	cmp	r3, #0
    1a6c:	d157      	bne.n	1b1e <tc_init+0x252>
    1a6e:	e024      	b.n	1aba <tc_init+0x1ee>
    1a70:	217f      	movs	r1, #127	; 0x7f
    1a72:	7bd3      	ldrb	r3, [r2, #15]
    1a74:	438b      	bics	r3, r1
    1a76:	d1fc      	bne.n	1a72 <tc_init+0x1a6>
    1a78:	3328      	adds	r3, #40	; 0x28
    1a7a:	4642      	mov	r2, r8
    1a7c:	5cd3      	ldrb	r3, [r2, r3]
    1a7e:	7433      	strb	r3, [r6, #16]
    1a80:	6821      	ldr	r1, [r4, #0]
    1a82:	227f      	movs	r2, #127	; 0x7f
    1a84:	7bcb      	ldrb	r3, [r1, #15]
    1a86:	4393      	bics	r3, r2
    1a88:	d1fc      	bne.n	1a84 <tc_init+0x1b8>
    1a8a:	3329      	adds	r3, #41	; 0x29
    1a8c:	4642      	mov	r2, r8
    1a8e:	5cd3      	ldrb	r3, [r2, r3]
    1a90:	7533      	strb	r3, [r6, #20]
    1a92:	6821      	ldr	r1, [r4, #0]
    1a94:	227f      	movs	r2, #127	; 0x7f
    1a96:	7bcb      	ldrb	r3, [r1, #15]
    1a98:	4393      	bics	r3, r2
    1a9a:	d1fc      	bne.n	1a96 <tc_init+0x1ca>
    1a9c:	332a      	adds	r3, #42	; 0x2a
    1a9e:	4642      	mov	r2, r8
    1aa0:	5cd3      	ldrb	r3, [r2, r3]
    1aa2:	7633      	strb	r3, [r6, #24]
    1aa4:	6821      	ldr	r1, [r4, #0]
    1aa6:	227f      	movs	r2, #127	; 0x7f
    1aa8:	7bcb      	ldrb	r3, [r1, #15]
    1aaa:	4393      	bics	r3, r2
    1aac:	d1fc      	bne.n	1aa8 <tc_init+0x1dc>
    1aae:	332b      	adds	r3, #43	; 0x2b
    1ab0:	4642      	mov	r2, r8
    1ab2:	5cd3      	ldrb	r3, [r2, r3]
    1ab4:	7673      	strb	r3, [r6, #25]
    1ab6:	2000      	movs	r0, #0
    1ab8:	e031      	b.n	1b1e <tc_init+0x252>
    1aba:	217f      	movs	r1, #127	; 0x7f
    1abc:	7bd3      	ldrb	r3, [r2, #15]
    1abe:	438b      	bics	r3, r1
    1ac0:	d1fc      	bne.n	1abc <tc_init+0x1f0>
    1ac2:	4643      	mov	r3, r8
    1ac4:	8d1b      	ldrh	r3, [r3, #40]	; 0x28
    1ac6:	8233      	strh	r3, [r6, #16]
    1ac8:	6821      	ldr	r1, [r4, #0]
    1aca:	227f      	movs	r2, #127	; 0x7f
    1acc:	7bcb      	ldrb	r3, [r1, #15]
    1ace:	4393      	bics	r3, r2
    1ad0:	d1fc      	bne.n	1acc <tc_init+0x200>
    1ad2:	4643      	mov	r3, r8
    1ad4:	8d5b      	ldrh	r3, [r3, #42]	; 0x2a
    1ad6:	8333      	strh	r3, [r6, #24]
    1ad8:	6821      	ldr	r1, [r4, #0]
    1ada:	227f      	movs	r2, #127	; 0x7f
    1adc:	7bcb      	ldrb	r3, [r1, #15]
    1ade:	4393      	bics	r3, r2
    1ae0:	d1fc      	bne.n	1adc <tc_init+0x210>
    1ae2:	4643      	mov	r3, r8
    1ae4:	8d9b      	ldrh	r3, [r3, #44]	; 0x2c
    1ae6:	8373      	strh	r3, [r6, #26]
    1ae8:	2000      	movs	r0, #0
    1aea:	e018      	b.n	1b1e <tc_init+0x252>
    1aec:	217f      	movs	r1, #127	; 0x7f
    1aee:	7bd3      	ldrb	r3, [r2, #15]
    1af0:	438b      	bics	r3, r1
    1af2:	d1fc      	bne.n	1aee <tc_init+0x222>
    1af4:	4643      	mov	r3, r8
    1af6:	6a9b      	ldr	r3, [r3, #40]	; 0x28
    1af8:	6133      	str	r3, [r6, #16]
    1afa:	6821      	ldr	r1, [r4, #0]
    1afc:	227f      	movs	r2, #127	; 0x7f
    1afe:	7bcb      	ldrb	r3, [r1, #15]
    1b00:	4393      	bics	r3, r2
    1b02:	d1fc      	bne.n	1afe <tc_init+0x232>
    1b04:	4643      	mov	r3, r8
    1b06:	6adb      	ldr	r3, [r3, #44]	; 0x2c
    1b08:	61b3      	str	r3, [r6, #24]
    1b0a:	6821      	ldr	r1, [r4, #0]
    1b0c:	227f      	movs	r2, #127	; 0x7f
    1b0e:	7bcb      	ldrb	r3, [r1, #15]
    1b10:	4393      	bics	r3, r2
    1b12:	d1fc      	bne.n	1b0e <tc_init+0x242>
    1b14:	4643      	mov	r3, r8
    1b16:	6b1b      	ldr	r3, [r3, #48]	; 0x30
    1b18:	61f3      	str	r3, [r6, #28]
    1b1a:	2000      	movs	r0, #0
    1b1c:	e7ff      	b.n	1b1e <tc_init+0x252>
    1b1e:	b009      	add	sp, #36	; 0x24
    1b20:	bc0c      	pop	{r2, r3}
    1b22:	4690      	mov	r8, r2
    1b24:	4699      	mov	r9, r3
    1b26:	bdf0      	pop	{r4, r5, r6, r7, pc}
    1b28:	00001891 	.word	0x00001891
    1b2c:	00008ff4 	.word	0x00008ff4
    1b30:	00007dbf 	.word	0x00007dbf
    1b34:	20000fec 	.word	0x20000fec
    1b38:	00001755 	.word	0x00001755
    1b3c:	40000400 	.word	0x40000400
    1b40:	0000165d 	.word	0x0000165d
    1b44:	000015d1 	.word	0x000015d1

00001b48 <tc_set_count_value>:
    1b48:	b510      	push	{r4, lr}
    1b4a:	6802      	ldr	r2, [r0, #0]
    1b4c:	247f      	movs	r4, #127	; 0x7f
    1b4e:	7bd3      	ldrb	r3, [r2, #15]
    1b50:	43a3      	bics	r3, r4
    1b52:	d1fc      	bne.n	1b4e <tc_set_count_value+0x6>
    1b54:	7903      	ldrb	r3, [r0, #4]
    1b56:	2b04      	cmp	r3, #4
    1b58:	d005      	beq.n	1b66 <tc_set_count_value+0x1e>
    1b5a:	2b08      	cmp	r3, #8
    1b5c:	d00b      	beq.n	1b76 <tc_set_count_value+0x2e>
    1b5e:	2017      	movs	r0, #23
    1b60:	2b00      	cmp	r3, #0
    1b62:	d10b      	bne.n	1b7c <tc_set_count_value+0x34>
    1b64:	e003      	b.n	1b6e <tc_set_count_value+0x26>
    1b66:	b2c9      	uxtb	r1, r1
    1b68:	7411      	strb	r1, [r2, #16]
    1b6a:	2000      	movs	r0, #0
    1b6c:	e006      	b.n	1b7c <tc_set_count_value+0x34>
    1b6e:	b289      	uxth	r1, r1
    1b70:	8211      	strh	r1, [r2, #16]
    1b72:	2000      	movs	r0, #0
    1b74:	e002      	b.n	1b7c <tc_set_count_value+0x34>
    1b76:	6111      	str	r1, [r2, #16]
    1b78:	2000      	movs	r0, #0
    1b7a:	e7ff      	b.n	1b7c <tc_set_count_value+0x34>
    1b7c:	bd10      	pop	{r4, pc}
    1b7e:	46c0      	nop			; (mov r8, r8)

00001b80 <tc_reset>:
    1b80:	6802      	ldr	r2, [r0, #0]
    1b82:	7bd1      	ldrb	r1, [r2, #15]
    1b84:	2315      	movs	r3, #21
    1b86:	06c9      	lsls	r1, r1, #27
    1b88:	d417      	bmi.n	1bba <tc_reset+0x3a>
    1b8a:	8813      	ldrh	r3, [r2, #0]
    1b8c:	079b      	lsls	r3, r3, #30
    1b8e:	d50f      	bpl.n	1bb0 <tc_reset+0x30>
    1b90:	217f      	movs	r1, #127	; 0x7f
    1b92:	7bd3      	ldrb	r3, [r2, #15]
    1b94:	438b      	bics	r3, r1
    1b96:	d1fc      	bne.n	1b92 <tc_reset+0x12>
    1b98:	333b      	adds	r3, #59	; 0x3b
    1b9a:	7313      	strb	r3, [r2, #12]
    1b9c:	7393      	strb	r3, [r2, #14]
    1b9e:	8813      	ldrh	r3, [r2, #0]
    1ba0:	2102      	movs	r1, #2
    1ba2:	438b      	bics	r3, r1
    1ba4:	8013      	strh	r3, [r2, #0]
    1ba6:	6800      	ldr	r0, [r0, #0]
    1ba8:	317d      	adds	r1, #125	; 0x7d
    1baa:	7bc3      	ldrb	r3, [r0, #15]
    1bac:	438b      	bics	r3, r1
    1bae:	d1fc      	bne.n	1baa <tc_reset+0x2a>
    1bb0:	8811      	ldrh	r1, [r2, #0]
    1bb2:	2301      	movs	r3, #1
    1bb4:	430b      	orrs	r3, r1
    1bb6:	8013      	strh	r3, [r2, #0]
    1bb8:	2300      	movs	r3, #0
    1bba:	0018      	movs	r0, r3
    1bbc:	4770      	bx	lr
    1bbe:	46c0      	nop			; (mov r8, r8)

00001bc0 <Dummy_Handler>:
    1bc0:	e7fe      	b.n	1bc0 <Dummy_Handler>
    1bc2:	46c0      	nop			; (mov r8, r8)

00001bc4 <Reset_Handler>:
    1bc4:	b570      	push	{r4, r5, r6, lr}
    1bc6:	4b2e      	ldr	r3, [pc, #184]	; (1c80 <Reset_Handler+0xbc>)
    1bc8:	4a2e      	ldr	r2, [pc, #184]	; (1c84 <Reset_Handler+0xc0>)
    1bca:	429a      	cmp	r2, r3
    1bcc:	d003      	beq.n	1bd6 <Reset_Handler+0x12>
    1bce:	4b2e      	ldr	r3, [pc, #184]	; (1c88 <Reset_Handler+0xc4>)
    1bd0:	4a2b      	ldr	r2, [pc, #172]	; (1c80 <Reset_Handler+0xbc>)
    1bd2:	429a      	cmp	r2, r3
    1bd4:	d304      	bcc.n	1be0 <Reset_Handler+0x1c>
    1bd6:	4b2d      	ldr	r3, [pc, #180]	; (1c8c <Reset_Handler+0xc8>)
    1bd8:	4a2d      	ldr	r2, [pc, #180]	; (1c90 <Reset_Handler+0xcc>)
    1bda:	429a      	cmp	r2, r3
    1bdc:	d310      	bcc.n	1c00 <Reset_Handler+0x3c>
    1bde:	e01e      	b.n	1c1e <Reset_Handler+0x5a>
    1be0:	4a2c      	ldr	r2, [pc, #176]	; (1c94 <Reset_Handler+0xd0>)
    1be2:	4b29      	ldr	r3, [pc, #164]	; (1c88 <Reset_Handler+0xc4>)
    1be4:	3303      	adds	r3, #3
    1be6:	1a9b      	subs	r3, r3, r2
    1be8:	089b      	lsrs	r3, r3, #2
    1bea:	3301      	adds	r3, #1
    1bec:	009b      	lsls	r3, r3, #2
    1bee:	2200      	movs	r2, #0
    1bf0:	4823      	ldr	r0, [pc, #140]	; (1c80 <Reset_Handler+0xbc>)
    1bf2:	4924      	ldr	r1, [pc, #144]	; (1c84 <Reset_Handler+0xc0>)
    1bf4:	588c      	ldr	r4, [r1, r2]
    1bf6:	5084      	str	r4, [r0, r2]
    1bf8:	3204      	adds	r2, #4
    1bfa:	429a      	cmp	r2, r3
    1bfc:	d1fa      	bne.n	1bf4 <Reset_Handler+0x30>
    1bfe:	e7ea      	b.n	1bd6 <Reset_Handler+0x12>
    1c00:	4a25      	ldr	r2, [pc, #148]	; (1c98 <Reset_Handler+0xd4>)
    1c02:	4b22      	ldr	r3, [pc, #136]	; (1c8c <Reset_Handler+0xc8>)
    1c04:	3303      	adds	r3, #3
    1c06:	1a9b      	subs	r3, r3, r2
    1c08:	089b      	lsrs	r3, r3, #2
    1c0a:	3301      	adds	r3, #1
    1c0c:	009b      	lsls	r3, r3, #2
    1c0e:	2200      	movs	r2, #0
    1c10:	481f      	ldr	r0, [pc, #124]	; (1c90 <Reset_Handler+0xcc>)
    1c12:	2100      	movs	r1, #0
    1c14:	1814      	adds	r4, r2, r0
    1c16:	6021      	str	r1, [r4, #0]
    1c18:	3204      	adds	r2, #4
    1c1a:	429a      	cmp	r2, r3
    1c1c:	d1fa      	bne.n	1c14 <Reset_Handler+0x50>
    1c1e:	4a1f      	ldr	r2, [pc, #124]	; (1c9c <Reset_Handler+0xd8>)
    1c20:	21ff      	movs	r1, #255	; 0xff
    1c22:	4b1f      	ldr	r3, [pc, #124]	; (1ca0 <Reset_Handler+0xdc>)
    1c24:	438b      	bics	r3, r1
    1c26:	6093      	str	r3, [r2, #8]
    1c28:	39fd      	subs	r1, #253	; 0xfd
    1c2a:	2390      	movs	r3, #144	; 0x90
    1c2c:	005b      	lsls	r3, r3, #1
    1c2e:	4a1d      	ldr	r2, [pc, #116]	; (1ca4 <Reset_Handler+0xe0>)
    1c30:	50d1      	str	r1, [r2, r3]
    1c32:	481d      	ldr	r0, [pc, #116]	; (1ca8 <Reset_Handler+0xe4>)
    1c34:	78c3      	ldrb	r3, [r0, #3]
    1c36:	2403      	movs	r4, #3
    1c38:	43a3      	bics	r3, r4
    1c3a:	2202      	movs	r2, #2
    1c3c:	4313      	orrs	r3, r2
    1c3e:	70c3      	strb	r3, [r0, #3]
    1c40:	78c3      	ldrb	r3, [r0, #3]
    1c42:	260c      	movs	r6, #12
    1c44:	43b3      	bics	r3, r6
    1c46:	2108      	movs	r1, #8
    1c48:	430b      	orrs	r3, r1
    1c4a:	70c3      	strb	r3, [r0, #3]
    1c4c:	4b17      	ldr	r3, [pc, #92]	; (1cac <Reset_Handler+0xe8>)
    1c4e:	7b98      	ldrb	r0, [r3, #14]
    1c50:	2530      	movs	r5, #48	; 0x30
    1c52:	43a8      	bics	r0, r5
    1c54:	0005      	movs	r5, r0
    1c56:	2020      	movs	r0, #32
    1c58:	4328      	orrs	r0, r5
    1c5a:	7398      	strb	r0, [r3, #14]
    1c5c:	7b98      	ldrb	r0, [r3, #14]
    1c5e:	43b0      	bics	r0, r6
    1c60:	4301      	orrs	r1, r0
    1c62:	7399      	strb	r1, [r3, #14]
    1c64:	7b99      	ldrb	r1, [r3, #14]
    1c66:	43a1      	bics	r1, r4
    1c68:	430a      	orrs	r2, r1
    1c6a:	739a      	strb	r2, [r3, #14]
    1c6c:	4a10      	ldr	r2, [pc, #64]	; (1cb0 <Reset_Handler+0xec>)
    1c6e:	6851      	ldr	r1, [r2, #4]
    1c70:	2380      	movs	r3, #128	; 0x80
    1c72:	430b      	orrs	r3, r1
    1c74:	6053      	str	r3, [r2, #4]
    1c76:	4b0f      	ldr	r3, [pc, #60]	; (1cb4 <Reset_Handler+0xf0>)
    1c78:	4798      	blx	r3
    1c7a:	4b0f      	ldr	r3, [pc, #60]	; (1cb8 <Reset_Handler+0xf4>)
    1c7c:	4798      	blx	r3
    1c7e:	e7fe      	b.n	1c7e <Reset_Handler+0xba>
    1c80:	20000000 	.word	0x20000000
    1c84:	0000cf64 	.word	0x0000cf64
    1c88:	20000154 	.word	0x20000154
    1c8c:	200023d8 	.word	0x200023d8
    1c90:	20000154 	.word	0x20000154
    1c94:	20000004 	.word	0x20000004
    1c98:	20000158 	.word	0x20000158
    1c9c:	e000ed00 	.word	0xe000ed00
    1ca0:	00000000 	.word	0x00000000
    1ca4:	41007000 	.word	0x41007000
    1ca8:	41005000 	.word	0x41005000
    1cac:	41004800 	.word	0x41004800
    1cb0:	41004000 	.word	0x41004000
    1cb4:	00007d55 	.word	0x00007d55
    1cb8:	000039e9 	.word	0x000039e9

00001cbc <_read>:
    1cbc:	b5f0      	push	{r4, r5, r6, r7, lr}
    1cbe:	4647      	mov	r7, r8
    1cc0:	b480      	push	{r7}
    1cc2:	000c      	movs	r4, r1
    1cc4:	4690      	mov	r8, r2
    1cc6:	2800      	cmp	r0, #0
    1cc8:	d10d      	bne.n	1ce6 <_read+0x2a>
    1cca:	2a00      	cmp	r2, #0
    1ccc:	dd0e      	ble.n	1cec <_read+0x30>
    1cce:	188f      	adds	r7, r1, r2
    1cd0:	4e08      	ldr	r6, [pc, #32]	; (1cf4 <_read+0x38>)
    1cd2:	4d09      	ldr	r5, [pc, #36]	; (1cf8 <_read+0x3c>)
    1cd4:	6830      	ldr	r0, [r6, #0]
    1cd6:	0021      	movs	r1, r4
    1cd8:	682b      	ldr	r3, [r5, #0]
    1cda:	4798      	blx	r3
    1cdc:	3401      	adds	r4, #1
    1cde:	42a7      	cmp	r7, r4
    1ce0:	d1f8      	bne.n	1cd4 <_read+0x18>
    1ce2:	4640      	mov	r0, r8
    1ce4:	e003      	b.n	1cee <_read+0x32>
    1ce6:	2001      	movs	r0, #1
    1ce8:	4240      	negs	r0, r0
    1cea:	e000      	b.n	1cee <_read+0x32>
    1cec:	2000      	movs	r0, #0
    1cee:	bc04      	pop	{r2}
    1cf0:	4690      	mov	r8, r2
    1cf2:	bdf0      	pop	{r4, r5, r6, r7, pc}
    1cf4:	20001008 	.word	0x20001008
    1cf8:	20001000 	.word	0x20001000

00001cfc <_write>:
    1cfc:	b5f0      	push	{r4, r5, r6, r7, lr}
    1cfe:	4647      	mov	r7, r8
    1d00:	b480      	push	{r7}
    1d02:	000e      	movs	r6, r1
    1d04:	0015      	movs	r5, r2
    1d06:	3801      	subs	r0, #1
    1d08:	2802      	cmp	r0, #2
    1d0a:	d811      	bhi.n	1d30 <_write+0x34>
    1d0c:	2a00      	cmp	r2, #0
    1d0e:	d012      	beq.n	1d36 <_write+0x3a>
    1d10:	2400      	movs	r4, #0
    1d12:	4b0c      	ldr	r3, [pc, #48]	; (1d44 <_write+0x48>)
    1d14:	4698      	mov	r8, r3
    1d16:	4f0c      	ldr	r7, [pc, #48]	; (1d48 <_write+0x4c>)
    1d18:	4643      	mov	r3, r8
    1d1a:	6818      	ldr	r0, [r3, #0]
    1d1c:	5d31      	ldrb	r1, [r6, r4]
    1d1e:	683b      	ldr	r3, [r7, #0]
    1d20:	4798      	blx	r3
    1d22:	2800      	cmp	r0, #0
    1d24:	db09      	blt.n	1d3a <_write+0x3e>
    1d26:	3401      	adds	r4, #1
    1d28:	42a5      	cmp	r5, r4
    1d2a:	d1f5      	bne.n	1d18 <_write+0x1c>
    1d2c:	0020      	movs	r0, r4
    1d2e:	e006      	b.n	1d3e <_write+0x42>
    1d30:	2001      	movs	r0, #1
    1d32:	4240      	negs	r0, r0
    1d34:	e003      	b.n	1d3e <_write+0x42>
    1d36:	2000      	movs	r0, #0
    1d38:	e001      	b.n	1d3e <_write+0x42>
    1d3a:	2001      	movs	r0, #1
    1d3c:	4240      	negs	r0, r0
    1d3e:	bc04      	pop	{r2}
    1d40:	4690      	mov	r8, r2
    1d42:	bdf0      	pop	{r4, r5, r6, r7, pc}
    1d44:	20001008 	.word	0x20001008
    1d48:	20001004 	.word	0x20001004

00001d4c <_sbrk>:
    1d4c:	0003      	movs	r3, r0
    1d4e:	4a06      	ldr	r2, [pc, #24]	; (1d68 <_sbrk+0x1c>)
    1d50:	6812      	ldr	r2, [r2, #0]
    1d52:	2a00      	cmp	r2, #0
    1d54:	d102      	bne.n	1d5c <_sbrk+0x10>
    1d56:	4905      	ldr	r1, [pc, #20]	; (1d6c <_sbrk+0x20>)
    1d58:	4a03      	ldr	r2, [pc, #12]	; (1d68 <_sbrk+0x1c>)
    1d5a:	6011      	str	r1, [r2, #0]
    1d5c:	4a02      	ldr	r2, [pc, #8]	; (1d68 <_sbrk+0x1c>)
    1d5e:	6810      	ldr	r0, [r2, #0]
    1d60:	18c3      	adds	r3, r0, r3
    1d62:	6013      	str	r3, [r2, #0]
    1d64:	4770      	bx	lr
    1d66:	46c0      	nop			; (mov r8, r8)
    1d68:	200001ac 	.word	0x200001ac
    1d6c:	200043d8 	.word	0x200043d8

00001d70 <_close>:
    1d70:	2001      	movs	r0, #1
    1d72:	4240      	negs	r0, r0
    1d74:	4770      	bx	lr
    1d76:	46c0      	nop			; (mov r8, r8)

00001d78 <_fstat>:
    1d78:	2380      	movs	r3, #128	; 0x80
    1d7a:	019b      	lsls	r3, r3, #6
    1d7c:	604b      	str	r3, [r1, #4]
    1d7e:	2000      	movs	r0, #0
    1d80:	4770      	bx	lr
    1d82:	46c0      	nop			; (mov r8, r8)

00001d84 <_isatty>:
    1d84:	2001      	movs	r0, #1
    1d86:	4770      	bx	lr

00001d88 <_lseek>:
    1d88:	2000      	movs	r0, #0
    1d8a:	4770      	bx	lr

00001d8c <usart_serial_getchar>:
    1d8c:	b570      	push	{r4, r5, r6, lr}
    1d8e:	b082      	sub	sp, #8
    1d90:	0005      	movs	r5, r0
    1d92:	000e      	movs	r6, r1
    1d94:	2200      	movs	r2, #0
    1d96:	466b      	mov	r3, sp
    1d98:	80da      	strh	r2, [r3, #6]
    1d9a:	4c06      	ldr	r4, [pc, #24]	; (1db4 <usart_serial_getchar+0x28>)
    1d9c:	466b      	mov	r3, sp
    1d9e:	1d99      	adds	r1, r3, #6
    1da0:	0028      	movs	r0, r5
    1da2:	47a0      	blx	r4
    1da4:	2800      	cmp	r0, #0
    1da6:	d1f9      	bne.n	1d9c <usart_serial_getchar+0x10>
    1da8:	466b      	mov	r3, sp
    1daa:	3306      	adds	r3, #6
    1dac:	881b      	ldrh	r3, [r3, #0]
    1dae:	7033      	strb	r3, [r6, #0]
    1db0:	b002      	add	sp, #8
    1db2:	bd70      	pop	{r4, r5, r6, pc}
    1db4:	00000b95 	.word	0x00000b95

00001db8 <usart_serial_putchar>:
    1db8:	b570      	push	{r4, r5, r6, lr}
    1dba:	0005      	movs	r5, r0
    1dbc:	b28c      	uxth	r4, r1
    1dbe:	4e03      	ldr	r6, [pc, #12]	; (1dcc <usart_serial_putchar+0x14>)
    1dc0:	0021      	movs	r1, r4
    1dc2:	0028      	movs	r0, r5
    1dc4:	47b0      	blx	r6
    1dc6:	2800      	cmp	r0, #0
    1dc8:	d1fa      	bne.n	1dc0 <usart_serial_putchar+0x8>
    1dca:	bd70      	pop	{r4, r5, r6, pc}
    1dcc:	00000b69 	.word	0x00000b69

00001dd0 <USART_HOST_ISR_VECT>:
    1dd0:	b510      	push	{r4, lr}
    1dd2:	b082      	sub	sp, #8
    1dd4:	466b      	mov	r3, sp
    1dd6:	1ddc      	adds	r4, r3, #7
    1dd8:	2201      	movs	r2, #1
    1dda:	0021      	movs	r1, r4
    1ddc:	480f      	ldr	r0, [pc, #60]	; (1e1c <USART_HOST_ISR_VECT+0x4c>)
    1dde:	4b10      	ldr	r3, [pc, #64]	; (1e20 <USART_HOST_ISR_VECT+0x50>)
    1de0:	4798      	blx	r3
    1de2:	b672      	cpsid	i
    1de4:	f3bf 8f5f 	dmb	sy
    1de8:	2200      	movs	r2, #0
    1dea:	4b0e      	ldr	r3, [pc, #56]	; (1e24 <USART_HOST_ISR_VECT+0x54>)
    1dec:	701a      	strb	r2, [r3, #0]
    1dee:	4b0e      	ldr	r3, [pc, #56]	; (1e28 <USART_HOST_ISR_VECT+0x58>)
    1df0:	781b      	ldrb	r3, [r3, #0]
    1df2:	7821      	ldrb	r1, [r4, #0]
    1df4:	4a0d      	ldr	r2, [pc, #52]	; (1e2c <USART_HOST_ISR_VECT+0x5c>)
    1df6:	54d1      	strb	r1, [r2, r3]
    1df8:	2b9b      	cmp	r3, #155	; 0x9b
    1dfa:	d103      	bne.n	1e04 <USART_HOST_ISR_VECT+0x34>
    1dfc:	2200      	movs	r2, #0
    1dfe:	4b0a      	ldr	r3, [pc, #40]	; (1e28 <USART_HOST_ISR_VECT+0x58>)
    1e00:	701a      	strb	r2, [r3, #0]
    1e02:	e002      	b.n	1e0a <USART_HOST_ISR_VECT+0x3a>
    1e04:	3301      	adds	r3, #1
    1e06:	4a08      	ldr	r2, [pc, #32]	; (1e28 <USART_HOST_ISR_VECT+0x58>)
    1e08:	7013      	strb	r3, [r2, #0]
    1e0a:	2201      	movs	r2, #1
    1e0c:	4b05      	ldr	r3, [pc, #20]	; (1e24 <USART_HOST_ISR_VECT+0x54>)
    1e0e:	701a      	strb	r2, [r3, #0]
    1e10:	f3bf 8f5f 	dmb	sy
    1e14:	b662      	cpsie	i
    1e16:	b002      	add	sp, #8
    1e18:	bd10      	pop	{r4, pc}
    1e1a:	46c0      	nop			; (mov r8, r8)
    1e1c:	20000250 	.word	0x20000250
    1e20:	00000cbd 	.word	0x00000cbd
    1e24:	20000008 	.word	0x20000008
    1e28:	20000284 	.word	0x20000284
    1e2c:	200001b4 	.word	0x200001b4

00001e30 <sio2host_init>:
    1e30:	b5f0      	push	{r4, r5, r6, r7, lr}
    1e32:	b091      	sub	sp, #68	; 0x44
    1e34:	2380      	movs	r3, #128	; 0x80
    1e36:	05db      	lsls	r3, r3, #23
    1e38:	9300      	str	r3, [sp, #0]
    1e3a:	2300      	movs	r3, #0
    1e3c:	9301      	str	r3, [sp, #4]
    1e3e:	22ff      	movs	r2, #255	; 0xff
    1e40:	4669      	mov	r1, sp
    1e42:	810a      	strh	r2, [r1, #8]
    1e44:	2200      	movs	r2, #0
    1e46:	728b      	strb	r3, [r1, #10]
    1e48:	72cb      	strb	r3, [r1, #11]
    1e4a:	2401      	movs	r4, #1
    1e4c:	2124      	movs	r1, #36	; 0x24
    1e4e:	4668      	mov	r0, sp
    1e50:	5444      	strb	r4, [r0, r1]
    1e52:	3101      	adds	r1, #1
    1e54:	5444      	strb	r4, [r0, r1]
    1e56:	3101      	adds	r1, #1
    1e58:	5443      	strb	r3, [r0, r1]
    1e5a:	3101      	adds	r1, #1
    1e5c:	5443      	strb	r3, [r0, r1]
    1e5e:	930a      	str	r3, [sp, #40]	; 0x28
    1e60:	3105      	adds	r1, #5
    1e62:	5443      	strb	r3, [r0, r1]
    1e64:	3101      	adds	r1, #1
    1e66:	5443      	strb	r3, [r0, r1]
    1e68:	9305      	str	r3, [sp, #20]
    1e6a:	8203      	strh	r3, [r0, #16]
    1e6c:	76c3      	strb	r3, [r0, #27]
    1e6e:	7602      	strb	r2, [r0, #24]
    1e70:	7702      	strb	r2, [r0, #28]
    1e72:	7642      	strb	r2, [r0, #25]
    1e74:	2313      	movs	r3, #19
    1e76:	7683      	strb	r3, [r0, #26]
    1e78:	7742      	strb	r2, [r0, #29]
    1e7a:	2380      	movs	r3, #128	; 0x80
    1e7c:	035b      	lsls	r3, r3, #13
    1e7e:	9303      	str	r3, [sp, #12]
    1e80:	4b2f      	ldr	r3, [pc, #188]	; (1f40 <sio2host_init+0x110>)
    1e82:	930c      	str	r3, [sp, #48]	; 0x30
    1e84:	4b2f      	ldr	r3, [pc, #188]	; (1f44 <sio2host_init+0x114>)
    1e86:	930d      	str	r3, [sp, #52]	; 0x34
    1e88:	2301      	movs	r3, #1
    1e8a:	425b      	negs	r3, r3
    1e8c:	930e      	str	r3, [sp, #56]	; 0x38
    1e8e:	930f      	str	r3, [sp, #60]	; 0x3c
    1e90:	23e1      	movs	r3, #225	; 0xe1
    1e92:	025b      	lsls	r3, r3, #9
    1e94:	9308      	str	r3, [sp, #32]
    1e96:	4d2c      	ldr	r5, [pc, #176]	; (1f48 <sio2host_init+0x118>)
    1e98:	4b2c      	ldr	r3, [pc, #176]	; (1f4c <sio2host_init+0x11c>)
    1e9a:	601d      	str	r5, [r3, #0]
    1e9c:	4a2c      	ldr	r2, [pc, #176]	; (1f50 <sio2host_init+0x120>)
    1e9e:	4b2d      	ldr	r3, [pc, #180]	; (1f54 <sio2host_init+0x124>)
    1ea0:	601a      	str	r2, [r3, #0]
    1ea2:	4a2d      	ldr	r2, [pc, #180]	; (1f58 <sio2host_init+0x128>)
    1ea4:	4b2d      	ldr	r3, [pc, #180]	; (1f5c <sio2host_init+0x12c>)
    1ea6:	601a      	str	r2, [r3, #0]
    1ea8:	466a      	mov	r2, sp
    1eaa:	492d      	ldr	r1, [pc, #180]	; (1f60 <sio2host_init+0x130>)
    1eac:	0028      	movs	r0, r5
    1eae:	4b2d      	ldr	r3, [pc, #180]	; (1f64 <sio2host_init+0x134>)
    1eb0:	4798      	blx	r3
    1eb2:	4f2d      	ldr	r7, [pc, #180]	; (1f68 <sio2host_init+0x138>)
    1eb4:	683b      	ldr	r3, [r7, #0]
    1eb6:	6898      	ldr	r0, [r3, #8]
    1eb8:	2100      	movs	r1, #0
    1eba:	4e2c      	ldr	r6, [pc, #176]	; (1f6c <sio2host_init+0x13c>)
    1ebc:	47b0      	blx	r6
    1ebe:	683b      	ldr	r3, [r7, #0]
    1ec0:	6858      	ldr	r0, [r3, #4]
    1ec2:	2100      	movs	r1, #0
    1ec4:	47b0      	blx	r6
    1ec6:	682e      	ldr	r6, [r5, #0]
    1ec8:	0030      	movs	r0, r6
    1eca:	4b29      	ldr	r3, [pc, #164]	; (1f70 <sio2host_init+0x140>)
    1ecc:	4798      	blx	r3
    1ece:	231f      	movs	r3, #31
    1ed0:	4018      	ands	r0, r3
    1ed2:	4084      	lsls	r4, r0
    1ed4:	4b27      	ldr	r3, [pc, #156]	; (1f74 <sio2host_init+0x144>)
    1ed6:	601c      	str	r4, [r3, #0]
    1ed8:	682a      	ldr	r2, [r5, #0]
    1eda:	69d3      	ldr	r3, [r2, #28]
    1edc:	2b00      	cmp	r3, #0
    1ede:	d1fc      	bne.n	1eda <sio2host_init+0xaa>
    1ee0:	6832      	ldr	r2, [r6, #0]
    1ee2:	3302      	adds	r3, #2
    1ee4:	4313      	orrs	r3, r2
    1ee6:	6033      	str	r3, [r6, #0]
    1ee8:	4b17      	ldr	r3, [pc, #92]	; (1f48 <sio2host_init+0x118>)
    1eea:	681b      	ldr	r3, [r3, #0]
    1eec:	69da      	ldr	r2, [r3, #28]
    1eee:	2a00      	cmp	r2, #0
    1ef0:	d1fc      	bne.n	1eec <sio2host_init+0xbc>
    1ef2:	685a      	ldr	r2, [r3, #4]
    1ef4:	2180      	movs	r1, #128	; 0x80
    1ef6:	0249      	lsls	r1, r1, #9
    1ef8:	430a      	orrs	r2, r1
    1efa:	605a      	str	r2, [r3, #4]
    1efc:	2101      	movs	r1, #1
    1efe:	4a12      	ldr	r2, [pc, #72]	; (1f48 <sio2host_init+0x118>)
    1f00:	71d1      	strb	r1, [r2, #7]
    1f02:	69da      	ldr	r2, [r3, #28]
    1f04:	2a00      	cmp	r2, #0
    1f06:	d1fc      	bne.n	1f02 <sio2host_init+0xd2>
    1f08:	69da      	ldr	r2, [r3, #28]
    1f0a:	2a00      	cmp	r2, #0
    1f0c:	d1fc      	bne.n	1f08 <sio2host_init+0xd8>
    1f0e:	685a      	ldr	r2, [r3, #4]
    1f10:	2180      	movs	r1, #128	; 0x80
    1f12:	0289      	lsls	r1, r1, #10
    1f14:	430a      	orrs	r2, r1
    1f16:	605a      	str	r2, [r3, #4]
    1f18:	2101      	movs	r1, #1
    1f1a:	4a0b      	ldr	r2, [pc, #44]	; (1f48 <sio2host_init+0x118>)
    1f1c:	7191      	strb	r1, [r2, #6]
    1f1e:	69da      	ldr	r2, [r3, #28]
    1f20:	2a00      	cmp	r2, #0
    1f22:	d1fc      	bne.n	1f1e <sio2host_init+0xee>
    1f24:	4914      	ldr	r1, [pc, #80]	; (1f78 <sio2host_init+0x148>)
    1f26:	2003      	movs	r0, #3
    1f28:	4b14      	ldr	r3, [pc, #80]	; (1f7c <sio2host_init+0x14c>)
    1f2a:	4798      	blx	r3
    1f2c:	2204      	movs	r2, #4
    1f2e:	4b0c      	ldr	r3, [pc, #48]	; (1f60 <sio2host_init+0x130>)
    1f30:	759a      	strb	r2, [r3, #22]
    1f32:	2280      	movs	r2, #128	; 0x80
    1f34:	0152      	lsls	r2, r2, #5
    1f36:	4b0f      	ldr	r3, [pc, #60]	; (1f74 <sio2host_init+0x144>)
    1f38:	601a      	str	r2, [r3, #0]
    1f3a:	b011      	add	sp, #68	; 0x44
    1f3c:	bdf0      	pop	{r4, r5, r6, r7, pc}
    1f3e:	46c0      	nop			; (mov r8, r8)
    1f40:	00160002 	.word	0x00160002
    1f44:	00170002 	.word	0x00170002
    1f48:	20000250 	.word	0x20000250
    1f4c:	20001008 	.word	0x20001008
    1f50:	00001db9 	.word	0x00001db9
    1f54:	20001004 	.word	0x20001004
    1f58:	00001d8d 	.word	0x00001d8d
    1f5c:	20001000 	.word	0x20001000
    1f60:	42001400 	.word	0x42001400
    1f64:	00000831 	.word	0x00000831
    1f68:	20000150 	.word	0x20000150
    1f6c:	00007f8d 	.word	0x00007f8d
    1f70:	000007a5 	.word	0x000007a5
    1f74:	e000e100 	.word	0xe000e100
    1f78:	00001dd1 	.word	0x00001dd1
    1f7c:	00000769 	.word	0x00000769

00001f80 <sio2host_tx>:
    1f80:	b5f0      	push	{r4, r5, r6, r7, lr}
    1f82:	b083      	sub	sp, #12
    1f84:	0006      	movs	r6, r0
    1f86:	9101      	str	r1, [sp, #4]
    1f88:	466b      	mov	r3, sp
    1f8a:	889d      	ldrh	r5, [r3, #4]
    1f8c:	4c05      	ldr	r4, [pc, #20]	; (1fa4 <sio2host_tx+0x24>)
    1f8e:	4f06      	ldr	r7, [pc, #24]	; (1fa8 <sio2host_tx+0x28>)
    1f90:	002a      	movs	r2, r5
    1f92:	0031      	movs	r1, r6
    1f94:	0020      	movs	r0, r4
    1f96:	47b8      	blx	r7
    1f98:	2800      	cmp	r0, #0
    1f9a:	d1f9      	bne.n	1f90 <sio2host_tx+0x10>
    1f9c:	9801      	ldr	r0, [sp, #4]
    1f9e:	b003      	add	sp, #12
    1fa0:	bdf0      	pop	{r4, r5, r6, r7, pc}
    1fa2:	46c0      	nop			; (mov r8, r8)
    1fa4:	20000250 	.word	0x20000250
    1fa8:	00000c05 	.word	0x00000c05

00001fac <sio2host_rx>:
    1fac:	b570      	push	{r4, r5, r6, lr}
    1fae:	4b20      	ldr	r3, [pc, #128]	; (2030 <STACK_SIZE+0x30>)
    1fb0:	781a      	ldrb	r2, [r3, #0]
    1fb2:	4b20      	ldr	r3, [pc, #128]	; (2034 <STACK_SIZE+0x34>)
    1fb4:	781b      	ldrb	r3, [r3, #0]
    1fb6:	429a      	cmp	r2, r3
    1fb8:	d303      	bcc.n	1fc2 <sio2host_rx+0x16>
    1fba:	1ad3      	subs	r3, r2, r3
    1fbc:	4c1e      	ldr	r4, [pc, #120]	; (2038 <STACK_SIZE+0x38>)
    1fbe:	7023      	strb	r3, [r4, #0]
    1fc0:	e004      	b.n	1fcc <sio2host_rx+0x20>
    1fc2:	0014      	movs	r4, r2
    1fc4:	3c64      	subs	r4, #100	; 0x64
    1fc6:	1ae3      	subs	r3, r4, r3
    1fc8:	4c1b      	ldr	r4, [pc, #108]	; (2038 <STACK_SIZE+0x38>)
    1fca:	7023      	strb	r3, [r4, #0]
    1fcc:	4b1a      	ldr	r3, [pc, #104]	; (2038 <STACK_SIZE+0x38>)
    1fce:	781b      	ldrb	r3, [r3, #0]
    1fd0:	2400      	movs	r4, #0
    1fd2:	2b00      	cmp	r3, #0
    1fd4:	d02a      	beq.n	202c <STACK_SIZE+0x2c>
    1fd6:	2b9b      	cmp	r3, #155	; 0x9b
    1fd8:	d907      	bls.n	1fea <sio2host_rx+0x3e>
    1fda:	4b16      	ldr	r3, [pc, #88]	; (2034 <STACK_SIZE+0x34>)
    1fdc:	701a      	strb	r2, [r3, #0]
    1fde:	229c      	movs	r2, #156	; 0x9c
    1fe0:	4b15      	ldr	r3, [pc, #84]	; (2038 <STACK_SIZE+0x38>)
    1fe2:	701a      	strb	r2, [r3, #0]
    1fe4:	299b      	cmp	r1, #155	; 0x9b
    1fe6:	d808      	bhi.n	1ffa <sio2host_rx+0x4e>
    1fe8:	e004      	b.n	1ff4 <sio2host_rx+0x48>
    1fea:	1c1a      	adds	r2, r3, #0
    1fec:	428b      	cmp	r3, r1
    1fee:	d900      	bls.n	1ff2 <sio2host_rx+0x46>
    1ff0:	1c0a      	adds	r2, r1, #0
    1ff2:	b2d1      	uxtb	r1, r2
    1ff4:	2900      	cmp	r1, #0
    1ff6:	d101      	bne.n	1ffc <sio2host_rx+0x50>
    1ff8:	e017      	b.n	202a <STACK_SIZE+0x2a>
    1ffa:	219c      	movs	r1, #156	; 0x9c
    1ffc:	4b0d      	ldr	r3, [pc, #52]	; (2034 <STACK_SIZE+0x34>)
    1ffe:	781b      	ldrb	r3, [r3, #0]
    2000:	1e4c      	subs	r4, r1, #1
    2002:	b2e4      	uxtb	r4, r4
    2004:	3401      	adds	r4, #1
    2006:	1904      	adds	r4, r0, r4
    2008:	4d0c      	ldr	r5, [pc, #48]	; (203c <STACK_SIZE+0x3c>)
    200a:	2600      	movs	r6, #0
    200c:	5cea      	ldrb	r2, [r5, r3]
    200e:	7002      	strb	r2, [r0, #0]
    2010:	3001      	adds	r0, #1
    2012:	2b9b      	cmp	r3, #155	; 0x9b
    2014:	d002      	beq.n	201c <STACK_SIZE+0x1c>
    2016:	3301      	adds	r3, #1
    2018:	b2db      	uxtb	r3, r3
    201a:	e000      	b.n	201e <STACK_SIZE+0x1e>
    201c:	0033      	movs	r3, r6
    201e:	4284      	cmp	r4, r0
    2020:	d1f4      	bne.n	200c <STACK_SIZE+0xc>
    2022:	4a04      	ldr	r2, [pc, #16]	; (2034 <STACK_SIZE+0x34>)
    2024:	7013      	strb	r3, [r2, #0]
    2026:	000c      	movs	r4, r1
    2028:	e000      	b.n	202c <STACK_SIZE+0x2c>
    202a:	2400      	movs	r4, #0
    202c:	0020      	movs	r0, r4
    202e:	bd70      	pop	{r4, r5, r6, pc}
    2030:	20000284 	.word	0x20000284
    2034:	200001b0 	.word	0x200001b0
    2038:	20000285 	.word	0x20000285
    203c:	200001b4 	.word	0x200001b4

00002040 <sio2host_putchar>:
    2040:	b500      	push	{lr}
    2042:	b083      	sub	sp, #12
    2044:	466b      	mov	r3, sp
    2046:	71d8      	strb	r0, [r3, #7]
    2048:	3307      	adds	r3, #7
    204a:	2101      	movs	r1, #1
    204c:	0018      	movs	r0, r3
    204e:	4b02      	ldr	r3, [pc, #8]	; (2058 <sio2host_putchar+0x18>)
    2050:	4798      	blx	r3
    2052:	b003      	add	sp, #12
    2054:	bd00      	pop	{pc}
    2056:	46c0      	nop			; (mov r8, r8)
    2058:	00001f81 	.word	0x00001f81

0000205c <csc_prf_disconnect_event_handler>:
* \CSC device disconnected handler function
*/

at_ble_status_t csc_prf_disconnect_event_handler(void *params)
{
	app_csc_info.devicedb = false;
    205c:	2200      	movs	r2, #0
    205e:	4b02      	ldr	r3, [pc, #8]	; (2068 <csc_prf_disconnect_event_handler+0xc>)
    2060:	719a      	strb	r2, [r3, #6]
    ALL_UNUSED(params);
	return AT_BLE_SUCCESS;
}
    2062:	2000      	movs	r0, #0
    2064:	4770      	bx	lr
    2066:	46c0      	nop			; (mov r8, r8)
    2068:	2000100c 	.word	0x2000100c

0000206c <csc_notification_confirmation_handler>:
	} else {
		DBG_LOG_DEV("Sending Notification over the air failed");
		DBG_LOG_DEV("\r\n");
	}
	return AT_BLE_SUCCESS;
}
    206c:	2000      	movs	r0, #0
    206e:	4770      	bx	lr

00002070 <csc_prf_connected_state_handler>:

/**
 * @brief Connection handler invoked by ble manager
 */
at_ble_status_t csc_prf_connected_state_handler(void *params)
{
    2070:	b510      	push	{r4, lr}
    2072:	0001      	movs	r1, r0
	memcpy((uint8_t *)&app_csc_info.conn_params, params, sizeof(at_ble_connected_t));
    2074:	2212      	movs	r2, #18
    2076:	4802      	ldr	r0, [pc, #8]	; (2080 <csc_prf_connected_state_handler+0x10>)
    2078:	4b02      	ldr	r3, [pc, #8]	; (2084 <csc_prf_connected_state_handler+0x14>)
    207a:	4798      	blx	r3
	return AT_BLE_SUCCESS;
}
    207c:	2000      	movs	r0, #0
    207e:	bd10      	pop	{r4, pc}
    2080:	20001014 	.word	0x20001014
    2084:	00007dbf 	.word	0x00007dbf

00002088 <csc_prf_write_notification_handler>:

/**
 * @brief invoked by ble manager for setting the notification 
 */
at_ble_status_t csc_prf_write_notification_handler(void *params)
{
    2088:	b5f0      	push	{r4, r5, r6, r7, lr}
    208a:	b087      	sub	sp, #28
	uint8_t data[2] = {1, 0};
    208c:	ac05      	add	r4, sp, #20
    208e:	2601      	movs	r6, #1
    2090:	7026      	strb	r6, [r4, #0]
    2092:	2500      	movs	r5, #0
    2094:	7065      	strb	r5, [r4, #1]
	DBG_LOG("\r\n");
    2096:	480e      	ldr	r0, [pc, #56]	; (20d0 <csc_prf_write_notification_handler+0x48>)
    2098:	4f0e      	ldr	r7, [pc, #56]	; (20d4 <csc_prf_write_notification_handler+0x4c>)
    209a:	47b8      	blx	r7
    209c:	480c      	ldr	r0, [pc, #48]	; (20d0 <csc_prf_write_notification_handler+0x48>)
    209e:	47b8      	blx	r7
	if(at_ble_characteristic_write(app_csc_info.csc_desc.conn_handle, app_csc_info.csc_desc.desc_handle, 0, 2, data, false, true) == AT_BLE_FAILURE){
    20a0:	4b0d      	ldr	r3, [pc, #52]	; (20d8 <csc_prf_write_notification_handler+0x50>)
    20a2:	224c      	movs	r2, #76	; 0x4c
    20a4:	5a99      	ldrh	r1, [r3, r2]
    20a6:	3a02      	subs	r2, #2
    20a8:	5a98      	ldrh	r0, [r3, r2]
    20aa:	9602      	str	r6, [sp, #8]
    20ac:	9501      	str	r5, [sp, #4]
    20ae:	9400      	str	r4, [sp, #0]
    20b0:	2302      	movs	r3, #2
    20b2:	2200      	movs	r2, #0
    20b4:	4c09      	ldr	r4, [pc, #36]	; (20dc <csc_prf_write_notification_handler+0x54>)
    20b6:	47a0      	blx	r4
    20b8:	28e2      	cmp	r0, #226	; 0xe2
    20ba:	d105      	bne.n	20c8 <csc_prf_write_notification_handler+0x40>
		DBG_LOG("\r\nFailed to send characteristic Write Request");
    20bc:	4804      	ldr	r0, [pc, #16]	; (20d0 <csc_prf_write_notification_handler+0x48>)
    20be:	4b05      	ldr	r3, [pc, #20]	; (20d4 <csc_prf_write_notification_handler+0x4c>)
    20c0:	4798      	blx	r3
    20c2:	4807      	ldr	r0, [pc, #28]	; (20e0 <csc_prf_write_notification_handler+0x58>)
    20c4:	4b07      	ldr	r3, [pc, #28]	; (20e4 <csc_prf_write_notification_handler+0x5c>)
    20c6:	4798      	blx	r3
	}
	UNUSED(params);
	return AT_BLE_SUCCESS;
}
    20c8:	2000      	movs	r0, #0
    20ca:	b007      	add	sp, #28
    20cc:	bdf0      	pop	{r4, r5, r6, r7, pc}
    20ce:	46c0      	nop			; (mov r8, r8)
    20d0:	00009074 	.word	0x00009074
    20d4:	00007f01 	.word	0x00007f01
    20d8:	2000100c 	.word	0x2000100c
    20dc:	0000480d 	.word	0x0000480d
    20e0:	00009078 	.word	0x00009078
    20e4:	00007de1 	.word	0x00007de1

000020e8 <csc_prf_char_changed_handler>:

/**
* \Service characteristic change handler function
*/
at_ble_status_t csc_prf_char_changed_handler(void *params)
{
    20e8:	b500      	push	{lr}
    20ea:	b083      	sub	sp, #12
    csc_report_ntf_t ntf_info;
	  
    at_ble_characteristic_changed_t* change_params = (at_ble_characteristic_changed_t*) params;
    
    if (change_params->char_handle == chars[0].client_config_handle) return AT_BLE_SUCCESS;
    20ec:	8842      	ldrh	r2, [r0, #2]
    20ee:	4b11      	ldr	r3, [pc, #68]	; (2134 <csc_prf_char_changed_handler+0x4c>)
    20f0:	8edb      	ldrh	r3, [r3, #54]	; 0x36
    20f2:	429a      	cmp	r2, r3
    20f4:	d01a      	beq.n	212c <csc_prf_char_changed_handler+0x44>
    
    if (at_ble_characteristic_value_get(chars[1].char_val_handle, (uint8_t *)&rcv_data[0], &rcv_length) != AT_BLE_SUCCESS){
    20f6:	4b0f      	ldr	r3, [pc, #60]	; (2134 <csc_prf_char_changed_handler+0x4c>)
    20f8:	8f98      	ldrh	r0, [r3, #60]	; 0x3c
    20fa:	4a0f      	ldr	r2, [pc, #60]	; (2138 <csc_prf_char_changed_handler+0x50>)
    20fc:	490f      	ldr	r1, [pc, #60]	; (213c <csc_prf_char_changed_handler+0x54>)
    20fe:	4b10      	ldr	r3, [pc, #64]	; (2140 <csc_prf_char_changed_handler+0x58>)
    2100:	4798      	blx	r3
    2102:	2800      	cmp	r0, #0
    2104:	d005      	beq.n	2112 <csc_prf_char_changed_handler+0x2a>
        DBG_LOG("at_ble_characteristic_value_get value get failed");
    2106:	480f      	ldr	r0, [pc, #60]	; (2144 <csc_prf_char_changed_handler+0x5c>)
    2108:	4b0f      	ldr	r3, [pc, #60]	; (2148 <csc_prf_char_changed_handler+0x60>)
    210a:	4798      	blx	r3
    210c:	480f      	ldr	r0, [pc, #60]	; (214c <csc_prf_char_changed_handler+0x64>)
    210e:	4b10      	ldr	r3, [pc, #64]	; (2150 <csc_prf_char_changed_handler+0x68>)
    2110:	4798      	blx	r3
    }
    ntf_info.conn_handle = chars[1].char_val_handle;
    2112:	4b08      	ldr	r3, [pc, #32]	; (2134 <csc_prf_char_changed_handler+0x4c>)
    2114:	8f9b      	ldrh	r3, [r3, #60]	; 0x3c
    2116:	466a      	mov	r2, sp
    2118:	80d3      	strh	r3, [r2, #6]
	ntf_info.recv_buff_len = rcv_length;
    211a:	4b07      	ldr	r3, [pc, #28]	; (2138 <csc_prf_char_changed_handler+0x50>)
    211c:	881b      	ldrh	r3, [r3, #0]
    211e:	7113      	strb	r3, [r2, #4]
	ntf_info.recv_buff = &rcv_data[0];
    2120:	4b06      	ldr	r3, [pc, #24]	; (213c <csc_prf_char_changed_handler+0x54>)
    2122:	9300      	str	r3, [sp, #0]
    recv_ntf_cb(&ntf_info);
    2124:	4b0b      	ldr	r3, [pc, #44]	; (2154 <csc_prf_char_changed_handler+0x6c>)
    2126:	681b      	ldr	r3, [r3, #0]
    2128:	4668      	mov	r0, sp
    212a:	4798      	blx	r3
				
    return AT_BLE_SUCCESS;
}
    212c:	2000      	movs	r0, #0
    212e:	b003      	add	sp, #12
    2130:	bd00      	pop	{pc}
    2132:	46c0      	nop			; (mov r8, r8)
    2134:	2000000c 	.word	0x2000000c
    2138:	20000286 	.word	0x20000286
    213c:	20001070 	.word	0x20001070
    2140:	00004f35 	.word	0x00004f35
    2144:	00009074 	.word	0x00009074
    2148:	00007f01 	.word	0x00007f01
    214c:	000090a8 	.word	0x000090a8
    2150:	00007de1 	.word	0x00007de1
    2154:	2000106c 	.word	0x2000106c

00002158 <csc_prf_buf_init>:
/**
* \CSC buffer initialization function
*/
void csc_prf_buf_init(uint8_t *databuf, uint16_t datalen)
{
	app_csc_info.buff_ptr = databuf;
    2158:	4b01      	ldr	r3, [pc, #4]	; (2160 <csc_prf_buf_init+0x8>)
    215a:	6018      	str	r0, [r3, #0]
	app_csc_info.buff_len = datalen;
    215c:	8099      	strh	r1, [r3, #4]
}
    215e:	4770      	bx	lr
    2160:	2000100c 	.word	0x2000100c

00002164 <csc_prf_init>:

/**
* \CSC profile initialization function
*/
void csc_prf_init(void *param)
{
    2164:	b510      	push	{r4, lr}
    2166:	b082      	sub	sp, #8
	static at_ble_handle_t service;

	/* set primary service */
	if (at_ble_primary_service_define(&service_uuid, &service,
    2168:	2302      	movs	r3, #2
    216a:	9301      	str	r3, [sp, #4]
    216c:	4b14      	ldr	r3, [pc, #80]	; (21c0 <csc_prf_init+0x5c>)
    216e:	9300      	str	r3, [sp, #0]
    2170:	2300      	movs	r3, #0
    2172:	2200      	movs	r2, #0
    2174:	4913      	ldr	r1, [pc, #76]	; (21c4 <csc_prf_init+0x60>)
    2176:	4814      	ldr	r0, [pc, #80]	; (21c8 <csc_prf_init+0x64>)
    2178:	4c14      	ldr	r4, [pc, #80]	; (21cc <csc_prf_init+0x68>)
    217a:	47a0      	blx	r4
    217c:	2800      	cmp	r0, #0
    217e:	d005      	beq.n	218c <csc_prf_init+0x28>
	NULL, 0, chars, 2) !=  AT_BLE_SUCCESS)
	{
		DBG_LOG("Failed to define the primary service");
    2180:	4813      	ldr	r0, [pc, #76]	; (21d0 <csc_prf_init+0x6c>)
    2182:	4b14      	ldr	r3, [pc, #80]	; (21d4 <csc_prf_init+0x70>)
    2184:	4798      	blx	r3
    2186:	4814      	ldr	r0, [pc, #80]	; (21d8 <csc_prf_init+0x74>)
    2188:	4b14      	ldr	r3, [pc, #80]	; (21dc <csc_prf_init+0x78>)
    218a:	4798      	blx	r3
	}
    
    /* register callbacks */
    ble_mgr_events_callback_handler(REGISTER_CALL_BACK,
    218c:	4a14      	ldr	r2, [pc, #80]	; (21e0 <csc_prf_init+0x7c>)
    218e:	2100      	movs	r1, #0
    2190:	2000      	movs	r0, #0
    2192:	4c14      	ldr	r4, [pc, #80]	; (21e4 <csc_prf_init+0x80>)
    2194:	47a0      	blx	r4
                                    BLE_GAP_EVENT_TYPE,
                                    csc_gap_handle);
    ble_mgr_events_callback_handler(REGISTER_CALL_BACK,
    2196:	4a14      	ldr	r2, [pc, #80]	; (21e8 <csc_prf_init+0x84>)
    2198:	2102      	movs	r1, #2
    219a:	2000      	movs	r0, #0
    219c:	47a0      	blx	r4
                                    BLE_GATT_SERVER_EVENT_TYPE,
                                    csc_gatt_server_handle);
    
    /* set advertisement data */
	
	if(at_ble_adv_data_set(adv_data, sizeof(adv_data), NULL, 0) != AT_BLE_SUCCESS)
    219e:	2300      	movs	r3, #0
    21a0:	2200      	movs	r2, #0
    21a2:	211c      	movs	r1, #28
    21a4:	4811      	ldr	r0, [pc, #68]	; (21ec <csc_prf_init+0x88>)
    21a6:	4c12      	ldr	r4, [pc, #72]	; (21f0 <csc_prf_init+0x8c>)
    21a8:	47a0      	blx	r4
    21aa:	2800      	cmp	r0, #0
    21ac:	d005      	beq.n	21ba <csc_prf_init+0x56>
	{
		DBG_LOG("BLE Beacon advertisement data set failed");
    21ae:	4808      	ldr	r0, [pc, #32]	; (21d0 <csc_prf_init+0x6c>)
    21b0:	4b08      	ldr	r3, [pc, #32]	; (21d4 <csc_prf_init+0x70>)
    21b2:	4798      	blx	r3
    21b4:	480f      	ldr	r0, [pc, #60]	; (21f4 <csc_prf_init+0x90>)
    21b6:	4b09      	ldr	r3, [pc, #36]	; (21dc <csc_prf_init+0x78>)
    21b8:	4798      	blx	r3
	}
	
    ALL_UNUSED(param);
}
    21ba:	b002      	add	sp, #8
    21bc:	bd10      	pop	{r4, pc}
    21be:	46c0      	nop			; (mov r8, r8)
    21c0:	2000000c 	.word	0x2000000c
    21c4:	20000288 	.word	0x20000288
    21c8:	200000a0 	.word	0x200000a0
    21cc:	00004ec5 	.word	0x00004ec5
    21d0:	00009074 	.word	0x00009074
    21d4:	00007f01 	.word	0x00007f01
    21d8:	000090dc 	.word	0x000090dc
    21dc:	00007de1 	.word	0x00007de1
    21e0:	00009028 	.word	0x00009028
    21e4:	00002eb9 	.word	0x00002eb9
    21e8:	000091c8 	.word	0x000091c8
    21ec:	20000084 	.word	0x20000084
    21f0:	0000457d 	.word	0x0000457d
    21f4:	00009104 	.word	0x00009104

000021f8 <csc_prf_send_data>:

/**
* \CSC profile send data function
*/
void csc_prf_send_data(uint8_t *databuf, uint16_t datalen)
{
    21f8:	b510      	push	{r4, lr}
    21fa:	0003      	movs	r3, r0
    21fc:	000a      	movs	r2, r1
	at_ble_status_t status;
	status = at_ble_characteristic_value_set(chars[0].char_val_handle, databuf, datalen);
    21fe:	490e      	ldr	r1, [pc, #56]	; (2238 <csc_prf_send_data+0x40>)
    2200:	8808      	ldrh	r0, [r1, #0]
    2202:	0019      	movs	r1, r3
    2204:	4b0d      	ldr	r3, [pc, #52]	; (223c <csc_prf_send_data+0x44>)
    2206:	4798      	blx	r3
	if (status != AT_BLE_SUCCESS){
    2208:	2800      	cmp	r0, #0
    220a:	d005      	beq.n	2218 <csc_prf_send_data+0x20>
		DBG_LOG("at_ble_characteristic_value_set value set failed");
    220c:	480c      	ldr	r0, [pc, #48]	; (2240 <csc_prf_send_data+0x48>)
    220e:	4b0d      	ldr	r3, [pc, #52]	; (2244 <csc_prf_send_data+0x4c>)
    2210:	4798      	blx	r3
    2212:	480d      	ldr	r0, [pc, #52]	; (2248 <csc_prf_send_data+0x50>)
    2214:	4b0d      	ldr	r3, [pc, #52]	; (224c <csc_prf_send_data+0x54>)
    2216:	4798      	blx	r3
	}
	status = at_ble_notification_send(app_csc_info.conn_params.handle, chars[0].char_val_handle);
    2218:	4b07      	ldr	r3, [pc, #28]	; (2238 <csc_prf_send_data+0x40>)
    221a:	8819      	ldrh	r1, [r3, #0]
    221c:	4b0c      	ldr	r3, [pc, #48]	; (2250 <csc_prf_send_data+0x58>)
    221e:	8a18      	ldrh	r0, [r3, #16]
    2220:	4b0c      	ldr	r3, [pc, #48]	; (2254 <csc_prf_send_data+0x5c>)
    2222:	4798      	blx	r3
	if (status != AT_BLE_SUCCESS){
    2224:	2800      	cmp	r0, #0
    2226:	d005      	beq.n	2234 <csc_prf_send_data+0x3c>
		DBG_LOG("at_ble_notification_send  failed");
    2228:	4805      	ldr	r0, [pc, #20]	; (2240 <csc_prf_send_data+0x48>)
    222a:	4b06      	ldr	r3, [pc, #24]	; (2244 <csc_prf_send_data+0x4c>)
    222c:	4798      	blx	r3
    222e:	480a      	ldr	r0, [pc, #40]	; (2258 <csc_prf_send_data+0x60>)
    2230:	4b06      	ldr	r3, [pc, #24]	; (224c <csc_prf_send_data+0x54>)
    2232:	4798      	blx	r3
	}
}
    2234:	bd10      	pop	{r4, pc}
    2236:	46c0      	nop			; (mov r8, r8)
    2238:	2000000c 	.word	0x2000000c
    223c:	00004ef9 	.word	0x00004ef9
    2240:	00009074 	.word	0x00009074
    2244:	00007f01 	.word	0x00007f01
    2248:	00009130 	.word	0x00009130
    224c:	00007de1 	.word	0x00007de1
    2250:	2000100c 	.word	0x2000100c
    2254:	00005099 	.word	0x00005099
    2258:	00009164 	.word	0x00009164

0000225c <csc_prf_dev_adv>:

/**
* \CSC device advertisement handler function
*/
void csc_prf_dev_adv(void)
{
    225c:	b510      	push	{r4, lr}
    225e:	b084      	sub	sp, #16
    //Start advertising
    if(at_ble_adv_start(AT_BLE_ADV_TYPE_UNDIRECTED, AT_BLE_ADV_GEN_DISCOVERABLE,
    2260:	2300      	movs	r3, #0
    2262:	9302      	str	r3, [sp, #8]
    2264:	9301      	str	r3, [sp, #4]
    2266:	3364      	adds	r3, #100	; 0x64
    2268:	9300      	str	r3, [sp, #0]
    226a:	2300      	movs	r3, #0
    226c:	2200      	movs	r2, #0
    226e:	2101      	movs	r1, #1
    2270:	2000      	movs	r0, #0
    2272:	4c09      	ldr	r4, [pc, #36]	; (2298 <csc_prf_dev_adv+0x3c>)
    2274:	47a0      	blx	r4
    2276:	2800      	cmp	r0, #0
    2278:	d006      	beq.n	2288 <csc_prf_dev_adv+0x2c>
                        NULL, AT_BLE_ADV_FP_ANY, 100, 0, false)!= AT_BLE_SUCCESS)
    {
        DBG_LOG("BLE advertisement failed");
    227a:	4808      	ldr	r0, [pc, #32]	; (229c <csc_prf_dev_adv+0x40>)
    227c:	4b08      	ldr	r3, [pc, #32]	; (22a0 <csc_prf_dev_adv+0x44>)
    227e:	4798      	blx	r3
    2280:	4808      	ldr	r0, [pc, #32]	; (22a4 <csc_prf_dev_adv+0x48>)
    2282:	4b09      	ldr	r3, [pc, #36]	; (22a8 <csc_prf_dev_adv+0x4c>)
    2284:	4798      	blx	r3
    2286:	e005      	b.n	2294 <csc_prf_dev_adv+0x38>
    }
    else
    {
        DBG_LOG("Advertisement started");
    2288:	4804      	ldr	r0, [pc, #16]	; (229c <csc_prf_dev_adv+0x40>)
    228a:	4b05      	ldr	r3, [pc, #20]	; (22a0 <csc_prf_dev_adv+0x44>)
    228c:	4798      	blx	r3
    228e:	4807      	ldr	r0, [pc, #28]	; (22ac <csc_prf_dev_adv+0x50>)
    2290:	4b05      	ldr	r3, [pc, #20]	; (22a8 <csc_prf_dev_adv+0x4c>)
    2292:	4798      	blx	r3
    }
}
    2294:	b004      	add	sp, #16
    2296:	bd10      	pop	{r4, pc}
    2298:	00004601 	.word	0x00004601
    229c:	00009074 	.word	0x00009074
    22a0:	00007f01 	.word	0x00007f01
    22a4:	00009188 	.word	0x00009188
    22a8:	00007de1 	.word	0x00007de1
    22ac:	000091a4 	.word	0x000091a4

000022b0 <notify_recv_ntf_handler>:
/**
* \Notify to user about the new data received
*/
void notify_recv_ntf_handler(recv_ntf_callback_t recv_ntf_fn)
{
	recv_ntf_cb = recv_ntf_fn;
    22b0:	4b01      	ldr	r3, [pc, #4]	; (22b8 <notify_recv_ntf_handler+0x8>)
    22b2:	6018      	str	r0, [r3, #0]
}
    22b4:	4770      	bx	lr
    22b6:	46c0      	nop			; (mov r8, r8)
    22b8:	2000106c 	.word	0x2000106c

000022bc <ble_undefined_event_handler>:
at_ble_status_t ble_undefined_event_handler(void *params)
{
	DBG_LOG_DEV("Undefined Event Received");
    ALL_UNUSED(params);
	return AT_BLE_SUCCESS;
}
    22bc:	2000      	movs	r0, #0
    22be:	4770      	bx	lr

000022c0 <ble_mtu_changed_indication_handler>:
	mtu_changed_ind = (at_ble_mtu_changed_ind_t *)params;
	DBG_LOG_DEV("BLE-MTU Changed, Connection Handle: %d, New Value: %d", 
										mtu_changed_ind->conhdl, 
										mtu_changed_ind->mtu_value);
	return AT_BLE_SUCCESS;
}
    22c0:	2000      	movs	r0, #0
    22c2:	4770      	bx	lr

000022c4 <ble_characteristic_write_cmd_complete_handler>:

at_ble_status_t ble_characteristic_write_cmd_complete_handler(void *params)
{
	at_ble_cmd_complete_event_t *cmd_complete_event;
	cmd_complete_event = (at_ble_cmd_complete_event_t *)params;
	if (cmd_complete_event->status == AT_BLE_SUCCESS)
    22c4:	78c0      	ldrb	r0, [r0, #3]
    22c6:	2800      	cmp	r0, #0
    22c8:	d000      	beq.n	22cc <ble_characteristic_write_cmd_complete_handler+0x8>
	{
		DBG_LOG_DEV("Char Write Cmd Failed, Connection Handle:%d, Operation:%d",
		cmd_complete_event->conn_handle,
		cmd_complete_event->operation);
	}
	return AT_BLE_FAILURE;
    22ca:	20e2      	movs	r0, #226	; 0xe2
}
    22cc:	4770      	bx	lr
    22ce:	46c0      	nop			; (mov r8, r8)

000022d0 <ble_conn_param_update>:
	at_ble_conn_param_update_done_t * conn_param_update;
	conn_param_update = (at_ble_conn_param_update_done_t *)params;
	DBG_LOG_DEV("AT_BLE_CONN_PARAM_UPDATE ");
	ALL_UNUSED(conn_param_update);  //To avoid compiler warning
	return AT_BLE_SUCCESS;
}
    22d0:	2000      	movs	r0, #0
    22d2:	4770      	bx	lr

000022d4 <ble_scan_report_handler>:
	}
}

/** @brief function handles scan report */
at_ble_status_t ble_scan_report_handler(void *params)
{
    22d4:	b510      	push	{r4, lr}
	at_ble_scan_report_t *scan_report;
	scan_report = (at_ble_scan_report_t *)params;
	if (scan_report->status == AT_BLE_SUCCESS)
    22d6:	7800      	ldrb	r0, [r0, #0]
    22d8:	2800      	cmp	r0, #0
    22da:	d006      	beq.n	22ea <ble_scan_report_handler+0x16>
		/* All scan data should be handled */
		return AT_BLE_SUCCESS;
	}
	else
	{
		DBG_LOG("Scanning  failed");
    22dc:	4803      	ldr	r0, [pc, #12]	; (22ec <ble_scan_report_handler+0x18>)
    22de:	4b04      	ldr	r3, [pc, #16]	; (22f0 <ble_scan_report_handler+0x1c>)
    22e0:	4798      	blx	r3
    22e2:	4804      	ldr	r0, [pc, #16]	; (22f4 <ble_scan_report_handler+0x20>)
    22e4:	4b04      	ldr	r3, [pc, #16]	; (22f8 <ble_scan_report_handler+0x24>)
    22e6:	4798      	blx	r3
	}
	return AT_BLE_FAILURE;
    22e8:	20e2      	movs	r0, #226	; 0xe2
}
    22ea:	bd10      	pop	{r4, pc}
    22ec:	00009074 	.word	0x00009074
    22f0:	00007f01 	.word	0x00007f01
    22f4:	00009370 	.word	0x00009370
    22f8:	00007de1 	.word	0x00007de1

000022fc <ble_mtu_changed_cmd_complete_handler>:
										mtu_changed_ind->mtu_value);
	return AT_BLE_SUCCESS;
}

at_ble_status_t ble_mtu_changed_cmd_complete_handler(void *params)
{
    22fc:	b510      	push	{r4, lr}
    22fe:	0004      	movs	r4, r0
	at_ble_cmd_complete_event_t *cmd_complete_event;
	cmd_complete_event = (at_ble_cmd_complete_event_t *)params;
	
	if (cmd_complete_event->status == AT_BLE_SUCCESS)
    2300:	78c0      	ldrb	r0, [r0, #3]
    2302:	2800      	cmp	r0, #0
    2304:	d008      	beq.n	2318 <ble_mtu_changed_cmd_complete_handler+0x1c>
		cmd_complete_event->operation);
		return AT_BLE_SUCCESS;
	}
	else
	{
		DBG_LOG("MTU Change Failed, Connection Handle:%d, Operation:%d",
    2306:	4805      	ldr	r0, [pc, #20]	; (231c <ble_mtu_changed_cmd_complete_handler+0x20>)
    2308:	4b05      	ldr	r3, [pc, #20]	; (2320 <ble_mtu_changed_cmd_complete_handler+0x24>)
    230a:	4798      	blx	r3
    230c:	78a2      	ldrb	r2, [r4, #2]
    230e:	8821      	ldrh	r1, [r4, #0]
    2310:	4804      	ldr	r0, [pc, #16]	; (2324 <ble_mtu_changed_cmd_complete_handler+0x28>)
    2312:	4b05      	ldr	r3, [pc, #20]	; (2328 <ble_mtu_changed_cmd_complete_handler+0x2c>)
    2314:	4798      	blx	r3
		cmd_complete_event->conn_handle,
		cmd_complete_event->operation);
	}
	return AT_BLE_FAILURE;
    2316:	20e2      	movs	r0, #226	; 0xe2
}
    2318:	bd10      	pop	{r4, pc}
    231a:	46c0      	nop			; (mov r8, r8)
    231c:	00009074 	.word	0x00009074
    2320:	00007f01 	.word	0x00007f01
    2324:	00009384 	.word	0x00009384
    2328:	00007de1 	.word	0x00007de1

0000232c <ble_disconnected_state_handler>:
	return AT_BLE_FAILURE;
}

/** @brief function handles disconnection event received from stack */
at_ble_status_t ble_disconnected_state_handler(void *params)
{
    232c:	b5f8      	push	{r3, r4, r5, r6, r7, lr}
    232e:	0004      	movs	r4, r0
    2330:	4b19      	ldr	r3, [pc, #100]	; (2398 <ble_disconnected_state_handler+0x6c>)
    2332:	229b      	movs	r2, #155	; 0x9b
    2334:	0092      	lsls	r2, r2, #2
    2336:	189d      	adds	r5, r3, r2
	for (idx = 0; idx < BLE_MAX_DEVICE_CONNECTED; idx++)
	{
		if((ble_dev_info[idx].conn_info.handle == disconnect->handle) && 
		((ble_dev_info[idx].conn_state == BLE_DEVICE_PAIRED) || (ble_dev_info[idx].conn_state == BLE_DEVICE_ENCRYPTION_COMPLETED)))
		{
			ble_dev_info[idx].conn_state = BLE_DEVICE_DISCONNECTED;
    2338:	2701      	movs	r7, #1
				case BLE_DEVICE_DISCONNECTED:
				break;
				
				default:
				DBG_LOG_DEV("State Not Handled %d", ble_dev_info[idx].conn_state);
				ble_dev_info[idx].conn_state = BLE_DEVICE_DEFAULT_IDLE;
    233a:	2600      	movs	r6, #0
    233c:	0018      	movs	r0, r3
	uint8_t idx;
	disconnect = (at_ble_disconnected_t *)params;
	
	for (idx = 0; idx < BLE_MAX_DEVICE_CONNECTED; idx++)
	{
		if((ble_dev_info[idx].conn_info.handle == disconnect->handle) && 
    233e:	001a      	movs	r2, r3
    2340:	3a56      	subs	r2, #86	; 0x56
    2342:	8811      	ldrh	r1, [r2, #0]
    2344:	8822      	ldrh	r2, [r4, #0]
    2346:	4291      	cmp	r1, r2
    2348:	d119      	bne.n	237e <ble_disconnected_state_handler+0x52>
		((ble_dev_info[idx].conn_state == BLE_DEVICE_PAIRED) || (ble_dev_info[idx].conn_state == BLE_DEVICE_ENCRYPTION_COMPLETED)))
    234a:	781a      	ldrb	r2, [r3, #0]
	uint8_t idx;
	disconnect = (at_ble_disconnected_t *)params;
	
	for (idx = 0; idx < BLE_MAX_DEVICE_CONNECTED; idx++)
	{
		if((ble_dev_info[idx].conn_info.handle == disconnect->handle) && 
    234c:	2a05      	cmp	r2, #5
    234e:	d001      	beq.n	2354 <ble_disconnected_state_handler+0x28>
		((ble_dev_info[idx].conn_state == BLE_DEVICE_PAIRED) || (ble_dev_info[idx].conn_state == BLE_DEVICE_ENCRYPTION_COMPLETED)))
    2350:	2a08      	cmp	r2, #8
    2352:	d101      	bne.n	2358 <ble_disconnected_state_handler+0x2c>
		{
			ble_dev_info[idx].conn_state = BLE_DEVICE_DISCONNECTED;
    2354:	7007      	strb	r7, [r0, #0]
    2356:	e012      	b.n	237e <ble_disconnected_state_handler+0x52>
		}		
		else if(ble_dev_info[idx].conn_info.handle == disconnect->handle)
		{
			switch (ble_dev_info[idx].conn_state)
    2358:	2a07      	cmp	r2, #7
    235a:	d80f      	bhi.n	237c <ble_disconnected_state_handler+0x50>
    235c:	0092      	lsls	r2, r2, #2
    235e:	490f      	ldr	r1, [pc, #60]	; (239c <ble_disconnected_state_handler+0x70>)
    2360:	588a      	ldr	r2, [r1, r2]
    2362:	4697      	mov	pc, r2
				case BLE_DEVICE_PAIRING_FAILED:
				case BLE_DEVICE_ENCRYPTION_STATE:
				case BLE_DEVICE_ENCRYPTION_FAILED:
				{
					/* Device is not paired so remove the device information */
					ble_dev_info[idx].conn_state = BLE_DEVICE_DEFAULT_IDLE;
    2364:	701e      	strb	r6, [r3, #0]
					if (ble_device_count > 0)
    2366:	4a0e      	ldr	r2, [pc, #56]	; (23a0 <ble_disconnected_state_handler+0x74>)
    2368:	7812      	ldrb	r2, [r2, #0]
    236a:	2a00      	cmp	r2, #0
    236c:	d007      	beq.n	237e <ble_disconnected_state_handler+0x52>
					{
						ble_device_count--;
    236e:	4a0c      	ldr	r2, [pc, #48]	; (23a0 <ble_disconnected_state_handler+0x74>)
    2370:	7812      	ldrb	r2, [r2, #0]
    2372:	3a01      	subs	r2, #1
    2374:	b2d2      	uxtb	r2, r2
    2376:	490a      	ldr	r1, [pc, #40]	; (23a0 <ble_disconnected_state_handler+0x74>)
    2378:	700a      	strb	r2, [r1, #0]
    237a:	e000      	b.n	237e <ble_disconnected_state_handler+0x52>
				case BLE_DEVICE_DISCONNECTED:
				break;
				
				default:
				DBG_LOG_DEV("State Not Handled %d", ble_dev_info[idx].conn_state);
				ble_dev_info[idx].conn_state = BLE_DEVICE_DEFAULT_IDLE;
    237c:	7006      	strb	r6, [r0, #0]
    237e:	337c      	adds	r3, #124	; 0x7c
{
	at_ble_disconnected_t *disconnect;
	uint8_t idx;
	disconnect = (at_ble_disconnected_t *)params;
	
	for (idx = 0; idx < BLE_MAX_DEVICE_CONNECTED; idx++)
    2380:	42ab      	cmp	r3, r5
    2382:	d1db      	bne.n	233c <ble_disconnected_state_handler+0x10>
				break;				
			}
		} 
	}
	
	DBG_LOG("Device disconnected Reason:0x%02x Handle=0x%x", disconnect->reason, disconnect->handle);
    2384:	4807      	ldr	r0, [pc, #28]	; (23a4 <ble_disconnected_state_handler+0x78>)
    2386:	4b08      	ldr	r3, [pc, #32]	; (23a8 <ble_disconnected_state_handler+0x7c>)
    2388:	4798      	blx	r3
    238a:	8822      	ldrh	r2, [r4, #0]
    238c:	78e1      	ldrb	r1, [r4, #3]
    238e:	4807      	ldr	r0, [pc, #28]	; (23ac <ble_disconnected_state_handler+0x80>)
    2390:	4b07      	ldr	r3, [pc, #28]	; (23b0 <ble_disconnected_state_handler+0x84>)
    2392:	4798      	blx	r3
	return AT_BLE_SUCCESS;
}
    2394:	2000      	movs	r0, #0
    2396:	bdf8      	pop	{r3, r4, r5, r6, r7, pc}
    2398:	20001162 	.word	0x20001162
    239c:	000091f0 	.word	0x000091f0
    23a0:	20001370 	.word	0x20001370
    23a4:	00009074 	.word	0x00009074
    23a8:	00007f01 	.word	0x00007f01
    23ac:	000093bc 	.word	0x000093bc
    23b0:	00007de1 	.word	0x00007de1

000023b4 <ble_encryption_status_change_handler>:
	return AT_BLE_SUCCESS;
}

/** @brief function handles encryption status change */
at_ble_status_t ble_encryption_status_change_handler(void *params)
{
    23b4:	b5f8      	push	{r3, r4, r5, r6, r7, lr}
    23b6:	0006      	movs	r6, r0
	
	enc_status = (at_ble_encryption_status_changed_t *)params;
	
	for (idx = 0; idx < BLE_MAX_DEVICE_CONNECTED; idx++)
	{
		if((ble_dev_info[idx].conn_info.handle == enc_status->handle) && (ble_dev_info[idx].conn_state == BLE_DEVICE_ENCRYPTION_STATE))
    23b8:	8801      	ldrh	r1, [r0, #0]
    23ba:	4b28      	ldr	r3, [pc, #160]	; (245c <ble_encryption_status_change_handler+0xa8>)
	uint8_t idx;
	bool device_found = false;
	
	enc_status = (at_ble_encryption_status_changed_t *)params;
	
	for (idx = 0; idx < BLE_MAX_DEVICE_CONNECTED; idx++)
    23bc:	2400      	movs	r4, #0
	{
		if((ble_dev_info[idx].conn_info.handle == enc_status->handle) && (ble_dev_info[idx].conn_state == BLE_DEVICE_ENCRYPTION_STATE))
    23be:	891a      	ldrh	r2, [r3, #8]
    23c0:	428a      	cmp	r2, r1
    23c2:	d104      	bne.n	23ce <ble_encryption_status_change_handler+0x1a>
    23c4:	001a      	movs	r2, r3
    23c6:	325e      	adds	r2, #94	; 0x5e
    23c8:	7812      	ldrb	r2, [r2, #0]
    23ca:	2a06      	cmp	r2, #6
    23cc:	d02e      	beq.n	242c <ble_encryption_status_change_handler+0x78>
	uint8_t idx;
	bool device_found = false;
	
	enc_status = (at_ble_encryption_status_changed_t *)params;
	
	for (idx = 0; idx < BLE_MAX_DEVICE_CONNECTED; idx++)
    23ce:	3401      	adds	r4, #1
    23d0:	b2e4      	uxtb	r4, r4
    23d2:	337c      	adds	r3, #124	; 0x7c
    23d4:	2c05      	cmp	r4, #5
    23d6:	d1f2      	bne.n	23be <ble_encryption_status_change_handler+0xa>
    23d8:	e039      	b.n	244e <ble_encryption_status_change_handler+0x9a>
			return AT_BLE_FAILURE;
		}
	}
	else
	{
		ble_dev_info[idx].bond_info.status = enc_status->status;
    23da:	4920      	ldr	r1, [pc, #128]	; (245c <ble_encryption_status_change_handler+0xa8>)
    23dc:	0163      	lsls	r3, r4, #5
    23de:	1b1a      	subs	r2, r3, r4
    23e0:	0092      	lsls	r2, r2, #2
    23e2:	188a      	adds	r2, r1, r2
    23e4:	7615      	strb	r5, [r2, #24]
		ble_dev_info[idx].conn_state = BLE_DEVICE_ENCRYPTION_FAILED;
    23e6:	0014      	movs	r4, r2
    23e8:	345e      	adds	r4, #94	; 0x5e
    23ea:	2307      	movs	r3, #7
    23ec:	7023      	strb	r3, [r4, #0]
		DBG_LOG("Encryption failed");
    23ee:	481c      	ldr	r0, [pc, #112]	; (2460 <ble_encryption_status_change_handler+0xac>)
    23f0:	4b1c      	ldr	r3, [pc, #112]	; (2464 <ble_encryption_status_change_handler+0xb0>)
    23f2:	4798      	blx	r3
    23f4:	481c      	ldr	r0, [pc, #112]	; (2468 <ble_encryption_status_change_handler+0xb4>)
    23f6:	4b1d      	ldr	r3, [pc, #116]	; (246c <ble_encryption_status_change_handler+0xb8>)
    23f8:	4798      	blx	r3
		return AT_BLE_FAILURE;
    23fa:	25e2      	movs	r5, #226	; 0xe2
    23fc:	e02b      	b.n	2456 <ble_encryption_status_change_handler+0xa2>
		}
	}
	
	if(enc_status->status == AT_BLE_SUCCESS)
	{
		DBG_LOG("Encryption completed successfully");
    23fe:	4818      	ldr	r0, [pc, #96]	; (2460 <ble_encryption_status_change_handler+0xac>)
    2400:	4b18      	ldr	r3, [pc, #96]	; (2464 <ble_encryption_status_change_handler+0xb0>)
    2402:	4798      	blx	r3
    2404:	481a      	ldr	r0, [pc, #104]	; (2470 <ble_encryption_status_change_handler+0xbc>)
    2406:	4b19      	ldr	r3, [pc, #100]	; (246c <ble_encryption_status_change_handler+0xb8>)
    2408:	4798      	blx	r3
		if (device_found)
		{
			ble_dev_info[idx].conn_state = BLE_DEVICE_ENCRYPTION_COMPLETED;
    240a:	4914      	ldr	r1, [pc, #80]	; (245c <ble_encryption_status_change_handler+0xa8>)
    240c:	0163      	lsls	r3, r4, #5
    240e:	1b1a      	subs	r2, r3, r4
    2410:	0092      	lsls	r2, r2, #2
    2412:	188a      	adds	r2, r1, r2
    2414:	0010      	movs	r0, r2
    2416:	305e      	adds	r0, #94	; 0x5e
    2418:	2708      	movs	r7, #8
    241a:	7007      	strb	r7, [r0, #0]
			ble_dev_info[idx].bond_info.auth = enc_status->authen;
    241c:	78f0      	ldrb	r0, [r6, #3]
    241e:	7510      	strb	r0, [r2, #20]
			ble_dev_info[idx].bond_info.status = enc_status->status;
    2420:	78b2      	ldrb	r2, [r6, #2]
    2422:	1b1c      	subs	r4, r3, r4
    2424:	00a4      	lsls	r4, r4, #2
    2426:	190c      	adds	r4, r1, r4
    2428:	7622      	strb	r2, [r4, #24]
		ble_dev_info[idx].bond_info.status = enc_status->status;
		ble_dev_info[idx].conn_state = BLE_DEVICE_ENCRYPTION_FAILED;
		DBG_LOG("Encryption failed");
		return AT_BLE_FAILURE;
	}
	return AT_BLE_SUCCESS;
    242a:	e014      	b.n	2456 <ble_encryption_status_change_handler+0xa2>
			device_found = true;
			break;
		}
	}
	
	if(enc_status->status == AT_BLE_SUCCESS)
    242c:	78b5      	ldrb	r5, [r6, #2]
    242e:	2d00      	cmp	r5, #0
    2430:	d0e5      	beq.n	23fe <ble_encryption_status_change_handler+0x4a>
    2432:	e7d2      	b.n	23da <ble_encryption_status_change_handler+0x26>
	{
		DBG_LOG("Encryption completed successfully");
    2434:	4e0a      	ldr	r6, [pc, #40]	; (2460 <ble_encryption_status_change_handler+0xac>)
    2436:	0030      	movs	r0, r6
    2438:	4d0a      	ldr	r5, [pc, #40]	; (2464 <ble_encryption_status_change_handler+0xb0>)
    243a:	47a8      	blx	r5
    243c:	480c      	ldr	r0, [pc, #48]	; (2470 <ble_encryption_status_change_handler+0xbc>)
    243e:	4c0b      	ldr	r4, [pc, #44]	; (246c <ble_encryption_status_change_handler+0xb8>)
    2440:	47a0      	blx	r4
			ble_dev_info[idx].bond_info.auth = enc_status->authen;
			ble_dev_info[idx].bond_info.status = enc_status->status;
		}
		else
		{
			DBG_LOG("BLE Device not found encryption info");
    2442:	0030      	movs	r0, r6
    2444:	47a8      	blx	r5
    2446:	480b      	ldr	r0, [pc, #44]	; (2474 <ble_encryption_status_change_handler+0xc0>)
    2448:	47a0      	blx	r4
			return AT_BLE_FAILURE;
    244a:	25e2      	movs	r5, #226	; 0xe2
    244c:	e003      	b.n	2456 <ble_encryption_status_change_handler+0xa2>
			device_found = true;
			break;
		}
	}
	
	if(enc_status->status == AT_BLE_SUCCESS)
    244e:	78b5      	ldrb	r5, [r6, #2]
    2450:	2d00      	cmp	r5, #0
    2452:	d1c2      	bne.n	23da <ble_encryption_status_change_handler+0x26>
    2454:	e7ee      	b.n	2434 <ble_encryption_status_change_handler+0x80>
		ble_dev_info[idx].conn_state = BLE_DEVICE_ENCRYPTION_FAILED;
		DBG_LOG("Encryption failed");
		return AT_BLE_FAILURE;
	}
	return AT_BLE_SUCCESS;
}
    2456:	0028      	movs	r0, r5
    2458:	bdf8      	pop	{r3, r4, r5, r6, r7, pc}
    245a:	46c0      	nop			; (mov r8, r8)
    245c:	20001104 	.word	0x20001104
    2460:	00009074 	.word	0x00009074
    2464:	00007f01 	.word	0x00007f01
    2468:	000093ec 	.word	0x000093ec
    246c:	00007de1 	.word	0x00007de1
    2470:	00009400 	.word	0x00009400
    2474:	00009424 	.word	0x00009424

00002478 <ble_scan_info_handler>:
	return(at_ble_scan_start(SCAN_INTERVAL, SCAN_WINDOW, SCAN_TIMEOUT, SCAN_TYPE, AT_BLE_SCAN_GEN_DISCOVERY, false,true)) ;
}

/** @brief function handling scaned information */
at_ble_status_t ble_scan_info_handler(void *params)
{
    2478:	b510      	push	{r4, lr}
    247a:	0001      	movs	r1, r0
	at_ble_scan_info_t *scan_param;
	scan_param = (at_ble_scan_info_t *)params;
	if(scan_response_count < MAX_SCAN_DEVICE)
    247c:	4b15      	ldr	r3, [pc, #84]	; (24d4 <ble_scan_info_handler+0x5c>)
    247e:	781b      	ldrb	r3, [r3, #0]
    2480:	b2db      	uxtb	r3, r3
    2482:	2b13      	cmp	r3, #19
    2484:	d812      	bhi.n	24ac <ble_scan_info_handler+0x34>
	{
		// store the advertising report data into scan_info[]
		memcpy((uint8_t *)&scan_info[scan_response_count], scan_param, sizeof(at_ble_scan_info_t));
    2486:	4c13      	ldr	r4, [pc, #76]	; (24d4 <ble_scan_info_handler+0x5c>)
    2488:	7823      	ldrb	r3, [r4, #0]
    248a:	b2db      	uxtb	r3, r3
    248c:	0098      	lsls	r0, r3, #2
    248e:	18c0      	adds	r0, r0, r3
    2490:	00c0      	lsls	r0, r0, #3
    2492:	18c3      	adds	r3, r0, r3
    2494:	4810      	ldr	r0, [pc, #64]	; (24d8 <ble_scan_info_handler+0x60>)
    2496:	1818      	adds	r0, r3, r0
    2498:	2229      	movs	r2, #41	; 0x29
    249a:	4b10      	ldr	r3, [pc, #64]	; (24dc <ble_scan_info_handler+0x64>)
    249c:	4798      	blx	r3
		DBG_LOG_DEV("Info:Device found address [%d]  0x%02X%02X%02X%02X%02X%02X ",
    249e:	7823      	ldrb	r3, [r4, #0]
		scan_param->dev_addr.addr[4],
		scan_param->dev_addr.addr[3],
		scan_param->dev_addr.addr[2],
		scan_param->dev_addr.addr[1],
		scan_param->dev_addr.addr[0]);
		scan_response_count++;
    24a0:	7823      	ldrb	r3, [r4, #0]
    24a2:	3301      	adds	r3, #1
    24a4:	b2db      	uxtb	r3, r3
    24a6:	7023      	strb	r3, [r4, #0]
		return AT_BLE_SUCCESS;
    24a8:	2300      	movs	r3, #0
    24aa:	e011      	b.n	24d0 <ble_scan_info_handler+0x58>
	}
	else
	{
		DBG_LOG("Info:maximum no.of scan device reached...Stopping Scan");
    24ac:	480c      	ldr	r0, [pc, #48]	; (24e0 <ble_scan_info_handler+0x68>)
    24ae:	4b0d      	ldr	r3, [pc, #52]	; (24e4 <ble_scan_info_handler+0x6c>)
    24b0:	4798      	blx	r3
    24b2:	480d      	ldr	r0, [pc, #52]	; (24e8 <ble_scan_info_handler+0x70>)
    24b4:	4b0d      	ldr	r3, [pc, #52]	; (24ec <ble_scan_info_handler+0x74>)
    24b6:	4798      	blx	r3
		if(at_ble_scan_stop() != AT_BLE_SUCCESS)
    24b8:	4b0d      	ldr	r3, [pc, #52]	; (24f0 <ble_scan_info_handler+0x78>)
    24ba:	4798      	blx	r3
		{
			DBG_LOG("Failed to stop scanning");
		}
		
		return AT_BLE_FAILURE;
    24bc:	23e2      	movs	r3, #226	; 0xe2
		return AT_BLE_SUCCESS;
	}
	else
	{
		DBG_LOG("Info:maximum no.of scan device reached...Stopping Scan");
		if(at_ble_scan_stop() != AT_BLE_SUCCESS)
    24be:	2800      	cmp	r0, #0
    24c0:	d006      	beq.n	24d0 <ble_scan_info_handler+0x58>
		{
			DBG_LOG("Failed to stop scanning");
    24c2:	4807      	ldr	r0, [pc, #28]	; (24e0 <ble_scan_info_handler+0x68>)
    24c4:	4b07      	ldr	r3, [pc, #28]	; (24e4 <ble_scan_info_handler+0x6c>)
    24c6:	4798      	blx	r3
    24c8:	480a      	ldr	r0, [pc, #40]	; (24f4 <ble_scan_info_handler+0x7c>)
    24ca:	4b08      	ldr	r3, [pc, #32]	; (24ec <ble_scan_info_handler+0x74>)
    24cc:	4798      	blx	r3
		}
		
		return AT_BLE_FAILURE;
    24ce:	23e2      	movs	r3, #226	; 0xe2
	}
}
    24d0:	0018      	movs	r0, r3
    24d2:	bd10      	pop	{r4, pc}
    24d4:	2000076c 	.word	0x2000076c
    24d8:	200013fc 	.word	0x200013fc
    24dc:	00007dbf 	.word	0x00007dbf
    24e0:	00009074 	.word	0x00009074
    24e4:	00007f01 	.word	0x00007f01
    24e8:	0000944c 	.word	0x0000944c
    24ec:	00007de1 	.word	0x00007de1
    24f0:	0000473d 	.word	0x0000473d
    24f4:	00009484 	.word	0x00009484

000024f8 <ble_pair_done_handler>:
	return AT_BLE_SUCCESS;	
}

/** @brief function handles pair done event */
at_ble_status_t ble_pair_done_handler(void *params)
{
    24f8:	b5f8      	push	{r3, r4, r5, r6, r7, lr}
    24fa:	464f      	mov	r7, r9
    24fc:	4646      	mov	r6, r8
    24fe:	b4c0      	push	{r6, r7}
    2500:	0006      	movs	r6, r0
	bool device_found = false;
	pairing_params = (at_ble_pair_done_t *)params;
	
	for (idx = 0; idx < BLE_MAX_DEVICE_CONNECTED; idx++)
	{
		if((ble_dev_info[idx].conn_info.handle == pairing_params->handle) && (ble_dev_info[idx].conn_state == BLE_DEVICE_PAIRING))
    2502:	8845      	ldrh	r5, [r0, #2]
    2504:	4b3d      	ldr	r3, [pc, #244]	; (25fc <ble_pair_done_handler+0x104>)
    2506:	2200      	movs	r2, #0
	at_ble_pair_done_t *pairing_params;
	uint8_t idx;
	bool device_found = false;
	pairing_params = (at_ble_pair_done_t *)params;
	
	for (idx = 0; idx < BLE_MAX_DEVICE_CONNECTED; idx++)
    2508:	2400      	movs	r4, #0
	{
		if((ble_dev_info[idx].conn_info.handle == pairing_params->handle) && (ble_dev_info[idx].conn_state == BLE_DEVICE_PAIRING))
    250a:	8918      	ldrh	r0, [r3, #8]
    250c:	42a8      	cmp	r0, r5
    250e:	d110      	bne.n	2532 <ble_pair_done_handler+0x3a>
    2510:	0018      	movs	r0, r3
    2512:	305e      	adds	r0, #94	; 0x5e
    2514:	7800      	ldrb	r0, [r0, #0]
    2516:	2803      	cmp	r0, #3
    2518:	d10b      	bne.n	2532 <ble_pair_done_handler+0x3a>
		{
			ble_dev_info[idx].conn_state = BLE_DEVICE_PAIRED;
    251a:	0153      	lsls	r3, r2, #5
    251c:	1a9b      	subs	r3, r3, r2
    251e:	0099      	lsls	r1, r3, #2
    2520:	4b36      	ldr	r3, [pc, #216]	; (25fc <ble_pair_done_handler+0x104>)
    2522:	185b      	adds	r3, r3, r1
    2524:	335e      	adds	r3, #94	; 0x5e
    2526:	2205      	movs	r2, #5
    2528:	701a      	strb	r2, [r3, #0]
			device_found = true;
			break;
		}
	}
	
	if(pairing_params->status == AT_BLE_SUCCESS)
    252a:	7935      	ldrb	r5, [r6, #4]
    252c:	2d00      	cmp	r5, #0
    252e:	d034      	beq.n	259a <ble_pair_done_handler+0xa2>
    2530:	e006      	b.n	2540 <ble_pair_done_handler+0x48>
	at_ble_pair_done_t *pairing_params;
	uint8_t idx;
	bool device_found = false;
	pairing_params = (at_ble_pair_done_t *)params;
	
	for (idx = 0; idx < BLE_MAX_DEVICE_CONNECTED; idx++)
    2532:	3401      	adds	r4, #1
    2534:	b2e4      	uxtb	r4, r4
    2536:	3201      	adds	r2, #1
    2538:	337c      	adds	r3, #124	; 0x7c
    253a:	2c05      	cmp	r4, #5
    253c:	d1e5      	bne.n	250a <ble_pair_done_handler+0x12>
    253e:	e028      	b.n	2592 <ble_pair_done_handler+0x9a>
			return AT_BLE_FAILURE;
		}		
	}
	else
	{
		ble_dev_info[idx].conn_state = BLE_DEVICE_PAIRING_FAILED;
    2540:	0163      	lsls	r3, r4, #5
    2542:	1b1c      	subs	r4, r3, r4
    2544:	00a4      	lsls	r4, r4, #2
    2546:	4b2d      	ldr	r3, [pc, #180]	; (25fc <ble_pair_done_handler+0x104>)
    2548:	191c      	adds	r4, r3, r4
    254a:	345e      	adds	r4, #94	; 0x5e
    254c:	2304      	movs	r3, #4
    254e:	7023      	strb	r3, [r4, #0]
		DBG_LOG("Pairing failed...Disconnecting");
    2550:	482b      	ldr	r0, [pc, #172]	; (2600 <ble_pair_done_handler+0x108>)
    2552:	4b2c      	ldr	r3, [pc, #176]	; (2604 <ble_pair_done_handler+0x10c>)
    2554:	4798      	blx	r3
    2556:	482c      	ldr	r0, [pc, #176]	; (2608 <ble_pair_done_handler+0x110>)
    2558:	4b2c      	ldr	r3, [pc, #176]	; (260c <ble_pair_done_handler+0x114>)
    255a:	4798      	blx	r3
		if(!(at_ble_disconnect(pairing_params->handle, AT_BLE_TERMINATED_BY_USER) == AT_BLE_SUCCESS))
    255c:	8870      	ldrh	r0, [r6, #2]
    255e:	2113      	movs	r1, #19
    2560:	4b2b      	ldr	r3, [pc, #172]	; (2610 <ble_pair_done_handler+0x118>)
    2562:	4798      	blx	r3
    2564:	1e05      	subs	r5, r0, #0
    2566:	d043      	beq.n	25f0 <ble_pair_done_handler+0xf8>
		{
			DBG_LOG("Disconnect Request Failed");
    2568:	4825      	ldr	r0, [pc, #148]	; (2600 <ble_pair_done_handler+0x108>)
    256a:	4b26      	ldr	r3, [pc, #152]	; (2604 <ble_pair_done_handler+0x10c>)
    256c:	4798      	blx	r3
    256e:	4829      	ldr	r0, [pc, #164]	; (2614 <ble_pair_done_handler+0x11c>)
    2570:	4b26      	ldr	r3, [pc, #152]	; (260c <ble_pair_done_handler+0x114>)
    2572:	4798      	blx	r3
			return AT_BLE_FAILURE;
    2574:	25e2      	movs	r5, #226	; 0xe2
    2576:	e03b      	b.n	25f0 <ble_pair_done_handler+0xf8>
		}
	}
	
	if(pairing_params->status == AT_BLE_SUCCESS)
	{
		DBG_LOG("Pairing procedure completed successfully");
    2578:	4e21      	ldr	r6, [pc, #132]	; (2600 <ble_pair_done_handler+0x108>)
    257a:	0030      	movs	r0, r6
    257c:	4d21      	ldr	r5, [pc, #132]	; (2604 <ble_pair_done_handler+0x10c>)
    257e:	47a8      	blx	r5
    2580:	4825      	ldr	r0, [pc, #148]	; (2618 <ble_pair_done_handler+0x120>)
    2582:	4c22      	ldr	r4, [pc, #136]	; (260c <ble_pair_done_handler+0x114>)
    2584:	47a0      	blx	r4
				
			}
		}
		else
		{
			DBG_LOG("BLE Device not found to store the pairing info");
    2586:	0030      	movs	r0, r6
    2588:	47a8      	blx	r5
    258a:	4824      	ldr	r0, [pc, #144]	; (261c <ble_pair_done_handler+0x124>)
    258c:	47a0      	blx	r4
			return AT_BLE_FAILURE;
    258e:	25e2      	movs	r5, #226	; 0xe2
    2590:	e02e      	b.n	25f0 <ble_pair_done_handler+0xf8>
			device_found = true;
			break;
		}
	}
	
	if(pairing_params->status == AT_BLE_SUCCESS)
    2592:	7933      	ldrb	r3, [r6, #4]
    2594:	2b00      	cmp	r3, #0
    2596:	d1d3      	bne.n	2540 <ble_pair_done_handler+0x48>
    2598:	e7ee      	b.n	2578 <ble_pair_done_handler+0x80>
	{
		DBG_LOG("Pairing procedure completed successfully");
    259a:	4819      	ldr	r0, [pc, #100]	; (2600 <ble_pair_done_handler+0x108>)
    259c:	4b19      	ldr	r3, [pc, #100]	; (2604 <ble_pair_done_handler+0x10c>)
    259e:	4798      	blx	r3
    25a0:	481d      	ldr	r0, [pc, #116]	; (2618 <ble_pair_done_handler+0x120>)
    25a2:	4b1a      	ldr	r3, [pc, #104]	; (260c <ble_pair_done_handler+0x114>)
    25a4:	4798      	blx	r3
		if (device_found)
		{
			ble_dev_info[idx].bond_info.auth = pairing_params->auth;
    25a6:	7832      	ldrb	r2, [r6, #0]
    25a8:	4b14      	ldr	r3, [pc, #80]	; (25fc <ble_pair_done_handler+0x104>)
    25aa:	4698      	mov	r8, r3
    25ac:	0167      	lsls	r7, r4, #5
    25ae:	1b3b      	subs	r3, r7, r4
    25b0:	009b      	lsls	r3, r3, #2
    25b2:	4443      	add	r3, r8
    25b4:	751a      	strb	r2, [r3, #20]
			ble_dev_info[idx].bond_info.status = pairing_params->status;
    25b6:	7932      	ldrb	r2, [r6, #4]
    25b8:	761a      	strb	r2, [r3, #24]
			memcpy((uint8_t *)&ble_dev_info[idx].bond_info.peer_csrk, (uint8_t *)&pairing_params->peer_csrk, sizeof(at_ble_CSRK_t));
    25ba:	0018      	movs	r0, r3
    25bc:	3036      	adds	r0, #54	; 0x36
    25be:	0031      	movs	r1, r6
    25c0:	3122      	adds	r1, #34	; 0x22
    25c2:	2210      	movs	r2, #16
    25c4:	4b16      	ldr	r3, [pc, #88]	; (2620 <ble_pair_done_handler+0x128>)
    25c6:	4699      	mov	r9, r3
    25c8:	4798      	blx	r3
			memcpy((uint8_t *)&ble_dev_info[idx].bond_info.peer_irk, (uint8_t *)&pairing_params->peer_irk, sizeof(at_ble_IRK_t));
    25ca:	1b38      	subs	r0, r7, r4
    25cc:	0080      	lsls	r0, r0, #2
    25ce:	4440      	add	r0, r8
    25d0:	3046      	adds	r0, #70	; 0x46
    25d2:	0031      	movs	r1, r6
    25d4:	3132      	adds	r1, #50	; 0x32
    25d6:	2217      	movs	r2, #23
    25d8:	47c8      	blx	r9
			memcpy((uint8_t *)&ble_dev_info[idx].bond_info.peer_ltk, (uint8_t *)&pairing_params->peer_ltk, sizeof(at_ble_LTK_t));
    25da:	1b38      	subs	r0, r7, r4
    25dc:	0080      	lsls	r0, r0, #2
    25de:	4440      	add	r0, r8
    25e0:	301a      	adds	r0, #26
    25e2:	1db1      	adds	r1, r6, #6
    25e4:	221c      	movs	r2, #28
    25e6:	47c8      	blx	r9
			ble_dev_info->conn_state = BLE_DEVICE_PAIRED;
    25e8:	2205      	movs	r2, #5
    25ea:	235e      	movs	r3, #94	; 0x5e
    25ec:	4641      	mov	r1, r8
    25ee:	54ca      	strb	r2, [r1, r3]
			DBG_LOG("Disconnect Request Failed");
			return AT_BLE_FAILURE;
		}
	}
	return AT_BLE_SUCCESS;
}
    25f0:	0028      	movs	r0, r5
    25f2:	bc0c      	pop	{r2, r3}
    25f4:	4690      	mov	r8, r2
    25f6:	4699      	mov	r9, r3
    25f8:	bdf8      	pop	{r3, r4, r5, r6, r7, pc}
    25fa:	46c0      	nop			; (mov r8, r8)
    25fc:	20001104 	.word	0x20001104
    2600:	00009074 	.word	0x00009074
    2604:	00007f01 	.word	0x00007f01
    2608:	0000949c 	.word	0x0000949c
    260c:	00007de1 	.word	0x00007de1
    2610:	0000475d 	.word	0x0000475d
    2614:	000094bc 	.word	0x000094bc
    2618:	000094d8 	.word	0x000094d8
    261c:	00009504 	.word	0x00009504
    2620:	00007dbf 	.word	0x00007dbf

00002624 <ble_connected_state_handler>:
	return status;
}

/** @brief function to handle connected event received from stack */
at_ble_status_t ble_connected_state_handler(void *params)
{
    2624:	b5f0      	push	{r4, r5, r6, r7, lr}
    2626:	465f      	mov	r7, fp
    2628:	464e      	mov	r6, r9
    262a:	4645      	mov	r5, r8
    262c:	b4e0      	push	{r5, r6, r7}
    262e:	b09a      	sub	sp, #104	; 0x68
    2630:	0005      	movs	r5, r0
	at_ble_connected_t *conn_params;
	uint8_t idx = 0;
	conn_params = (at_ble_connected_t *)params;
	bool peripheral_device_added = false;
	
	if (conn_params->conn_status == AT_BLE_SUCCESS)
    2632:	7a83      	ldrb	r3, [r0, #10]
    2634:	4699      	mov	r9, r3
    2636:	2b00      	cmp	r3, #0
    2638:	d000      	beq.n	263c <ble_connected_state_handler+0x18>
    263a:	e0c3      	b.n	27c4 <ble_connected_state_handler+0x1a0>
	{
		DBG_LOG("Connected to peer device with address 0x%02x%02x%02x%02x%02x%02x",
    263c:	4e6c      	ldr	r6, [pc, #432]	; (27f0 <ble_connected_state_handler+0x1cc>)
    263e:	0030      	movs	r0, r6
    2640:	4f6c      	ldr	r7, [pc, #432]	; (27f4 <ble_connected_state_handler+0x1d0>)
    2642:	47b8      	blx	r7
    2644:	792b      	ldrb	r3, [r5, #4]
    2646:	796a      	ldrb	r2, [r5, #5]
    2648:	79a9      	ldrb	r1, [r5, #6]
    264a:	7868      	ldrb	r0, [r5, #1]
    264c:	9002      	str	r0, [sp, #8]
    264e:	78a8      	ldrb	r0, [r5, #2]
    2650:	9001      	str	r0, [sp, #4]
    2652:	78e8      	ldrb	r0, [r5, #3]
    2654:	9000      	str	r0, [sp, #0]
    2656:	4868      	ldr	r0, [pc, #416]	; (27f8 <ble_connected_state_handler+0x1d4>)
    2658:	4c68      	ldr	r4, [pc, #416]	; (27fc <ble_connected_state_handler+0x1d8>)
    265a:	47a0      	blx	r4
		conn_params->peer_addr.addr[3],
		conn_params->peer_addr.addr[2],
		conn_params->peer_addr.addr[1],
		conn_params->peer_addr.addr[0]);
		
		DBG_LOG("Connection Handle %d", conn_params->handle);
    265c:	0030      	movs	r0, r6
    265e:	47b8      	blx	r7
    2660:	8929      	ldrh	r1, [r5, #8]
    2662:	4867      	ldr	r0, [pc, #412]	; (2800 <ble_connected_state_handler+0x1dc>)
    2664:	47a0      	blx	r4
		
		memcpy((uint8_t *)&connected_state_info, (uint8_t *)conn_params, sizeof(at_ble_connected_t));	
    2666:	2212      	movs	r2, #18
    2668:	0029      	movs	r1, r5
    266a:	4866      	ldr	r0, [pc, #408]	; (2804 <ble_connected_state_handler+0x1e0>)
    266c:	4b66      	ldr	r3, [pc, #408]	; (2808 <ble_connected_state_handler+0x1e4>)
    266e:	4798      	blx	r3
		if(memcmp((uint8_t *)&ble_peripheral_dev_address, (uint8_t *)&conn_params->peer_addr, sizeof(at_ble_addr_t)))
    2670:	9504      	str	r5, [sp, #16]
    2672:	2207      	movs	r2, #7
    2674:	0029      	movs	r1, r5
    2676:	4865      	ldr	r0, [pc, #404]	; (280c <ble_connected_state_handler+0x1e8>)
    2678:	4b65      	ldr	r3, [pc, #404]	; (2810 <ble_connected_state_handler+0x1ec>)
    267a:	4798      	blx	r3
    267c:	2800      	cmp	r0, #0
    267e:	d02d      	beq.n	26dc <ble_connected_state_handler+0xb8>
		{
			/* Peripheral Device */
			if (conn_params->peer_addr.type == AT_BLE_ADDRESS_RANDOM_PRIVATE_RESOLVABLE) 
    2680:	782b      	ldrb	r3, [r5, #0]
    2682:	2b02      	cmp	r3, #2
    2684:	d12a      	bne.n	26dc <ble_connected_state_handler+0xb8>
			{
				uint8_t idx1, idx2;
				uint16_t key_len = 0;
				uint8_t nb_keys = BLE_MAX_DEVICE_CONNECTED;
				uint8_t irk_key[BLE_MAX_DEVICE_CONNECTED * AT_BLE_MAX_KEY_LEN] = {0, };
    2686:	2250      	movs	r2, #80	; 0x50
    2688:	2100      	movs	r1, #0
    268a:	a806      	add	r0, sp, #24
    268c:	4b61      	ldr	r3, [pc, #388]	; (2814 <ble_connected_state_handler+0x1f0>)
    268e:	4798      	blx	r3
    2690:	4f61      	ldr	r7, [pc, #388]	; (2818 <ble_connected_state_handler+0x1f4>)
		{
			/* Peripheral Device */
			if (conn_params->peer_addr.type == AT_BLE_ADDRESS_RANDOM_PRIVATE_RESOLVABLE) 
			{
				uint8_t idx1, idx2;
				uint16_t key_len = 0;
    2692:	2300      	movs	r3, #0
    2694:	e00b      	b.n	26ae <ble_connected_state_handler+0x8a>
				uint8_t irk_key[BLE_MAX_DEVICE_CONNECTED * AT_BLE_MAX_KEY_LEN] = {0, };
				for (idx1 = 0; idx1 < BLE_MAX_DEVICE_CONNECTED; idx1++)
				{
					for (idx2 = 0; idx2 < AT_BLE_MAX_KEY_LEN; idx2++)
					{
						irk_key[key_len++] = ble_dev_info[idx1].bond_info.peer_irk.key[idx2];
    2696:	1c59      	adds	r1, r3, #1
    2698:	7814      	ldrb	r4, [r2, #0]
    269a:	a806      	add	r0, sp, #24
    269c:	54c4      	strb	r4, [r0, r3]
    269e:	3201      	adds	r2, #1
    26a0:	b28b      	uxth	r3, r1
				uint16_t key_len = 0;
				uint8_t nb_keys = BLE_MAX_DEVICE_CONNECTED;
				uint8_t irk_key[BLE_MAX_DEVICE_CONNECTED * AT_BLE_MAX_KEY_LEN] = {0, };
				for (idx1 = 0; idx1 < BLE_MAX_DEVICE_CONNECTED; idx1++)
				{
					for (idx2 = 0; idx2 < AT_BLE_MAX_KEY_LEN; idx2++)
    26a2:	429e      	cmp	r6, r3
    26a4:	d1f7      	bne.n	2696 <ble_connected_state_handler+0x72>
    26a6:	377c      	adds	r7, #124	; 0x7c
					{
						irk_key[key_len++] = ble_dev_info[idx1].bond_info.peer_irk.key[idx2];
    26a8:	1e33      	subs	r3, r6, #0
			{
				uint8_t idx1, idx2;
				uint16_t key_len = 0;
				uint8_t nb_keys = BLE_MAX_DEVICE_CONNECTED;
				uint8_t irk_key[BLE_MAX_DEVICE_CONNECTED * AT_BLE_MAX_KEY_LEN] = {0, };
				for (idx1 = 0; idx1 < BLE_MAX_DEVICE_CONNECTED; idx1++)
    26aa:	2b50      	cmp	r3, #80	; 0x50
    26ac:	d004      	beq.n	26b8 <ble_connected_state_handler+0x94>
    26ae:	001e      	movs	r6, r3
    26b0:	3610      	adds	r6, #16
    26b2:	b2b6      	uxth	r6, r6
	return status;
}

/** @brief function to handle connected event received from stack */
at_ble_status_t ble_connected_state_handler(void *params)
{
    26b4:	003a      	movs	r2, r7
    26b6:	e7ee      	b.n	2696 <ble_connected_state_handler+0x72>
					}
					
				}
				if (nb_keys)
				{
					if(at_ble_random_address_resolve(BLE_MAX_DEVICE_CONNECTED, &conn_params->peer_addr, irk_key) == AT_BLE_SUCCESS)
    26b8:	aa06      	add	r2, sp, #24
    26ba:	0029      	movs	r1, r5
    26bc:	2005      	movs	r0, #5
    26be:	4b57      	ldr	r3, [pc, #348]	; (281c <ble_connected_state_handler+0x1f8>)
    26c0:	4798      	blx	r3
    26c2:	4681      	mov	r9, r0
    26c4:	2800      	cmp	r0, #0
    26c6:	d100      	bne.n	26ca <ble_connected_state_handler+0xa6>
    26c8:	e08b      	b.n	27e2 <ble_connected_state_handler+0x1be>
						DBG_LOG_DEV("Resolving Random address success**");
						return AT_BLE_SUCCESS;
					}
					else
					{
						DBG_LOG("Resolving Random address failed**");
    26ca:	4849      	ldr	r0, [pc, #292]	; (27f0 <ble_connected_state_handler+0x1cc>)
    26cc:	4b49      	ldr	r3, [pc, #292]	; (27f4 <ble_connected_state_handler+0x1d0>)
    26ce:	4798      	blx	r3
    26d0:	4853      	ldr	r0, [pc, #332]	; (2820 <ble_connected_state_handler+0x1fc>)
    26d2:	4b4a      	ldr	r3, [pc, #296]	; (27fc <ble_connected_state_handler+0x1d8>)
    26d4:	4798      	blx	r3
						return AT_BLE_FAILURE;
    26d6:	23e2      	movs	r3, #226	; 0xe2
    26d8:	4699      	mov	r9, r3
    26da:	e082      	b.n	27e2 <ble_connected_state_handler+0x1be>
    26dc:	4e51      	ldr	r6, [pc, #324]	; (2824 <ble_connected_state_handler+0x200>)
    26de:	2400      	movs	r4, #0
		
		{
			bool conn_exists = false;
			for (idx = 0; idx < BLE_MAX_DEVICE_CONNECTED; idx++)
			{
				if(!memcmp((uint8_t *)&ble_dev_info[idx].conn_info.peer_addr, (uint8_t *)&conn_params->peer_addr, sizeof(at_ble_addr_t)))
    26e0:	4b4b      	ldr	r3, [pc, #300]	; (2810 <ble_connected_state_handler+0x1ec>)
    26e2:	469b      	mov	fp, r3
    26e4:	b2e7      	uxtb	r7, r4
    26e6:	9405      	str	r4, [sp, #20]
    26e8:	2207      	movs	r2, #7
    26ea:	9904      	ldr	r1, [sp, #16]
    26ec:	0030      	movs	r0, r6
    26ee:	47d8      	blx	fp
    26f0:	2800      	cmp	r0, #0
    26f2:	d109      	bne.n	2708 <ble_connected_state_handler+0xe4>
				{
					ble_dev_info[idx].conn_state = BLE_DEVICE_CONNECTED;
    26f4:	9a05      	ldr	r2, [sp, #20]
    26f6:	0153      	lsls	r3, r2, #5
    26f8:	1a9b      	subs	r3, r3, r2
    26fa:	009a      	lsls	r2, r3, #2
    26fc:	4b49      	ldr	r3, [pc, #292]	; (2824 <ble_connected_state_handler+0x200>)
    26fe:	189b      	adds	r3, r3, r2
    2700:	335e      	adds	r3, #94	; 0x5e
    2702:	2202      	movs	r2, #2
    2704:	701a      	strb	r2, [r3, #0]
    2706:	e041      	b.n	278c <ble_connected_state_handler+0x168>
    2708:	3401      	adds	r4, #1
    270a:	367c      	adds	r6, #124	; 0x7c
		}
			
		
		{
			bool conn_exists = false;
			for (idx = 0; idx < BLE_MAX_DEVICE_CONNECTED; idx++)
    270c:	2c05      	cmp	r4, #5
    270e:	d1e9      	bne.n	26e4 <ble_connected_state_handler+0xc0>
    2710:	e062      	b.n	27d8 <ble_connected_state_handler+0x1b4>
					at_ble_disconnect(conn_params->handle, AT_BLE_TERMINATED_BY_USER);
					return AT_BLE_FAILURE;
				}
				for (idx = 0; idx < BLE_MAX_DEVICE_CONNECTED; idx++)
				{
					if(ble_dev_info[idx].conn_state == BLE_DEVICE_DEFAULT_IDLE)
    2712:	235e      	movs	r3, #94	; 0x5e
    2714:	4a43      	ldr	r2, [pc, #268]	; (2824 <ble_connected_state_handler+0x200>)
    2716:	5cd3      	ldrb	r3, [r2, r3]
    2718:	2b00      	cmp	r3, #0
    271a:	d110      	bne.n	273e <ble_connected_state_handler+0x11a>
    271c:	e017      	b.n	274e <ble_connected_state_handler+0x12a>
			
			if (!conn_exists)
			{
				if (ble_device_count == BLE_MAX_DEVICE_CONNECTED)
				{
					DBG_LOG("Max number of connection reached: %d ===>Disconnecting...", ble_device_count);
    271e:	4834      	ldr	r0, [pc, #208]	; (27f0 <ble_connected_state_handler+0x1cc>)
    2720:	4b34      	ldr	r3, [pc, #208]	; (27f4 <ble_connected_state_handler+0x1d0>)
    2722:	4798      	blx	r3
    2724:	4b40      	ldr	r3, [pc, #256]	; (2828 <ble_connected_state_handler+0x204>)
    2726:	7819      	ldrb	r1, [r3, #0]
    2728:	b2c9      	uxtb	r1, r1
    272a:	4840      	ldr	r0, [pc, #256]	; (282c <ble_connected_state_handler+0x208>)
    272c:	4b33      	ldr	r3, [pc, #204]	; (27fc <ble_connected_state_handler+0x1d8>)
    272e:	4798      	blx	r3
					at_ble_disconnect(conn_params->handle, AT_BLE_TERMINATED_BY_USER);
    2730:	8928      	ldrh	r0, [r5, #8]
    2732:	2113      	movs	r1, #19
    2734:	4b3e      	ldr	r3, [pc, #248]	; (2830 <ble_connected_state_handler+0x20c>)
    2736:	4798      	blx	r3
					return AT_BLE_FAILURE;
    2738:	23e2      	movs	r3, #226	; 0xe2
    273a:	4699      	mov	r9, r3
    273c:	e051      	b.n	27e2 <ble_connected_state_handler+0x1be>
    273e:	4a3d      	ldr	r2, [pc, #244]	; (2834 <ble_connected_state_handler+0x210>)
				}
				for (idx = 0; idx < BLE_MAX_DEVICE_CONNECTED; idx++)
				{
					if(ble_dev_info[idx].conn_state == BLE_DEVICE_DEFAULT_IDLE)
    2740:	2301      	movs	r3, #1
				{
					DBG_LOG("Max number of connection reached: %d ===>Disconnecting...", ble_device_count);
					at_ble_disconnect(conn_params->handle, AT_BLE_TERMINATED_BY_USER);
					return AT_BLE_FAILURE;
				}
				for (idx = 0; idx < BLE_MAX_DEVICE_CONNECTED; idx++)
    2742:	2701      	movs	r7, #1
				{
					if(ble_dev_info[idx].conn_state == BLE_DEVICE_DEFAULT_IDLE)
    2744:	001c      	movs	r4, r3
    2746:	7811      	ldrb	r1, [r2, #0]
    2748:	2900      	cmp	r1, #0
    274a:	d119      	bne.n	2780 <ble_connected_state_handler+0x15c>
    274c:	e001      	b.n	2752 <ble_connected_state_handler+0x12e>
    274e:	2400      	movs	r4, #0
    2750:	2700      	movs	r7, #0
					{
						/* @Todo Need to Handle Random Address */
						memcpy(&ble_dev_info[idx].conn_info, (uint8_t *)conn_params, sizeof(at_ble_connected_t));
    2752:	0163      	lsls	r3, r4, #5
    2754:	4698      	mov	r8, r3
    2756:	1b18      	subs	r0, r3, r4
    2758:	0080      	lsls	r0, r0, #2
    275a:	4e32      	ldr	r6, [pc, #200]	; (2824 <ble_connected_state_handler+0x200>)
    275c:	1980      	adds	r0, r0, r6
    275e:	2212      	movs	r2, #18
    2760:	0029      	movs	r1, r5
    2762:	4b29      	ldr	r3, [pc, #164]	; (2808 <ble_connected_state_handler+0x1e4>)
    2764:	4798      	blx	r3
						ble_device_count++;
    2766:	4a30      	ldr	r2, [pc, #192]	; (2828 <ble_connected_state_handler+0x204>)
    2768:	7813      	ldrb	r3, [r2, #0]
    276a:	3301      	adds	r3, #1
    276c:	b2db      	uxtb	r3, r3
    276e:	7013      	strb	r3, [r2, #0]
						ble_dev_info[idx].conn_state = BLE_DEVICE_CONNECTED;
    2770:	4643      	mov	r3, r8
    2772:	1b1b      	subs	r3, r3, r4
    2774:	009b      	lsls	r3, r3, #2
    2776:	18f3      	adds	r3, r6, r3
    2778:	335e      	adds	r3, #94	; 0x5e
    277a:	2202      	movs	r2, #2
    277c:	701a      	strb	r2, [r3, #0]
						break;
    277e:	e005      	b.n	278c <ble_connected_state_handler+0x168>
				{
					DBG_LOG("Max number of connection reached: %d ===>Disconnecting...", ble_device_count);
					at_ble_disconnect(conn_params->handle, AT_BLE_TERMINATED_BY_USER);
					return AT_BLE_FAILURE;
				}
				for (idx = 0; idx < BLE_MAX_DEVICE_CONNECTED; idx++)
    2780:	1c79      	adds	r1, r7, #1
    2782:	b2cf      	uxtb	r7, r1
    2784:	3301      	adds	r3, #1
    2786:	327c      	adds	r2, #124	; 0x7c
    2788:	2f05      	cmp	r7, #5
    278a:	d1db      	bne.n	2744 <ble_connected_state_handler+0x120>
						break;
					}
				}
			}
			
			if(!memcmp((uint8_t *)&ble_peripheral_dev_address, (uint8_t *)&conn_params->peer_addr, sizeof(at_ble_addr_t)))
    278c:	2207      	movs	r2, #7
    278e:	0029      	movs	r1, r5
    2790:	481e      	ldr	r0, [pc, #120]	; (280c <ble_connected_state_handler+0x1e8>)
    2792:	4b1f      	ldr	r3, [pc, #124]	; (2810 <ble_connected_state_handler+0x1ec>)
    2794:	4798      	blx	r3
    2796:	2800      	cmp	r0, #0
    2798:	d107      	bne.n	27aa <ble_connected_state_handler+0x186>
			{
				ble_dev_info[idx].dev_role = AT_BLE_ROLE_CENTRAL;
    279a:	017b      	lsls	r3, r7, #5
    279c:	1bdb      	subs	r3, r3, r7
    279e:	009b      	lsls	r3, r3, #2
    27a0:	4a20      	ldr	r2, [pc, #128]	; (2824 <ble_connected_state_handler+0x200>)
    27a2:	18d3      	adds	r3, r2, r3
    27a4:	2205      	movs	r2, #5
    27a6:	749a      	strb	r2, [r3, #18]
    27a8:	e006      	b.n	27b8 <ble_connected_state_handler+0x194>
			}
			else
			{
				ble_dev_info[idx].dev_role = AT_BLE_ROLE_PERIPHERAL;
    27aa:	017b      	lsls	r3, r7, #5
    27ac:	1bdb      	subs	r3, r3, r7
    27ae:	009b      	lsls	r3, r3, #2
    27b0:	4a1c      	ldr	r2, [pc, #112]	; (2824 <ble_connected_state_handler+0x200>)
    27b2:	18d3      	adds	r3, r2, r3
    27b4:	220a      	movs	r2, #10
    27b6:	749a      	strb	r2, [r3, #18]
				peripheral_device_added = true;
			}
			/* Reset the ble_peripheral_dev_address to identify the initiator */
			memset((uint8_t *)&ble_peripheral_dev_address, 0, sizeof(at_ble_addr_t));
    27b8:	2207      	movs	r2, #7
    27ba:	2100      	movs	r1, #0
    27bc:	4813      	ldr	r0, [pc, #76]	; (280c <ble_connected_state_handler+0x1e8>)
    27be:	4b15      	ldr	r3, [pc, #84]	; (2814 <ble_connected_state_handler+0x1f0>)
    27c0:	4798      	blx	r3
    27c2:	e00e      	b.n	27e2 <ble_connected_state_handler+0x1be>
        }
#endif
	} 
	else
	{
		DBG_LOG("Device Connection Failed - Status: %d", conn_params->conn_status);
    27c4:	480a      	ldr	r0, [pc, #40]	; (27f0 <ble_connected_state_handler+0x1cc>)
    27c6:	4b0b      	ldr	r3, [pc, #44]	; (27f4 <ble_connected_state_handler+0x1d0>)
    27c8:	4798      	blx	r3
    27ca:	7aa9      	ldrb	r1, [r5, #10]
    27cc:	481a      	ldr	r0, [pc, #104]	; (2838 <ble_connected_state_handler+0x214>)
    27ce:	4b0b      	ldr	r3, [pc, #44]	; (27fc <ble_connected_state_handler+0x1d8>)
    27d0:	4798      	blx	r3
	}
	ALL_UNUSED(peripheral_device_added);
	return AT_BLE_SUCCESS;
    27d2:	2300      	movs	r3, #0
    27d4:	4699      	mov	r9, r3
    27d6:	e004      	b.n	27e2 <ble_connected_state_handler+0x1be>
				}
			}
			
			if (!conn_exists)
			{
				if (ble_device_count == BLE_MAX_DEVICE_CONNECTED)
    27d8:	4b13      	ldr	r3, [pc, #76]	; (2828 <ble_connected_state_handler+0x204>)
    27da:	781b      	ldrb	r3, [r3, #0]
    27dc:	2b05      	cmp	r3, #5
    27de:	d198      	bne.n	2712 <ble_connected_state_handler+0xee>
    27e0:	e79d      	b.n	271e <ble_connected_state_handler+0xfa>
	{
		DBG_LOG("Device Connection Failed - Status: %d", conn_params->conn_status);
	}
	ALL_UNUSED(peripheral_device_added);
	return AT_BLE_SUCCESS;
}
    27e2:	4648      	mov	r0, r9
    27e4:	b01a      	add	sp, #104	; 0x68
    27e6:	bc1c      	pop	{r2, r3, r4}
    27e8:	4690      	mov	r8, r2
    27ea:	4699      	mov	r9, r3
    27ec:	46a3      	mov	fp, r4
    27ee:	bdf0      	pop	{r4, r5, r6, r7, pc}
    27f0:	00009074 	.word	0x00009074
    27f4:	00007f01 	.word	0x00007f01
    27f8:	00009534 	.word	0x00009534
    27fc:	00007de1 	.word	0x00007de1
    2800:	00009578 	.word	0x00009578
    2804:	200013b0 	.word	0x200013b0
    2808:	00007dbf 	.word	0x00007dbf
    280c:	20000770 	.word	0x20000770
    2810:	00007da1 	.word	0x00007da1
    2814:	00007dd1 	.word	0x00007dd1
    2818:	2000114a 	.word	0x2000114a
    281c:	000047bd 	.word	0x000047bd
    2820:	00009590 	.word	0x00009590
    2824:	20001104 	.word	0x20001104
    2828:	20001370 	.word	0x20001370
    282c:	000095b4 	.word	0x000095b4
    2830:	0000475d 	.word	0x0000475d
    2834:	200011de 	.word	0x200011de
    2838:	000095f0 	.word	0x000095f0

0000283c <ble_resolv_rand_addr_handler>:

at_ble_status_t ble_resolv_rand_addr_handler(void *params)
{
    283c:	b5f8      	push	{r3, r4, r5, r6, r7, lr}
	uint8_t idx;	
	bool device_found = false;
	bool peripheral_device_added = false;
	ble_resolv_rand_addr_status = (at_ble_resolv_rand_addr_status_t *)params;	
	
	if(ble_resolv_rand_addr_status->status == AT_BLE_SUCCESS)
    283e:	7803      	ldrb	r3, [r0, #0]
    2840:	2b00      	cmp	r3, #0
    2842:	d15c      	bne.n	28fe <ble_resolv_rand_addr_handler+0xc2>
    2844:	4d31      	ldr	r5, [pc, #196]	; (290c <ble_resolv_rand_addr_handler+0xd0>)
    2846:	2400      	movs	r4, #0
	{		
		for (idx = 0; idx < BLE_MAX_DEVICE_CONNECTED; idx++)
		{
			/* Check the Resolved Address */
			if (!memcmp((uint8_t *)ble_resolv_rand_addr_status->irk, (uint8_t *)ble_dev_info[idx].bond_info.peer_irk.key, AT_BLE_MAX_KEY_LEN))
    2848:	1c46      	adds	r6, r0, #1
    284a:	4f31      	ldr	r7, [pc, #196]	; (2910 <ble_resolv_rand_addr_handler+0xd4>)
    284c:	2210      	movs	r2, #16
    284e:	0029      	movs	r1, r5
    2850:	0030      	movs	r0, r6
    2852:	47b8      	blx	r7
    2854:	2800      	cmp	r0, #0
    2856:	d041      	beq.n	28dc <ble_resolv_rand_addr_handler+0xa0>
	bool peripheral_device_added = false;
	ble_resolv_rand_addr_status = (at_ble_resolv_rand_addr_status_t *)params;	
	
	if(ble_resolv_rand_addr_status->status == AT_BLE_SUCCESS)
	{		
		for (idx = 0; idx < BLE_MAX_DEVICE_CONNECTED; idx++)
    2858:	3401      	adds	r4, #1
    285a:	b2e4      	uxtb	r4, r4
    285c:	357c      	adds	r5, #124	; 0x7c
    285e:	2c05      	cmp	r4, #5
    2860:	d1f4      	bne.n	284c <ble_resolv_rand_addr_handler+0x10>
    2862:	e04c      	b.n	28fe <ble_resolv_rand_addr_handler+0xc2>
			at_ble_disconnect(connected_state_info.handle, AT_BLE_TERMINATED_BY_USER);
			return AT_BLE_FAILURE;
		}
		for (idx = 0; idx < BLE_MAX_DEVICE_CONNECTED; idx++)
		{
			if(ble_dev_info[idx].conn_state == BLE_DEVICE_DEFAULT_IDLE)
    2864:	235e      	movs	r3, #94	; 0x5e
    2866:	4a2b      	ldr	r2, [pc, #172]	; (2914 <ble_resolv_rand_addr_handler+0xd8>)
    2868:	5cd3      	ldrb	r3, [r2, r3]
    286a:	2b00      	cmp	r3, #0
    286c:	d110      	bne.n	2890 <ble_resolv_rand_addr_handler+0x54>
    286e:	e016      	b.n	289e <ble_resolv_rand_addr_handler+0x62>
	else
	{
		DBG_LOG_DEV("##########Device Not Found");
		if (ble_device_count == BLE_MAX_DEVICE_CONNECTED)
		{
			DBG_LOG("Max number of connection reached: %d ===>Disconnecting...", ble_device_count);
    2870:	4829      	ldr	r0, [pc, #164]	; (2918 <ble_resolv_rand_addr_handler+0xdc>)
    2872:	4b2a      	ldr	r3, [pc, #168]	; (291c <ble_resolv_rand_addr_handler+0xe0>)
    2874:	4798      	blx	r3
    2876:	4b2a      	ldr	r3, [pc, #168]	; (2920 <ble_resolv_rand_addr_handler+0xe4>)
    2878:	7819      	ldrb	r1, [r3, #0]
    287a:	b2c9      	uxtb	r1, r1
    287c:	4829      	ldr	r0, [pc, #164]	; (2924 <ble_resolv_rand_addr_handler+0xe8>)
    287e:	4b2a      	ldr	r3, [pc, #168]	; (2928 <ble_resolv_rand_addr_handler+0xec>)
    2880:	4798      	blx	r3
			at_ble_disconnect(connected_state_info.handle, AT_BLE_TERMINATED_BY_USER);
    2882:	4b2a      	ldr	r3, [pc, #168]	; (292c <ble_resolv_rand_addr_handler+0xf0>)
    2884:	8918      	ldrh	r0, [r3, #8]
    2886:	2113      	movs	r1, #19
    2888:	4b29      	ldr	r3, [pc, #164]	; (2930 <ble_resolv_rand_addr_handler+0xf4>)
    288a:	4798      	blx	r3
			return AT_BLE_FAILURE;
    288c:	20e2      	movs	r0, #226	; 0xe2
    288e:	e03b      	b.n	2908 <ble_resolv_rand_addr_handler+0xcc>
    2890:	4a28      	ldr	r2, [pc, #160]	; (2934 <ble_resolv_rand_addr_handler+0xf8>)
		}
		for (idx = 0; idx < BLE_MAX_DEVICE_CONNECTED; idx++)
		{
			if(ble_dev_info[idx].conn_state == BLE_DEVICE_DEFAULT_IDLE)
    2892:	2301      	movs	r3, #1
    2894:	001c      	movs	r4, r3
    2896:	7811      	ldrb	r1, [r2, #0]
    2898:	2900      	cmp	r1, #0
    289a:	d119      	bne.n	28d0 <ble_resolv_rand_addr_handler+0x94>
    289c:	e000      	b.n	28a0 <ble_resolv_rand_addr_handler+0x64>
    289e:	2400      	movs	r4, #0
			{
				memcpy(&ble_dev_info[idx].conn_info, (uint8_t *)&connected_state_info, sizeof(at_ble_connected_t));
    28a0:	4f1c      	ldr	r7, [pc, #112]	; (2914 <ble_resolv_rand_addr_handler+0xd8>)
    28a2:	0165      	lsls	r5, r4, #5
    28a4:	1b2e      	subs	r6, r5, r4
    28a6:	00b6      	lsls	r6, r6, #2
    28a8:	19be      	adds	r6, r7, r6
    28aa:	2212      	movs	r2, #18
    28ac:	491f      	ldr	r1, [pc, #124]	; (292c <ble_resolv_rand_addr_handler+0xf0>)
    28ae:	0030      	movs	r0, r6
    28b0:	4b21      	ldr	r3, [pc, #132]	; (2938 <ble_resolv_rand_addr_handler+0xfc>)
    28b2:	4798      	blx	r3
				ble_device_count++;
    28b4:	4a1a      	ldr	r2, [pc, #104]	; (2920 <ble_resolv_rand_addr_handler+0xe4>)
    28b6:	7813      	ldrb	r3, [r2, #0]
    28b8:	3301      	adds	r3, #1
    28ba:	b2db      	uxtb	r3, r3
    28bc:	7013      	strb	r3, [r2, #0]
				ble_dev_info[idx].conn_state = BLE_DEVICE_CONNECTED;
    28be:	365e      	adds	r6, #94	; 0x5e
    28c0:	2302      	movs	r3, #2
    28c2:	7033      	strb	r3, [r6, #0]
				ble_dev_info[idx].dev_role = AT_BLE_ROLE_PERIPHERAL;
    28c4:	1b2c      	subs	r4, r5, r4
    28c6:	00a4      	lsls	r4, r4, #2
    28c8:	193c      	adds	r4, r7, r4
    28ca:	3308      	adds	r3, #8
    28cc:	74a3      	strb	r3, [r4, #18]
				peripheral_device_added = true;
				break;
    28ce:	e003      	b.n	28d8 <ble_resolv_rand_addr_handler+0x9c>
    28d0:	3301      	adds	r3, #1
    28d2:	327c      	adds	r2, #124	; 0x7c
		{
			DBG_LOG("Max number of connection reached: %d ===>Disconnecting...", ble_device_count);
			at_ble_disconnect(connected_state_info.handle, AT_BLE_TERMINATED_BY_USER);
			return AT_BLE_FAILURE;
		}
		for (idx = 0; idx < BLE_MAX_DEVICE_CONNECTED; idx++)
    28d4:	2b05      	cmp	r3, #5
    28d6:	d1dd      	bne.n	2894 <ble_resolv_rand_addr_handler+0x58>
		ble_send_slave_sec_request(connected_state_info.handle);
	}
	#endif
	ALL_UNUSED(peripheral_device_added);

	return AT_BLE_SUCCESS;
    28d8:	2000      	movs	r0, #0
    28da:	e015      	b.n	2908 <ble_resolv_rand_addr_handler+0xcc>
	}
	
	if (device_found)
	{
		DBG_LOG_DEV("##########Device Found");
		ble_dev_info[idx].conn_state = BLE_DEVICE_CONNECTED;
    28dc:	480d      	ldr	r0, [pc, #52]	; (2914 <ble_resolv_rand_addr_handler+0xd8>)
    28de:	0163      	lsls	r3, r4, #5
    28e0:	1b1a      	subs	r2, r3, r4
    28e2:	0092      	lsls	r2, r2, #2
    28e4:	1882      	adds	r2, r0, r2
    28e6:	0011      	movs	r1, r2
    28e8:	315e      	adds	r1, #94	; 0x5e
    28ea:	2502      	movs	r5, #2
    28ec:	700d      	strb	r5, [r1, #0]
		ble_dev_info[idx].dev_role = AT_BLE_ROLE_PERIPHERAL;
    28ee:	210a      	movs	r1, #10
    28f0:	7491      	strb	r1, [r2, #18]
		memcpy((uint8_t *)&ble_dev_info[idx].conn_info, (uint8_t *)&connected_state_info, sizeof(at_ble_connected_t));
    28f2:	0010      	movs	r0, r2
    28f4:	2212      	movs	r2, #18
    28f6:	490d      	ldr	r1, [pc, #52]	; (292c <ble_resolv_rand_addr_handler+0xf0>)
    28f8:	4b0f      	ldr	r3, [pc, #60]	; (2938 <ble_resolv_rand_addr_handler+0xfc>)
    28fa:	4798      	blx	r3
    28fc:	e7ec      	b.n	28d8 <ble_resolv_rand_addr_handler+0x9c>
		peripheral_device_added = true;
	}
	else
	{
		DBG_LOG_DEV("##########Device Not Found");
		if (ble_device_count == BLE_MAX_DEVICE_CONNECTED)
    28fe:	4b08      	ldr	r3, [pc, #32]	; (2920 <ble_resolv_rand_addr_handler+0xe4>)
    2900:	781b      	ldrb	r3, [r3, #0]
    2902:	2b05      	cmp	r3, #5
    2904:	d1ae      	bne.n	2864 <ble_resolv_rand_addr_handler+0x28>
    2906:	e7b3      	b.n	2870 <ble_resolv_rand_addr_handler+0x34>
	#endif
	ALL_UNUSED(peripheral_device_added);

	return AT_BLE_SUCCESS;
	
}
    2908:	bdf8      	pop	{r3, r4, r5, r6, r7, pc}
    290a:	46c0      	nop			; (mov r8, r8)
    290c:	2000114a 	.word	0x2000114a
    2910:	00007da1 	.word	0x00007da1
    2914:	20001104 	.word	0x20001104
    2918:	00009074 	.word	0x00009074
    291c:	00007f01 	.word	0x00007f01
    2920:	20001370 	.word	0x20001370
    2924:	000095b4 	.word	0x000095b4
    2928:	00007de1 	.word	0x00007de1
    292c:	200013b0 	.word	0x200013b0
    2930:	0000475d 	.word	0x0000475d
    2934:	200011de 	.word	0x200011de
    2938:	00007dbf 	.word	0x00007dbf

0000293c <ble_conn_param_update_req>:
	ALL_UNUSED(conn_param_update);  //To avoid compiler warning
	return AT_BLE_SUCCESS;
}

at_ble_status_t ble_conn_param_update_req(void *params)
{
    293c:	b510      	push	{r4, lr}
	at_ble_conn_param_update_request_t * conn_param_req;
	conn_param_req = (at_ble_conn_param_update_request_t *)params;
	at_ble_conn_update_reply(conn_param_req->handle, true, 1, 120);
    293e:	8800      	ldrh	r0, [r0, #0]
    2940:	2378      	movs	r3, #120	; 0x78
    2942:	2201      	movs	r2, #1
    2944:	2101      	movs	r1, #1
    2946:	4c02      	ldr	r4, [pc, #8]	; (2950 <ble_conn_param_update_req+0x14>)
    2948:	47a0      	blx	r4
	return AT_BLE_SUCCESS;
}
    294a:	2000      	movs	r0, #0
    294c:	bd10      	pop	{r4, pc}
    294e:	46c0      	nop			; (mov r8, r8)
    2950:	0000477d 	.word	0x0000477d

00002954 <ble_slave_security_request_handler>:

at_ble_status_t ble_slave_security_request_handler(void* params)
{
    2954:	b5f0      	push	{r4, r5, r6, r7, lr}
    2956:	4657      	mov	r7, sl
    2958:	464e      	mov	r6, r9
    295a:	4645      	mov	r5, r8
    295c:	b4e0      	push	{r5, r6, r7}
    295e:	b084      	sub	sp, #16
    2960:	0004      	movs	r4, r0
		//@Todo Status is not handled in the Library
	//}

	for (idx = 0; idx < BLE_MAX_DEVICE_CONNECTED; idx++)
	{
		if((ble_dev_info[idx].conn_info.handle == slave_sec_req->handle) && (ble_dev_info[idx].conn_state == BLE_DEVICE_CONNECTED))
    2962:	8805      	ldrh	r5, [r0, #0]
    2964:	496a      	ldr	r1, [pc, #424]	; (2b10 <ble_slave_security_request_handler+0x1bc>)
    2966:	000a      	movs	r2, r1
    2968:	2300      	movs	r3, #0
    296a:	8910      	ldrh	r0, [r2, #8]
    296c:	42a8      	cmp	r0, r5
    296e:	d116      	bne.n	299e <ble_slave_security_request_handler+0x4a>
    2970:	0010      	movs	r0, r2
    2972:	305e      	adds	r0, #94	; 0x5e
    2974:	7800      	ldrb	r0, [r0, #0]
    2976:	2802      	cmp	r0, #2
    2978:	d111      	bne.n	299e <ble_slave_security_request_handler+0x4a>
		{
			device_found = true;
			ble_dev_info[idx].conn_state = BLE_DEVICE_ENCRYPTION_STATE;
    297a:	4865      	ldr	r0, [pc, #404]	; (2b10 <ble_slave_security_request_handler+0x1bc>)
    297c:	015a      	lsls	r2, r3, #5
    297e:	1ad6      	subs	r6, r2, r3
    2980:	00b6      	lsls	r6, r6, #2
    2982:	1986      	adds	r6, r0, r6
    2984:	365e      	adds	r6, #94	; 0x5e
    2986:	2206      	movs	r2, #6
    2988:	7032      	strb	r2, [r6, #0]
		}
	}
	
	if (device_found)
	{
		if((ble_dev_info[idx].bond_info.auth & AT_BLE_AUTH_NO_MITM_BOND) && (slave_sec_req->bond == true))
    298a:	32f9      	adds	r2, #249	; 0xf9
    298c:	4013      	ands	r3, r2
    298e:	015a      	lsls	r2, r3, #5
    2990:	1ad2      	subs	r2, r2, r3
    2992:	0092      	lsls	r2, r2, #2
    2994:	1882      	adds	r2, r0, r2
    2996:	7d12      	ldrb	r2, [r2, #20]
    2998:	07d0      	lsls	r0, r2, #31
    299a:	d405      	bmi.n	29a8 <ble_slave_security_request_handler+0x54>
    299c:	e01b      	b.n	29d6 <ble_slave_security_request_handler+0x82>
    299e:	3301      	adds	r3, #1
    29a0:	327c      	adds	r2, #124	; 0x7c
		//at_ble_disconnect(slave_sec_req->handle, AT_BLE_AUTH_FAILURE);		
		//return AT_BLE_FAILURE;
		//@Todo Status is not handled in the Library
	//}

	for (idx = 0; idx < BLE_MAX_DEVICE_CONNECTED; idx++)
    29a2:	2b05      	cmp	r3, #5
    29a4:	d1e1      	bne.n	296a <ble_slave_security_request_handler+0x16>
    29a6:	e01e      	b.n	29e6 <ble_slave_security_request_handler+0x92>
		}
	}
	
	if (device_found)
	{
		if((ble_dev_info[idx].bond_info.auth & AT_BLE_AUTH_NO_MITM_BOND) && (slave_sec_req->bond == true))
    29a8:	78e0      	ldrb	r0, [r4, #3]
    29aa:	2800      	cmp	r0, #0
    29ac:	d013      	beq.n	29d6 <ble_slave_security_request_handler+0x82>
		{
			if(at_ble_encryption_start(slave_sec_req->handle, &ble_dev_info[idx].bond_info.peer_ltk, ble_dev_info[idx].bond_info.auth) == AT_BLE_SUCCESS)
    29ae:	0159      	lsls	r1, r3, #5
    29b0:	1ac9      	subs	r1, r1, r3
    29b2:	008b      	lsls	r3, r1, #2
    29b4:	4956      	ldr	r1, [pc, #344]	; (2b10 <ble_slave_security_request_handler+0x1bc>)
    29b6:	18c9      	adds	r1, r1, r3
    29b8:	311a      	adds	r1, #26
    29ba:	8820      	ldrh	r0, [r4, #0]
    29bc:	4b55      	ldr	r3, [pc, #340]	; (2b14 <ble_slave_security_request_handler+0x1c0>)
    29be:	4798      	blx	r3
    29c0:	2800      	cmp	r0, #0
    29c2:	d100      	bne.n	29c6 <ble_slave_security_request_handler+0x72>
    29c4:	e09e      	b.n	2b04 <ble_slave_security_request_handler+0x1b0>
			{
				return  AT_BLE_SUCCESS;
			}
			else
			{
				DBG_LOG("Encryption Not started");
    29c6:	4854      	ldr	r0, [pc, #336]	; (2b18 <ble_slave_security_request_handler+0x1c4>)
    29c8:	4b54      	ldr	r3, [pc, #336]	; (2b1c <ble_slave_security_request_handler+0x1c8>)
    29ca:	4798      	blx	r3
    29cc:	4854      	ldr	r0, [pc, #336]	; (2b20 <ble_slave_security_request_handler+0x1cc>)
    29ce:	4b55      	ldr	r3, [pc, #340]	; (2b24 <ble_slave_security_request_handler+0x1d0>)
    29d0:	4798      	blx	r3
				return AT_BLE_FAILURE;
    29d2:	20e2      	movs	r0, #226	; 0xe2
    29d4:	e096      	b.n	2b04 <ble_slave_security_request_handler+0x1b0>
			}			
		}
		else
		{
			ble_dev_info[idx].conn_state = BLE_DEVICE_CONNECTED;
    29d6:	015a      	lsls	r2, r3, #5
    29d8:	1ad3      	subs	r3, r2, r3
    29da:	009b      	lsls	r3, r3, #2
    29dc:	4a4c      	ldr	r2, [pc, #304]	; (2b10 <ble_slave_security_request_handler+0x1bc>)
    29de:	18d3      	adds	r3, r2, r3
    29e0:	335e      	adds	r3, #94	; 0x5e
    29e2:	2202      	movs	r2, #2
    29e4:	701a      	strb	r2, [r3, #0]
		}
	}
	
	for (idx = 0; idx < BLE_MAX_DEVICE_CONNECTED; idx++)
	{
		if((ble_dev_info[idx].conn_info.handle == slave_sec_req->handle) && (ble_dev_info[idx].conn_state == BLE_DEVICE_CONNECTED))
    29e6:	8825      	ldrh	r5, [r4, #0]
    29e8:	2200      	movs	r2, #0
		{
			ble_dev_info[idx].conn_state = BLE_DEVICE_CONNECTED;
		}
	}
	
	for (idx = 0; idx < BLE_MAX_DEVICE_CONNECTED; idx++)
    29ea:	2300      	movs	r3, #0
	{
		if((ble_dev_info[idx].conn_info.handle == slave_sec_req->handle) && (ble_dev_info[idx].conn_state == BLE_DEVICE_CONNECTED))
    29ec:	0016      	movs	r6, r2
    29ee:	8908      	ldrh	r0, [r1, #8]
    29f0:	42a8      	cmp	r0, r5
    29f2:	d10d      	bne.n	2a10 <ble_slave_security_request_handler+0xbc>
    29f4:	0008      	movs	r0, r1
    29f6:	305e      	adds	r0, #94	; 0x5e
    29f8:	7800      	ldrb	r0, [r0, #0]
    29fa:	2802      	cmp	r0, #2
    29fc:	d108      	bne.n	2a10 <ble_slave_security_request_handler+0xbc>
		{
			ble_dev_info[idx].conn_state = BLE_DEVICE_PAIRING;
    29fe:	0152      	lsls	r2, r2, #5
    2a00:	1b92      	subs	r2, r2, r6
    2a02:	0096      	lsls	r6, r2, #2
    2a04:	4a42      	ldr	r2, [pc, #264]	; (2b10 <ble_slave_security_request_handler+0x1bc>)
    2a06:	1992      	adds	r2, r2, r6
    2a08:	325e      	adds	r2, #94	; 0x5e
    2a0a:	2103      	movs	r1, #3
    2a0c:	7011      	strb	r1, [r2, #0]
			break;
    2a0e:	e005      	b.n	2a1c <ble_slave_security_request_handler+0xc8>
		{
			ble_dev_info[idx].conn_state = BLE_DEVICE_CONNECTED;
		}
	}
	
	for (idx = 0; idx < BLE_MAX_DEVICE_CONNECTED; idx++)
    2a10:	3301      	adds	r3, #1
    2a12:	b2db      	uxtb	r3, r3
    2a14:	3201      	adds	r2, #1
    2a16:	317c      	adds	r1, #124	; 0x7c
    2a18:	2b05      	cmp	r3, #5
    2a1a:	d1e7      	bne.n	29ec <ble_slave_security_request_handler+0x98>
			ble_dev_info[idx].conn_state = BLE_DEVICE_PAIRING;
			break;
		}
	}
	
	features.desired_auth =  BLE_AUTHENTICATION_LEVEL; 
    2a1c:	aa01      	add	r2, sp, #4
    2a1e:	2100      	movs	r1, #0
    2a20:	7211      	strb	r1, [r2, #8]
	features.bond = slave_sec_req->bond;
    2a22:	78e0      	ldrb	r0, [r4, #3]
    2a24:	7090      	strb	r0, [r2, #2]
	features.mitm_protection = true;
    2a26:	2001      	movs	r0, #1
    2a28:	7050      	strb	r0, [r2, #1]
	/* Device capabilities is display only , key will be generated
	and displayed */
	features.io_cababilities = AT_BLE_IO_CAP_KB_DISPLAY;
    2a2a:	3003      	adds	r0, #3
    2a2c:	7010      	strb	r0, [r2, #0]

	features.oob_avaiable = false;
    2a2e:	70d1      	strb	r1, [r2, #3]
			
	/* Distribution of LTK is required */
	if (ble_dev_info[idx].conn_info.peer_addr.type == AT_BLE_ADDRESS_RANDOM_PRIVATE_RESOLVABLE)
    2a30:	001f      	movs	r7, r3
    2a32:	015a      	lsls	r2, r3, #5
    2a34:	1ad2      	subs	r2, r2, r3
    2a36:	0092      	lsls	r2, r2, #2
    2a38:	4935      	ldr	r1, [pc, #212]	; (2b10 <ble_slave_security_request_handler+0x1bc>)
    2a3a:	5c52      	ldrb	r2, [r2, r1]
    2a3c:	2a02      	cmp	r2, #2
    2a3e:	d104      	bne.n	2a4a <ble_slave_security_request_handler+0xf6>
	{
		features.initiator_keys =   (at_ble_key_dis_t)(AT_BLE_KEY_DIST_ENC | AT_BLE_KEY_DIST_ID);
    2a40:	aa01      	add	r2, sp, #4
    2a42:	2103      	movs	r1, #3
    2a44:	7191      	strb	r1, [r2, #6]
		features.responder_keys =   (at_ble_key_dis_t)(AT_BLE_KEY_DIST_ENC | AT_BLE_KEY_DIST_ID);
    2a46:	71d1      	strb	r1, [r2, #7]
    2a48:	e003      	b.n	2a52 <ble_slave_security_request_handler+0xfe>
	}
	else
	{
		features.initiator_keys =   AT_BLE_KEY_DIST_ENC;
    2a4a:	aa01      	add	r2, sp, #4
    2a4c:	2101      	movs	r1, #1
    2a4e:	7191      	strb	r1, [r2, #6]
		features.responder_keys =   AT_BLE_KEY_DIST_ENC;
    2a50:	71d1      	strb	r1, [r2, #7]
	}
	features.max_key_size = 16;
    2a52:	aa01      	add	r2, sp, #4
    2a54:	2110      	movs	r1, #16
    2a56:	7151      	strb	r1, [r2, #5]
	features.min_key_size = 16;
    2a58:	7111      	strb	r1, [r2, #4]
	
	/* Check if fresh pairing requested */
	if (ble_dev_info[idx].bond_info.status == AT_BLE_GAP_INVALID_PARAM)
    2a5a:	017a      	lsls	r2, r7, #5
    2a5c:	1bd2      	subs	r2, r2, r7
    2a5e:	0092      	lsls	r2, r2, #2
    2a60:	492b      	ldr	r1, [pc, #172]	; (2b10 <ble_slave_security_request_handler+0x1bc>)
    2a62:	188a      	adds	r2, r1, r2
    2a64:	7e12      	ldrb	r2, [r2, #24]
    2a66:	2a40      	cmp	r2, #64	; 0x40
    2a68:	d134      	bne.n	2ad4 <ble_slave_security_request_handler+0x180>
    2a6a:	015a      	lsls	r2, r3, #5
    2a6c:	1ad3      	subs	r3, r2, r3
    2a6e:	009b      	lsls	r3, r3, #2
    2a70:	469a      	mov	sl, r3
    2a72:	001e      	movs	r6, r3
    2a74:	3660      	adds	r6, #96	; 0x60
    2a76:	1876      	adds	r6, r6, r1
    2a78:	4655      	mov	r5, sl
    2a7a:	3568      	adds	r5, #104	; 0x68
    2a7c:	186d      	adds	r5, r5, r1
	{
		/* Generate LTK */
		for(i=0; i<8; i++)
		{			
			ble_dev_info[idx].host_ltk.key[i] = rand()&0x0f;
    2a7e:	4b2a      	ldr	r3, [pc, #168]	; (2b28 <ble_slave_security_request_handler+0x1d4>)
    2a80:	4699      	mov	r9, r3
    2a82:	230f      	movs	r3, #15
    2a84:	4698      	mov	r8, r3
    2a86:	47c8      	blx	r9
    2a88:	4643      	mov	r3, r8
    2a8a:	4018      	ands	r0, r3
    2a8c:	7030      	strb	r0, [r6, #0]
			ble_dev_info[idx].host_ltk.nb[i] = rand()&0x0f;
    2a8e:	47c8      	blx	r9
    2a90:	4643      	mov	r3, r8
    2a92:	4018      	ands	r0, r3
    2a94:	74b0      	strb	r0, [r6, #18]
    2a96:	3601      	adds	r6, #1
	
	/* Check if fresh pairing requested */
	if (ble_dev_info[idx].bond_info.status == AT_BLE_GAP_INVALID_PARAM)
	{
		/* Generate LTK */
		for(i=0; i<8; i++)
    2a98:	42ae      	cmp	r6, r5
    2a9a:	d1f4      	bne.n	2a86 <ble_slave_security_request_handler+0x132>
    2a9c:	4656      	mov	r6, sl
    2a9e:	3670      	adds	r6, #112	; 0x70
    2aa0:	4a1b      	ldr	r2, [pc, #108]	; (2b10 <ble_slave_security_request_handler+0x1bc>)
    2aa2:	18b6      	adds	r6, r6, r2
			ble_dev_info[idx].host_ltk.nb[i] = rand()&0x0f;
		}
				
		for(i=8 ; i<16 ;i++)
		{
			ble_dev_info[idx].host_ltk.key[i] = rand()&0x0f;
    2aa4:	4b20      	ldr	r3, [pc, #128]	; (2b28 <ble_slave_security_request_handler+0x1d4>)
    2aa6:	4699      	mov	r9, r3
    2aa8:	230f      	movs	r3, #15
    2aaa:	4698      	mov	r8, r3
    2aac:	47c8      	blx	r9
    2aae:	4643      	mov	r3, r8
    2ab0:	4018      	ands	r0, r3
    2ab2:	7028      	strb	r0, [r5, #0]
    2ab4:	3501      	adds	r5, #1
		{			
			ble_dev_info[idx].host_ltk.key[i] = rand()&0x0f;
			ble_dev_info[idx].host_ltk.nb[i] = rand()&0x0f;
		}
				
		for(i=8 ; i<16 ;i++)
    2ab6:	42b5      	cmp	r5, r6
    2ab8:	d1f8      	bne.n	2aac <ble_slave_security_request_handler+0x158>
		{
			ble_dev_info[idx].host_ltk.key[i] = rand()&0x0f;
		}
		
		ble_dev_info[idx].host_ltk.ediv = rand()&0xffff;
    2aba:	4b1b      	ldr	r3, [pc, #108]	; (2b28 <ble_slave_security_request_handler+0x1d4>)
    2abc:	4798      	blx	r3
    2abe:	017b      	lsls	r3, r7, #5
    2ac0:	1bdb      	subs	r3, r3, r7
    2ac2:	009b      	lsls	r3, r3, #2
    2ac4:	4a12      	ldr	r2, [pc, #72]	; (2b10 <ble_slave_security_request_handler+0x1bc>)
    2ac6:	18d3      	adds	r3, r2, r3
    2ac8:	001a      	movs	r2, r3
    2aca:	3270      	adds	r2, #112	; 0x70
    2acc:	8010      	strh	r0, [r2, #0]
		ble_dev_info[idx].host_ltk.key_size = 16;
    2ace:	337a      	adds	r3, #122	; 0x7a
    2ad0:	2210      	movs	r2, #16
    2ad2:	701a      	strb	r2, [r3, #0]
	{
		/* Bonding information already exists */
		
	}

	if(at_ble_authenticate(slave_sec_req->handle, &features, &ble_dev_info[idx].host_ltk, NULL) != AT_BLE_SUCCESS)
    2ad4:	017a      	lsls	r2, r7, #5
    2ad6:	1bd7      	subs	r7, r2, r7
    2ad8:	00bf      	lsls	r7, r7, #2
    2ada:	3760      	adds	r7, #96	; 0x60
    2adc:	4a0c      	ldr	r2, [pc, #48]	; (2b10 <ble_slave_security_request_handler+0x1bc>)
    2ade:	18ba      	adds	r2, r7, r2
    2ae0:	8820      	ldrh	r0, [r4, #0]
    2ae2:	2300      	movs	r3, #0
    2ae4:	a901      	add	r1, sp, #4
    2ae6:	4c11      	ldr	r4, [pc, #68]	; (2b2c <ble_slave_security_request_handler+0x1d8>)
    2ae8:	47a0      	blx	r4
    2aea:	2800      	cmp	r0, #0
    2aec:	d00a      	beq.n	2b04 <ble_slave_security_request_handler+0x1b0>
	{
		features.bond = false;
    2aee:	ab01      	add	r3, sp, #4
    2af0:	2200      	movs	r2, #0
    2af2:	709a      	strb	r2, [r3, #2]
		features.mitm_protection = false;
    2af4:	705a      	strb	r2, [r3, #1]
		DBG_LOG("Slave Security Req - Authentication Failed");
    2af6:	4808      	ldr	r0, [pc, #32]	; (2b18 <ble_slave_security_request_handler+0x1c4>)
    2af8:	4b08      	ldr	r3, [pc, #32]	; (2b1c <ble_slave_security_request_handler+0x1c8>)
    2afa:	4798      	blx	r3
    2afc:	480c      	ldr	r0, [pc, #48]	; (2b30 <ble_slave_security_request_handler+0x1dc>)
    2afe:	4b09      	ldr	r3, [pc, #36]	; (2b24 <ble_slave_security_request_handler+0x1d0>)
    2b00:	4798      	blx	r3
		return AT_BLE_FAILURE;
    2b02:	20e2      	movs	r0, #226	; 0xe2
	}
	return AT_BLE_SUCCESS;
}
    2b04:	b004      	add	sp, #16
    2b06:	bc1c      	pop	{r2, r3, r4}
    2b08:	4690      	mov	r8, r2
    2b0a:	4699      	mov	r9, r3
    2b0c:	46a2      	mov	sl, r4
    2b0e:	bdf0      	pop	{r4, r5, r6, r7, pc}
    2b10:	20001104 	.word	0x20001104
    2b14:	00005c2d 	.word	0x00005c2d
    2b18:	00009074 	.word	0x00009074
    2b1c:	00007f01 	.word	0x00007f01
    2b20:	00009618 	.word	0x00009618
    2b24:	00007de1 	.word	0x00007de1
    2b28:	00007f15 	.word	0x00007f15
    2b2c:	00005979 	.word	0x00005979
    2b30:	00009630 	.word	0x00009630

00002b34 <ble_pair_request_handler>:

/** @brief function handles pair request */
at_ble_status_t ble_pair_request_handler(void *params)
{
    2b34:	b5f0      	push	{r4, r5, r6, r7, lr}
    2b36:	465f      	mov	r7, fp
    2b38:	4656      	mov	r6, sl
    2b3a:	464d      	mov	r5, r9
    2b3c:	4644      	mov	r4, r8
    2b3e:	b4f0      	push	{r4, r5, r6, r7}
    2b40:	b085      	sub	sp, #20
    2b42:	4683      	mov	fp, r0
	at_ble_pair_request_t* pair_req;
	pair_req = (at_ble_pair_request_t*)params;
	
	for (idx = 0; idx < BLE_MAX_DEVICE_CONNECTED; idx++)
	{
		if((ble_dev_info[idx].conn_info.handle == pair_req->handle) && (ble_dev_info[idx].conn_state == BLE_DEVICE_CONNECTED))
    2b44:	8804      	ldrh	r4, [r0, #0]
    2b46:	4a48      	ldr	r2, [pc, #288]	; (2c68 <ble_pair_request_handler+0x134>)
    2b48:	2100      	movs	r1, #0
	at_ble_pair_features_t features;
	uint8_t i = 0, idx;
	at_ble_pair_request_t* pair_req;
	pair_req = (at_ble_pair_request_t*)params;
	
	for (idx = 0; idx < BLE_MAX_DEVICE_CONNECTED; idx++)
    2b4a:	2300      	movs	r3, #0
	{
		if((ble_dev_info[idx].conn_info.handle == pair_req->handle) && (ble_dev_info[idx].conn_state == BLE_DEVICE_CONNECTED))
    2b4c:	8910      	ldrh	r0, [r2, #8]
    2b4e:	42a0      	cmp	r0, r4
    2b50:	d10d      	bne.n	2b6e <ble_pair_request_handler+0x3a>
    2b52:	0010      	movs	r0, r2
    2b54:	305e      	adds	r0, #94	; 0x5e
    2b56:	7800      	ldrb	r0, [r0, #0]
    2b58:	2802      	cmp	r0, #2
    2b5a:	d108      	bne.n	2b6e <ble_pair_request_handler+0x3a>
		{
			ble_dev_info[idx].conn_state = BLE_DEVICE_PAIRING;
    2b5c:	014a      	lsls	r2, r1, #5
    2b5e:	1a52      	subs	r2, r2, r1
    2b60:	0095      	lsls	r5, r2, #2
    2b62:	4a41      	ldr	r2, [pc, #260]	; (2c68 <ble_pair_request_handler+0x134>)
    2b64:	1952      	adds	r2, r2, r5
    2b66:	325e      	adds	r2, #94	; 0x5e
    2b68:	2103      	movs	r1, #3
    2b6a:	7011      	strb	r1, [r2, #0]
			break;
    2b6c:	e005      	b.n	2b7a <ble_pair_request_handler+0x46>
	at_ble_pair_features_t features;
	uint8_t i = 0, idx;
	at_ble_pair_request_t* pair_req;
	pair_req = (at_ble_pair_request_t*)params;
	
	for (idx = 0; idx < BLE_MAX_DEVICE_CONNECTED; idx++)
    2b6e:	3301      	adds	r3, #1
    2b70:	b2db      	uxtb	r3, r3
    2b72:	3101      	adds	r1, #1
    2b74:	327c      	adds	r2, #124	; 0x7c
    2b76:	2b05      	cmp	r3, #5
    2b78:	d1e8      	bne.n	2b4c <ble_pair_request_handler+0x18>
			ble_dev_info[idx].conn_state = BLE_DEVICE_PAIRING;
			break;
		}
	}
	
	features.desired_auth =  BLE_AUTHENTICATION_LEVEL; 
    2b7a:	aa01      	add	r2, sp, #4
    2b7c:	2100      	movs	r1, #0
    2b7e:	7211      	strb	r1, [r2, #8]
	features.bond = BLE_BOND_REQ;
    2b80:	7091      	strb	r1, [r2, #2]
	features.mitm_protection = BLE_MITM_REQ;
    2b82:	7051      	strb	r1, [r2, #1]
	/* Device capabilities is display only , key will be generated
	and displayed */
	features.io_cababilities = BLE_IO_CAPABALITIES;
    2b84:	2003      	movs	r0, #3
    2b86:	7010      	strb	r0, [r2, #0]
	features.oob_avaiable = BLE_OOB_REQ;
    2b88:	70d1      	strb	r1, [r2, #3]
	
	/* Distribution of LTK is required */
	if (ble_dev_info[idx].conn_info.peer_addr.type == AT_BLE_ADDRESS_RANDOM_PRIVATE_RESOLVABLE)
    2b8a:	001f      	movs	r7, r3
    2b8c:	015a      	lsls	r2, r3, #5
    2b8e:	1ad2      	subs	r2, r2, r3
    2b90:	0092      	lsls	r2, r2, #2
    2b92:	4935      	ldr	r1, [pc, #212]	; (2c68 <ble_pair_request_handler+0x134>)
    2b94:	5c52      	ldrb	r2, [r2, r1]
    2b96:	2a02      	cmp	r2, #2
    2b98:	d104      	bne.n	2ba4 <ble_pair_request_handler+0x70>
	{
		/* Distribution of IRK is required */
		features.initiator_keys =   (at_ble_key_dis_t)(AT_BLE_KEY_DIST_ENC | AT_BLE_KEY_DIST_ID);
    2b9a:	aa01      	add	r2, sp, #4
    2b9c:	2103      	movs	r1, #3
    2b9e:	7191      	strb	r1, [r2, #6]
		features.responder_keys =   (at_ble_key_dis_t)(AT_BLE_KEY_DIST_ENC | AT_BLE_KEY_DIST_ID);
    2ba0:	71d1      	strb	r1, [r2, #7]
    2ba2:	e003      	b.n	2bac <ble_pair_request_handler+0x78>
	}
	else
	{
		features.initiator_keys =   AT_BLE_KEY_DIST_ENC;
    2ba4:	aa01      	add	r2, sp, #4
    2ba6:	2101      	movs	r1, #1
    2ba8:	7191      	strb	r1, [r2, #6]
		features.responder_keys =   AT_BLE_KEY_DIST_ENC;
    2baa:	71d1      	strb	r1, [r2, #7]
	}
			
	features.max_key_size = 16;
    2bac:	aa01      	add	r2, sp, #4
    2bae:	2110      	movs	r1, #16
    2bb0:	7151      	strb	r1, [r2, #5]
	features.min_key_size = 16;
    2bb2:	7111      	strb	r1, [r2, #4]
	
	/* Check if fresh pairing requested */
	if (ble_dev_info[idx].bond_info.status == AT_BLE_GAP_INVALID_PARAM)
    2bb4:	017a      	lsls	r2, r7, #5
    2bb6:	1bd2      	subs	r2, r2, r7
    2bb8:	0092      	lsls	r2, r2, #2
    2bba:	492b      	ldr	r1, [pc, #172]	; (2c68 <ble_pair_request_handler+0x134>)
    2bbc:	188a      	adds	r2, r1, r2
    2bbe:	7e12      	ldrb	r2, [r2, #24]
    2bc0:	2a40      	cmp	r2, #64	; 0x40
    2bc2:	d131      	bne.n	2c28 <ble_pair_request_handler+0xf4>
    2bc4:	015a      	lsls	r2, r3, #5
    2bc6:	1ad3      	subs	r3, r2, r3
    2bc8:	009b      	lsls	r3, r3, #2
    2bca:	469a      	mov	sl, r3
    2bcc:	001d      	movs	r5, r3
    2bce:	3560      	adds	r5, #96	; 0x60
    2bd0:	186d      	adds	r5, r5, r1
    2bd2:	4654      	mov	r4, sl
    2bd4:	3468      	adds	r4, #104	; 0x68
    2bd6:	1864      	adds	r4, r4, r1
	{
		/* Generate LTK */
		for(i=0; i<8; i++)
		{						
			ble_dev_info[idx].host_ltk.key[i] = rand()&0x0f;
    2bd8:	4b24      	ldr	r3, [pc, #144]	; (2c6c <ble_pair_request_handler+0x138>)
    2bda:	4699      	mov	r9, r3
    2bdc:	260f      	movs	r6, #15
    2bde:	47c8      	blx	r9
    2be0:	4030      	ands	r0, r6
    2be2:	7028      	strb	r0, [r5, #0]
			ble_dev_info[idx].host_ltk.nb[i] = rand()&0x0f;
    2be4:	47c8      	blx	r9
    2be6:	4030      	ands	r0, r6
    2be8:	74a8      	strb	r0, [r5, #18]
    2bea:	3501      	adds	r5, #1
	
	/* Check if fresh pairing requested */
	if (ble_dev_info[idx].bond_info.status == AT_BLE_GAP_INVALID_PARAM)
	{
		/* Generate LTK */
		for(i=0; i<8; i++)
    2bec:	42a5      	cmp	r5, r4
    2bee:	d1f6      	bne.n	2bde <ble_pair_request_handler+0xaa>
    2bf0:	4655      	mov	r5, sl
    2bf2:	3570      	adds	r5, #112	; 0x70
    2bf4:	4a1c      	ldr	r2, [pc, #112]	; (2c68 <ble_pair_request_handler+0x134>)
    2bf6:	18ad      	adds	r5, r5, r2
			ble_dev_info[idx].host_ltk.nb[i] = rand()&0x0f;
		}
				
		for(i=8 ; i<16 ;i++)
		{
			ble_dev_info[idx].host_ltk.key[i] = rand()&0x0f;
    2bf8:	4b1c      	ldr	r3, [pc, #112]	; (2c6c <ble_pair_request_handler+0x138>)
    2bfa:	4699      	mov	r9, r3
    2bfc:	230f      	movs	r3, #15
    2bfe:	4698      	mov	r8, r3
    2c00:	47c8      	blx	r9
    2c02:	4643      	mov	r3, r8
    2c04:	4018      	ands	r0, r3
    2c06:	7020      	strb	r0, [r4, #0]
    2c08:	3401      	adds	r4, #1
		{						
			ble_dev_info[idx].host_ltk.key[i] = rand()&0x0f;
			ble_dev_info[idx].host_ltk.nb[i] = rand()&0x0f;
		}
				
		for(i=8 ; i<16 ;i++)
    2c0a:	42ac      	cmp	r4, r5
    2c0c:	d1f8      	bne.n	2c00 <ble_pair_request_handler+0xcc>
		for (i = 0; i < 16; i++)
		{
			DBG_LOG_CONT_DEV("0x%02X ", ble_dev_info[idx].host_ltk.key[i]);
		}
		
		ble_dev_info[idx].host_ltk.ediv = rand()&0xffff;
    2c0e:	4b17      	ldr	r3, [pc, #92]	; (2c6c <ble_pair_request_handler+0x138>)
    2c10:	4798      	blx	r3
    2c12:	017b      	lsls	r3, r7, #5
    2c14:	1bdb      	subs	r3, r3, r7
    2c16:	009b      	lsls	r3, r3, #2
    2c18:	4a13      	ldr	r2, [pc, #76]	; (2c68 <ble_pair_request_handler+0x134>)
    2c1a:	18d3      	adds	r3, r2, r3
    2c1c:	001a      	movs	r2, r3
    2c1e:	3270      	adds	r2, #112	; 0x70
    2c20:	8010      	strh	r0, [r2, #0]
		ble_dev_info[idx].host_ltk.key_size = 16;
    2c22:	337a      	adds	r3, #122	; 0x7a
    2c24:	2210      	movs	r2, #16
    2c26:	701a      	strb	r2, [r3, #0]
	}

	/* Send pairing response */
	DBG_LOG_DEV("Sending pairing response");

	if(at_ble_authenticate(pair_req->handle, &features, &ble_dev_info[idx].host_ltk, NULL) != AT_BLE_SUCCESS)
    2c28:	017a      	lsls	r2, r7, #5
    2c2a:	1bd7      	subs	r7, r2, r7
    2c2c:	00bf      	lsls	r7, r7, #2
    2c2e:	3760      	adds	r7, #96	; 0x60
    2c30:	4a0d      	ldr	r2, [pc, #52]	; (2c68 <ble_pair_request_handler+0x134>)
    2c32:	18ba      	adds	r2, r7, r2
    2c34:	465b      	mov	r3, fp
    2c36:	8818      	ldrh	r0, [r3, #0]
    2c38:	2300      	movs	r3, #0
    2c3a:	a901      	add	r1, sp, #4
    2c3c:	4c0c      	ldr	r4, [pc, #48]	; (2c70 <ble_pair_request_handler+0x13c>)
    2c3e:	47a0      	blx	r4
    2c40:	2800      	cmp	r0, #0
    2c42:	d00a      	beq.n	2c5a <ble_pair_request_handler+0x126>
	{
		features.bond = false;
    2c44:	ab01      	add	r3, sp, #4
    2c46:	2200      	movs	r2, #0
    2c48:	709a      	strb	r2, [r3, #2]
		features.mitm_protection = false;
    2c4a:	705a      	strb	r2, [r3, #1]
		DBG_LOG("Pair Request - Authentication Failed");
    2c4c:	4809      	ldr	r0, [pc, #36]	; (2c74 <ble_pair_request_handler+0x140>)
    2c4e:	4b0a      	ldr	r3, [pc, #40]	; (2c78 <ble_pair_request_handler+0x144>)
    2c50:	4798      	blx	r3
    2c52:	480a      	ldr	r0, [pc, #40]	; (2c7c <ble_pair_request_handler+0x148>)
    2c54:	4b0a      	ldr	r3, [pc, #40]	; (2c80 <ble_pair_request_handler+0x14c>)
    2c56:	4798      	blx	r3
		return AT_BLE_FAILURE;
    2c58:	20e2      	movs	r0, #226	; 0xe2
	}
	return AT_BLE_SUCCESS;
}
    2c5a:	b005      	add	sp, #20
    2c5c:	bc3c      	pop	{r2, r3, r4, r5}
    2c5e:	4690      	mov	r8, r2
    2c60:	4699      	mov	r9, r3
    2c62:	46a2      	mov	sl, r4
    2c64:	46ab      	mov	fp, r5
    2c66:	bdf0      	pop	{r4, r5, r6, r7, pc}
    2c68:	20001104 	.word	0x20001104
    2c6c:	00007f15 	.word	0x00007f15
    2c70:	00005979 	.word	0x00005979
    2c74:	00009074 	.word	0x00009074
    2c78:	00007f01 	.word	0x00007f01
    2c7c:	0000965c 	.word	0x0000965c
    2c80:	00007de1 	.word	0x00007de1

00002c84 <ble_pair_key_request_handler>:

/** @brief function handles pair key request */
at_ble_status_t ble_pair_key_request_handler (void *params)
{
    2c84:	b5f0      	push	{r4, r5, r6, r7, lr}
    2c86:	b085      	sub	sp, #20
    2c88:	0005      	movs	r5, r0
	at_ble_pair_key_request_t *pair_key;
	pair_key = (at_ble_pair_key_request_t *)params;
	/* Passkey has fixed value in this example MSB */
	uint8_t passkey[6]={'1','2','3','4','5','6'};
    2c8a:	2206      	movs	r2, #6
    2c8c:	493d      	ldr	r1, [pc, #244]	; (2d84 <ble_pair_key_request_handler+0x100>)
    2c8e:	a802      	add	r0, sp, #8
    2c90:	4e3d      	ldr	r6, [pc, #244]	; (2d88 <ble_pair_key_request_handler+0x104>)
    2c92:	47b0      	blx	r6
	uint8_t idx = 0;
        uint8_t pin;
        
	at_ble_pair_key_request_t pair_key_request;
        
	memcpy((uint8_t *)&pair_key_request, pair_key, sizeof(at_ble_pair_key_request_t));
    2c94:	ac01      	add	r4, sp, #4
    2c96:	2204      	movs	r2, #4
    2c98:	0029      	movs	r1, r5
    2c9a:	0020      	movs	r0, r4
    2c9c:	47b0      	blx	r6
	
	if (pair_key_request.passkey_type == AT_BLE_PAIR_PASSKEY_ENTRY) {
    2c9e:	78e3      	ldrb	r3, [r4, #3]
    2ca0:	2b00      	cmp	r3, #0
    2ca2:	d161      	bne.n	2d68 <ble_pair_key_request_handler+0xe4>
	  DBG_LOG("Enter the Passkey(6-Digit) in Terminal:");
    2ca4:	4839      	ldr	r0, [pc, #228]	; (2d8c <ble_pair_key_request_handler+0x108>)
    2ca6:	4b3a      	ldr	r3, [pc, #232]	; (2d90 <ble_pair_key_request_handler+0x10c>)
    2ca8:	4798      	blx	r3
    2caa:	483a      	ldr	r0, [pc, #232]	; (2d94 <ble_pair_key_request_handler+0x110>)
    2cac:	4b3a      	ldr	r3, [pc, #232]	; (2d98 <ble_pair_key_request_handler+0x114>)
    2cae:	4798      	blx	r3
    2cb0:	2700      	movs	r7, #0
	  for (idx = 0; idx < 6;) {          
		pin = getchar_timeout(PIN_TIMEOUT);
    2cb2:	4c3a      	ldr	r4, [pc, #232]	; (2d9c <ble_pair_key_request_handler+0x118>)
    2cb4:	4e3a      	ldr	r6, [pc, #232]	; (2da0 <ble_pair_key_request_handler+0x11c>)
    2cb6:	0020      	movs	r0, r4
    2cb8:	47b0      	blx	r6
    2cba:	1e02      	subs	r2, r0, #0
		if (!pin) {
    2cbc:	d11a      	bne.n	2cf4 <ble_pair_key_request_handler+0x70>
			DBG_LOG("Pin Timeout");
    2cbe:	4f33      	ldr	r7, [pc, #204]	; (2d8c <ble_pair_key_request_handler+0x108>)
    2cc0:	0038      	movs	r0, r7
    2cc2:	4e33      	ldr	r6, [pc, #204]	; (2d90 <ble_pair_key_request_handler+0x10c>)
    2cc4:	47b0      	blx	r6
    2cc6:	4837      	ldr	r0, [pc, #220]	; (2da4 <ble_pair_key_request_handler+0x120>)
    2cc8:	4c33      	ldr	r4, [pc, #204]	; (2d98 <ble_pair_key_request_handler+0x114>)
    2cca:	47a0      	blx	r4
			DBG_LOG("Disconnecting ...");
    2ccc:	0038      	movs	r0, r7
    2cce:	47b0      	blx	r6
    2cd0:	4835      	ldr	r0, [pc, #212]	; (2da8 <ble_pair_key_request_handler+0x124>)
    2cd2:	47a0      	blx	r4
			if (!(at_ble_disconnect(pair_key->handle,
    2cd4:	8828      	ldrh	r0, [r5, #0]
    2cd6:	2113      	movs	r1, #19
    2cd8:	4b34      	ldr	r3, [pc, #208]	; (2dac <ble_pair_key_request_handler+0x128>)
    2cda:	4798      	blx	r3
    2cdc:	0003      	movs	r3, r0
						AT_BLE_TERMINATED_BY_USER) == AT_BLE_SUCCESS)) {
				DBG_LOG("Disconnect Request Failed");
			}
			return AT_BLE_FAILURE;
    2cde:	20e2      	movs	r0, #226	; 0xe2
	  for (idx = 0; idx < 6;) {          
		pin = getchar_timeout(PIN_TIMEOUT);
		if (!pin) {
			DBG_LOG("Pin Timeout");
			DBG_LOG("Disconnecting ...");
			if (!(at_ble_disconnect(pair_key->handle,
    2ce0:	2b00      	cmp	r3, #0
    2ce2:	d04c      	beq.n	2d7e <ble_pair_key_request_handler+0xfa>
						AT_BLE_TERMINATED_BY_USER) == AT_BLE_SUCCESS)) {
				DBG_LOG("Disconnect Request Failed");
    2ce4:	4829      	ldr	r0, [pc, #164]	; (2d8c <ble_pair_key_request_handler+0x108>)
    2ce6:	4b2a      	ldr	r3, [pc, #168]	; (2d90 <ble_pair_key_request_handler+0x10c>)
    2ce8:	4798      	blx	r3
    2cea:	4831      	ldr	r0, [pc, #196]	; (2db0 <ble_pair_key_request_handler+0x12c>)
    2cec:	4b2a      	ldr	r3, [pc, #168]	; (2d98 <ble_pair_key_request_handler+0x114>)
    2cee:	4798      	blx	r3
			}
			return AT_BLE_FAILURE;
    2cf0:	20e2      	movs	r0, #226	; 0xe2
    2cf2:	e044      	b.n	2d7e <ble_pair_key_request_handler+0xfa>
		}
		if ((pin >= '0') && ( pin <= '9')) {
    2cf4:	3830      	subs	r0, #48	; 0x30
    2cf6:	b2c3      	uxtb	r3, r0
    2cf8:	2b09      	cmp	r3, #9
    2cfa:	d8dc      	bhi.n	2cb6 <ble_pair_key_request_handler+0x32>
		  passkey[idx++] = pin;
    2cfc:	ab02      	add	r3, sp, #8
    2cfe:	54fa      	strb	r2, [r7, r3]
		  DBG_LOG_CONT("%c", pin);
    2d00:	0010      	movs	r0, r2
    2d02:	4b2c      	ldr	r3, [pc, #176]	; (2db4 <ble_pair_key_request_handler+0x130>)
    2d04:	4798      	blx	r3
    2d06:	3701      	adds	r7, #1
        
	memcpy((uint8_t *)&pair_key_request, pair_key, sizeof(at_ble_pair_key_request_t));
	
	if (pair_key_request.passkey_type == AT_BLE_PAIR_PASSKEY_ENTRY) {
	  DBG_LOG("Enter the Passkey(6-Digit) in Terminal:");
	  for (idx = 0; idx < 6;) {          
    2d08:	2f06      	cmp	r7, #6
    2d0a:	d026      	beq.n	2d5a <ble_pair_key_request_handler+0xd6>
    2d0c:	e7d3      	b.n	2cb6 <ble_pair_key_request_handler+0x32>
          {
            DBG_LOG("Entered Pass-code:");
          }
          else
          {
            DBG_LOG("Please Enter the following Pass-code(on other Device):");
    2d0e:	481f      	ldr	r0, [pc, #124]	; (2d8c <ble_pair_key_request_handler+0x108>)
    2d10:	4b1f      	ldr	r3, [pc, #124]	; (2d90 <ble_pair_key_request_handler+0x10c>)
    2d12:	4798      	blx	r3
    2d14:	4828      	ldr	r0, [pc, #160]	; (2db8 <ble_pair_key_request_handler+0x134>)
    2d16:	4b20      	ldr	r3, [pc, #128]	; (2d98 <ble_pair_key_request_handler+0x114>)
    2d18:	4798      	blx	r3
	at_ble_pair_key_request_t pair_key_request;
        
	memcpy((uint8_t *)&pair_key_request, pair_key, sizeof(at_ble_pair_key_request_t));
	
	if (pair_key_request.passkey_type == AT_BLE_PAIR_PASSKEY_ENTRY) {
	  DBG_LOG("Enter the Passkey(6-Digit) in Terminal:");
    2d1a:	2400      	movs	r4, #0
          
          /* Convert passkey to ASCII format */
          for(idx=0; idx<AT_BLE_PASSKEY_LEN; idx++)
          {
                  passkey[idx] = (passkey[idx]);
                  DBG_LOG_CONT("%c",passkey[idx]);
    2d1c:	4e25      	ldr	r6, [pc, #148]	; (2db4 <ble_pair_key_request_handler+0x130>)
          }
          
          /* Convert passkey to ASCII format */
          for(idx=0; idx<AT_BLE_PASSKEY_LEN; idx++)
          {
                  passkey[idx] = (passkey[idx]);
    2d1e:	ab02      	add	r3, sp, #8
                  DBG_LOG_CONT("%c",passkey[idx]);
    2d20:	5ce0      	ldrb	r0, [r4, r3]
    2d22:	47b0      	blx	r6
    2d24:	3401      	adds	r4, #1
          {
            DBG_LOG("Please Enter the following Pass-code(on other Device):");
          }
          
          /* Convert passkey to ASCII format */
          for(idx=0; idx<AT_BLE_PASSKEY_LEN; idx++)
    2d26:	2c06      	cmp	r4, #6
    2d28:	d1f9      	bne.n	2d1e <ble_pair_key_request_handler+0x9a>
          {
                  passkey[idx] = (passkey[idx]);
                  DBG_LOG_CONT("%c",passkey[idx]);
          }		
          
          if(!(at_ble_pair_key_reply(pair_key->handle, pair_key_request.type, passkey)) == AT_BLE_SUCCESS)
    2d2a:	ab01      	add	r3, sp, #4
    2d2c:	7899      	ldrb	r1, [r3, #2]
    2d2e:	8828      	ldrh	r0, [r5, #0]
    2d30:	aa02      	add	r2, sp, #8
    2d32:	4b22      	ldr	r3, [pc, #136]	; (2dbc <ble_pair_key_request_handler+0x138>)
    2d34:	4798      	blx	r3
    2d36:	2800      	cmp	r0, #0
    2d38:	d021      	beq.n	2d7e <ble_pair_key_request_handler+0xfa>
          {
                  DBG_LOG("Pair-key reply failed");
    2d3a:	4814      	ldr	r0, [pc, #80]	; (2d8c <ble_pair_key_request_handler+0x108>)
    2d3c:	4b14      	ldr	r3, [pc, #80]	; (2d90 <ble_pair_key_request_handler+0x10c>)
    2d3e:	4798      	blx	r3
    2d40:	481f      	ldr	r0, [pc, #124]	; (2dc0 <ble_pair_key_request_handler+0x13c>)
    2d42:	4b15      	ldr	r3, [pc, #84]	; (2d98 <ble_pair_key_request_handler+0x114>)
    2d44:	4798      	blx	r3
		if(pair_key_request.type == AT_BLE_PAIR_OOB)
		{
			DBG_LOG("OOB Feature Not supported");
		}
	}
	return AT_BLE_SUCCESS;	
    2d46:	2000      	movs	r0, #0
    2d48:	e019      	b.n	2d7e <ble_pair_key_request_handler+0xfa>
	}
	else 
	{
		if(pair_key_request.type == AT_BLE_PAIR_OOB)
		{
			DBG_LOG("OOB Feature Not supported");
    2d4a:	4810      	ldr	r0, [pc, #64]	; (2d8c <ble_pair_key_request_handler+0x108>)
    2d4c:	4b10      	ldr	r3, [pc, #64]	; (2d90 <ble_pair_key_request_handler+0x10c>)
    2d4e:	4798      	blx	r3
    2d50:	481c      	ldr	r0, [pc, #112]	; (2dc4 <ble_pair_key_request_handler+0x140>)
    2d52:	4b11      	ldr	r3, [pc, #68]	; (2d98 <ble_pair_key_request_handler+0x114>)
    2d54:	4798      	blx	r3
		}
	}
	return AT_BLE_SUCCESS;	
    2d56:	2000      	movs	r0, #0
    2d58:	e011      	b.n	2d7e <ble_pair_key_request_handler+0xfa>
	if(((pair_key_request.passkey_type == AT_BLE_PAIR_PASSKEY_DISPLAY) &&
	   (pair_key_request.type == AT_BLE_PAIR_PASSKEY)) || (pair_key_request.passkey_type == AT_BLE_PAIR_PASSKEY_ENTRY))
	{
          if(pair_key_request.passkey_type == AT_BLE_PAIR_PASSKEY_ENTRY)
          {
            DBG_LOG("Entered Pass-code:");
    2d5a:	480c      	ldr	r0, [pc, #48]	; (2d8c <ble_pair_key_request_handler+0x108>)
    2d5c:	4b0c      	ldr	r3, [pc, #48]	; (2d90 <ble_pair_key_request_handler+0x10c>)
    2d5e:	4798      	blx	r3
    2d60:	4819      	ldr	r0, [pc, #100]	; (2dc8 <ble_pair_key_request_handler+0x144>)
    2d62:	4b0d      	ldr	r3, [pc, #52]	; (2d98 <ble_pair_key_request_handler+0x114>)
    2d64:	4798      	blx	r3
    2d66:	e7d8      	b.n	2d1a <ble_pair_key_request_handler+0x96>
		} 
	  }
	}	
	
	/* Display passkey */
	if(((pair_key_request.passkey_type == AT_BLE_PAIR_PASSKEY_DISPLAY) &&
    2d68:	ab01      	add	r3, sp, #4
    2d6a:	885a      	ldrh	r2, [r3, #2]
    2d6c:	2380      	movs	r3, #128	; 0x80
    2d6e:	005b      	lsls	r3, r3, #1
    2d70:	429a      	cmp	r2, r3
    2d72:	d0cc      	beq.n	2d0e <ble_pair_key_request_handler+0x8a>
                  DBG_LOG("Pair-key reply failed");
          }
	}
	else 
	{
		if(pair_key_request.type == AT_BLE_PAIR_OOB)
    2d74:	ab01      	add	r3, sp, #4
    2d76:	789b      	ldrb	r3, [r3, #2]
    2d78:	2b01      	cmp	r3, #1
    2d7a:	d0e6      	beq.n	2d4a <ble_pair_key_request_handler+0xc6>
		{
			DBG_LOG("OOB Feature Not supported");
		}
	}
	return AT_BLE_SUCCESS;	
    2d7c:	2000      	movs	r0, #0
}
    2d7e:	b005      	add	sp, #20
    2d80:	bdf0      	pop	{r4, r5, r6, r7, pc}
    2d82:	46c0      	nop			; (mov r8, r8)
    2d84:	00009318 	.word	0x00009318
    2d88:	00007dbf 	.word	0x00007dbf
    2d8c:	00009074 	.word	0x00009074
    2d90:	00007f01 	.word	0x00007f01
    2d94:	00009684 	.word	0x00009684
    2d98:	00007de1 	.word	0x00007de1
    2d9c:	00007530 	.word	0x00007530
    2da0:	00003341 	.word	0x00003341
    2da4:	000096ac 	.word	0x000096ac
    2da8:	000096b8 	.word	0x000096b8
    2dac:	0000475d 	.word	0x0000475d
    2db0:	000094bc 	.word	0x000094bc
    2db4:	00007e15 	.word	0x00007e15
    2db8:	000096cc 	.word	0x000096cc
    2dbc:	00005b85 	.word	0x00005b85
    2dc0:	00009704 	.word	0x00009704
    2dc4:	0000971c 	.word	0x0000971c
    2dc8:	00009738 	.word	0x00009738

00002dcc <ble_encryption_request_handler>:
	return AT_BLE_SUCCESS;
}

/** @brief function handles encryption requests */
at_ble_status_t ble_encryption_request_handler(void *params)
{
    2dcc:	b5f8      	push	{r3, r4, r5, r6, r7, lr}
    2dce:	0006      	movs	r6, r0
	uint8_t idx;
	enc_req = (at_ble_encryption_request_t *)params;

	for (idx = 0; idx < BLE_MAX_DEVICE_CONNECTED; idx++)
	{
		if((ble_dev_info[idx].conn_info.handle == enc_req->handle) && (ble_dev_info[idx].conn_state != BLE_DEVICE_DISCONNECTED) &&
    2dd0:	8805      	ldrh	r5, [r0, #0]
    2dd2:	4b2f      	ldr	r3, [pc, #188]	; (2e90 <ble_encryption_request_handler+0xc4>)
    2dd4:	2200      	movs	r2, #0
	bool key_found = false;
	bool device_found = false;
	uint8_t idx;
	enc_req = (at_ble_encryption_request_t *)params;

	for (idx = 0; idx < BLE_MAX_DEVICE_CONNECTED; idx++)
    2dd6:	2400      	movs	r4, #0
	{
		if((ble_dev_info[idx].conn_info.handle == enc_req->handle) && (ble_dev_info[idx].conn_state != BLE_DEVICE_DISCONNECTED) &&
    2dd8:	0010      	movs	r0, r2
    2dda:	8919      	ldrh	r1, [r3, #8]
    2ddc:	42a9      	cmp	r1, r5
    2dde:	d116      	bne.n	2e0e <ble_encryption_request_handler+0x42>
    2de0:	0019      	movs	r1, r3
    2de2:	315e      	adds	r1, #94	; 0x5e
    2de4:	7809      	ldrb	r1, [r1, #0]
    2de6:	2901      	cmp	r1, #1
    2de8:	d911      	bls.n	2e0e <ble_encryption_request_handler+0x42>
		(ble_dev_info[idx].conn_state != BLE_DEVICE_DEFAULT_IDLE))
		{
			device_found = true;
			ble_dev_info[idx].conn_state = BLE_DEVICE_ENCRYPTION_STATE;
    2dea:	4929      	ldr	r1, [pc, #164]	; (2e90 <ble_encryption_request_handler+0xc4>)
    2dec:	0152      	lsls	r2, r2, #5
    2dee:	1a10      	subs	r0, r2, r0
    2df0:	0080      	lsls	r0, r0, #2
    2df2:	1808      	adds	r0, r1, r0
    2df4:	305e      	adds	r0, #94	; 0x5e
    2df6:	2306      	movs	r3, #6
    2df8:	7003      	strb	r3, [r0, #0]
	{
		DBG_LOG_DEV("host device ediv %x",ble_dev_info[idx].host_ltk.ediv);
		DBG_LOG_DEV("peer device ediv %x",ble_dev_info[idx].bond_info.peer_ltk.ediv);
		DBG_LOG_DEV("enc_req ediv %x", enc_req->ediv);
		DBG_LOG_DEV("The index is %d",idx);
		if((ble_dev_info[idx].host_ltk.ediv == enc_req->ediv)
    2dfa:	0162      	lsls	r2, r4, #5
    2dfc:	1b13      	subs	r3, r2, r4
    2dfe:	009b      	lsls	r3, r3, #2
    2e00:	18cb      	adds	r3, r1, r3
    2e02:	3370      	adds	r3, #112	; 0x70
    2e04:	881a      	ldrh	r2, [r3, #0]
    2e06:	8873      	ldrh	r3, [r6, #2]
    2e08:	429a      	cmp	r2, r3
    2e0a:	d113      	bne.n	2e34 <ble_encryption_request_handler+0x68>
    2e0c:	e006      	b.n	2e1c <ble_encryption_request_handler+0x50>
	bool key_found = false;
	bool device_found = false;
	uint8_t idx;
	enc_req = (at_ble_encryption_request_t *)params;

	for (idx = 0; idx < BLE_MAX_DEVICE_CONNECTED; idx++)
    2e0e:	3401      	adds	r4, #1
    2e10:	b2e4      	uxtb	r4, r4
    2e12:	3201      	adds	r2, #1
    2e14:	337c      	adds	r3, #124	; 0x7c
    2e16:	2c05      	cmp	r4, #5
    2e18:	d1de      	bne.n	2dd8 <ble_encryption_request_handler+0xc>
    2e1a:	e00b      	b.n	2e34 <ble_encryption_request_handler+0x68>
		DBG_LOG_DEV("host device ediv %x",ble_dev_info[idx].host_ltk.ediv);
		DBG_LOG_DEV("peer device ediv %x",ble_dev_info[idx].bond_info.peer_ltk.ediv);
		DBG_LOG_DEV("enc_req ediv %x", enc_req->ediv);
		DBG_LOG_DEV("The index is %d",idx);
		if((ble_dev_info[idx].host_ltk.ediv == enc_req->ediv)
		&& !memcmp(&enc_req->nb[0],&ble_dev_info[idx].host_ltk.nb[0],8))
    2e1c:	0161      	lsls	r1, r4, #5
    2e1e:	1b09      	subs	r1, r1, r4
    2e20:	0089      	lsls	r1, r1, #2
    2e22:	4b1b      	ldr	r3, [pc, #108]	; (2e90 <ble_encryption_request_handler+0xc4>)
    2e24:	1859      	adds	r1, r3, r1
    2e26:	3172      	adds	r1, #114	; 0x72
    2e28:	1d30      	adds	r0, r6, #4
    2e2a:	2208      	movs	r2, #8
    2e2c:	4b19      	ldr	r3, [pc, #100]	; (2e94 <ble_encryption_request_handler+0xc8>)
    2e2e:	4798      	blx	r3
			DBG_LOG_DEV("ENC-Req: Key Found");
		}
	}
	
	
    if(key_found == false)
    2e30:	2800      	cmp	r0, #0
    2e32:	d015      	beq.n	2e60 <ble_encryption_request_handler+0x94>
    {
	    DBG_LOG("Pairing information of peer device is not available.");
    2e34:	4f18      	ldr	r7, [pc, #96]	; (2e98 <ble_encryption_request_handler+0xcc>)
    2e36:	0038      	movs	r0, r7
    2e38:	4e18      	ldr	r6, [pc, #96]	; (2e9c <ble_encryption_request_handler+0xd0>)
    2e3a:	47b0      	blx	r6
    2e3c:	4818      	ldr	r0, [pc, #96]	; (2ea0 <ble_encryption_request_handler+0xd4>)
    2e3e:	4d19      	ldr	r5, [pc, #100]	; (2ea4 <ble_encryption_request_handler+0xd8>)
    2e40:	47a8      	blx	r5
	    DBG_LOG("Please unpair the device from peer device(mobile) settings menu and start pairing again");
    2e42:	0038      	movs	r0, r7
    2e44:	47b0      	blx	r6
    2e46:	4818      	ldr	r0, [pc, #96]	; (2ea8 <ble_encryption_request_handler+0xdc>)
    2e48:	47a8      	blx	r5
		at_ble_disconnect(ble_dev_info[idx].conn_info.handle, AT_BLE_AUTH_FAILURE);
    2e4a:	0163      	lsls	r3, r4, #5
    2e4c:	1b1c      	subs	r4, r3, r4
    2e4e:	00a4      	lsls	r4, r4, #2
    2e50:	4b0f      	ldr	r3, [pc, #60]	; (2e90 <ble_encryption_request_handler+0xc4>)
    2e52:	191c      	adds	r4, r3, r4
    2e54:	8920      	ldrh	r0, [r4, #8]
    2e56:	2105      	movs	r1, #5
    2e58:	4b14      	ldr	r3, [pc, #80]	; (2eac <ble_encryption_request_handler+0xe0>)
    2e5a:	4798      	blx	r3
		return AT_BLE_FAILURE;
    2e5c:	20e2      	movs	r0, #226	; 0xe2
    2e5e:	e016      	b.n	2e8e <ble_encryption_request_handler+0xc2>
    }

	if(!(at_ble_encryption_request_reply(enc_req->handle, ble_dev_info[idx].bond_info.auth, key_found, &ble_dev_info[idx].host_ltk) == AT_BLE_SUCCESS))
    2e60:	0162      	lsls	r2, r4, #5
    2e62:	1b13      	subs	r3, r2, r4
    2e64:	009b      	lsls	r3, r3, #2
    2e66:	3360      	adds	r3, #96	; 0x60
    2e68:	4909      	ldr	r1, [pc, #36]	; (2e90 <ble_encryption_request_handler+0xc4>)
    2e6a:	185b      	adds	r3, r3, r1
    2e6c:	1b14      	subs	r4, r2, r4
    2e6e:	00a4      	lsls	r4, r4, #2
    2e70:	190c      	adds	r4, r1, r4
    2e72:	7d21      	ldrb	r1, [r4, #20]
    2e74:	8830      	ldrh	r0, [r6, #0]
    2e76:	2201      	movs	r2, #1
    2e78:	4c0d      	ldr	r4, [pc, #52]	; (2eb0 <ble_encryption_request_handler+0xe4>)
    2e7a:	47a0      	blx	r4
    2e7c:	2800      	cmp	r0, #0
    2e7e:	d006      	beq.n	2e8e <ble_encryption_request_handler+0xc2>
	{
		DBG_LOG("Encryption Request Reply Failed");
    2e80:	4805      	ldr	r0, [pc, #20]	; (2e98 <ble_encryption_request_handler+0xcc>)
    2e82:	4b06      	ldr	r3, [pc, #24]	; (2e9c <ble_encryption_request_handler+0xd0>)
    2e84:	4798      	blx	r3
    2e86:	480b      	ldr	r0, [pc, #44]	; (2eb4 <ble_encryption_request_handler+0xe8>)
    2e88:	4b06      	ldr	r3, [pc, #24]	; (2ea4 <ble_encryption_request_handler+0xd8>)
    2e8a:	4798      	blx	r3
	}
	else
	{      
		DBG_LOG_DEV("Encryption Request Reply");
	}
	return AT_BLE_SUCCESS;
    2e8c:	2000      	movs	r0, #0
}
    2e8e:	bdf8      	pop	{r3, r4, r5, r6, r7, pc}
    2e90:	20001104 	.word	0x20001104
    2e94:	00007da1 	.word	0x00007da1
    2e98:	00009074 	.word	0x00009074
    2e9c:	00007f01 	.word	0x00007f01
    2ea0:	0000974c 	.word	0x0000974c
    2ea4:	00007de1 	.word	0x00007de1
    2ea8:	00009784 	.word	0x00009784
    2eac:	0000475d 	.word	0x0000475d
    2eb0:	00005cf1 	.word	0x00005cf1
    2eb4:	000097dc 	.word	0x000097dc

00002eb8 <ble_mgr_events_callback_handler>:
}

bool ble_mgr_events_callback_handler(ble_mgr_event_cb_t event_cb_type, 
									ble_mgr_event_t event_type,
									const ble_event_callback_t *ble_event_handler)
{
    2eb8:	b530      	push	{r4, r5, lr}
	uint8_t idx;
	uint8_t max_event_handler = 0;
	bool status = true;
	const ble_event_callback_t **ble_event_cb_ptr = NULL;
	if (ble_event_handler != NULL)
    2eba:	2a00      	cmp	r2, #0
    2ebc:	d047      	beq.n	2f4e <ble_mgr_events_callback_handler+0x96>
	{
		switch(event_type)
    2ebe:	2906      	cmp	r1, #6
    2ec0:	d847      	bhi.n	2f52 <ble_mgr_events_callback_handler+0x9a>
    2ec2:	0089      	lsls	r1, r1, #2
    2ec4:	4b28      	ldr	r3, [pc, #160]	; (2f68 <ble_mgr_events_callback_handler+0xb0>)
    2ec6:	585b      	ldr	r3, [r3, r1]
    2ec8:	469f      	mov	pc, r3
			}
			break;
			
			case BLE_GATT_SERVER_EVENT_TYPE:
			{
				ble_event_cb_ptr = ble_mgr_gatt_server_event_cb;
    2eca:	4b28      	ldr	r3, [pc, #160]	; (2f6c <ble_mgr_events_callback_handler+0xb4>)
				max_event_handler = MAX_GATT_SERVER_SUBSCRIBERS;
    2ecc:	2405      	movs	r4, #5
    2ece:	e00a      	b.n	2ee6 <ble_mgr_events_callback_handler+0x2e>
			}
			break;
			
			case BLE_GATT_HTPT_EVENT_TYPE:
			{
				ble_event_cb_ptr = ble_mgr_htpt_event_cb;
    2ed0:	4b27      	ldr	r3, [pc, #156]	; (2f70 <ble_mgr_events_callback_handler+0xb8>)
				max_event_handler = MAX_HTPT_EVENT_SUBSCRIBERS;
    2ed2:	2401      	movs	r4, #1
			}
			break;
    2ed4:	e007      	b.n	2ee6 <ble_mgr_events_callback_handler+0x2e>
			
			case BLE_DTM_EVENT_TYPE:
			{
				ble_event_cb_ptr = ble_mgr_dtm_event_cb;
    2ed6:	4b27      	ldr	r3, [pc, #156]	; (2f74 <ble_mgr_events_callback_handler+0xbc>)
				max_event_handler = MAX_DTM_EVENT_SUBSCRIBERS;
    2ed8:	2405      	movs	r4, #5
			}
			break;
    2eda:	e004      	b.n	2ee6 <ble_mgr_events_callback_handler+0x2e>
			
			case BLE_CUSTOM_EVENT_TYPE:
			{
				ble_event_cb_ptr = ble_mgr_custom_event_cb;
    2edc:	4b26      	ldr	r3, [pc, #152]	; (2f78 <ble_mgr_events_callback_handler+0xc0>)
				max_event_handler = MAX_CUSTOM_EVENT_SUBSCRIBERS;
    2ede:	2401      	movs	r4, #1
			}
			break;
    2ee0:	e001      	b.n	2ee6 <ble_mgr_events_callback_handler+0x2e>
	{
		switch(event_type)
		{
			case BLE_GAP_EVENT_TYPE:
			{
				ble_event_cb_ptr = ble_mgr_gap_event_cb;
    2ee2:	4b26      	ldr	r3, [pc, #152]	; (2f7c <ble_mgr_events_callback_handler+0xc4>)
				max_event_handler = MAX_GAP_EVENT_SUBSCRIBERS;
    2ee4:	2405      	movs	r4, #5
		}
		
		if (status)
		{
			status = false; //Defaults to Failure[No Space to register, Not Found, Invalid Type]scenario
			if (event_cb_type == REGISTER_CALL_BACK)
    2ee6:	2800      	cmp	r0, #0
    2ee8:	d116      	bne.n	2f18 <ble_mgr_events_callback_handler+0x60>
			{
				for (idx = 0; idx < max_event_handler; idx++)
				{
					if(ble_event_cb_ptr[idx] == NULL)
    2eea:	6819      	ldr	r1, [r3, #0]
    2eec:	2900      	cmp	r1, #0
    2eee:	d10b      	bne.n	2f08 <ble_mgr_events_callback_handler+0x50>
    2ef0:	e006      	b.n	2f00 <ble_mgr_events_callback_handler+0x48>
    2ef2:	001d      	movs	r5, r3
    2ef4:	3304      	adds	r3, #4
    2ef6:	1f18      	subs	r0, r3, #4
    2ef8:	6800      	ldr	r0, [r0, #0]
    2efa:	2800      	cmp	r0, #0
    2efc:	d106      	bne.n	2f0c <ble_mgr_events_callback_handler+0x54>
    2efe:	e000      	b.n	2f02 <ble_mgr_events_callback_handler+0x4a>
    2f00:	001d      	movs	r5, r3
					{
						ble_event_cb_ptr[idx] = ble_event_handler;
    2f02:	602a      	str	r2, [r5, #0]
						status = true; //Successfully registered to table
    2f04:	2101      	movs	r1, #1
						break;
    2f06:	e02c      	b.n	2f62 <ble_mgr_events_callback_handler+0xaa>
    2f08:	3304      	adds	r3, #4
			status = false; //Defaults to Failure[No Space to register, Not Found, Invalid Type]scenario
			if (event_cb_type == REGISTER_CALL_BACK)
			{
				for (idx = 0; idx < max_event_handler; idx++)
				{
					if(ble_event_cb_ptr[idx] == NULL)
    2f0a:	2100      	movs	r1, #0
		if (status)
		{
			status = false; //Defaults to Failure[No Space to register, Not Found, Invalid Type]scenario
			if (event_cb_type == REGISTER_CALL_BACK)
			{
				for (idx = 0; idx < max_event_handler; idx++)
    2f0c:	3101      	adds	r1, #1
    2f0e:	b2c9      	uxtb	r1, r1
    2f10:	42a1      	cmp	r1, r4
    2f12:	d3ee      	bcc.n	2ef2 <ble_mgr_events_callback_handler+0x3a>
			break;
		}
		
		if (status)
		{
			status = false; //Defaults to Failure[No Space to register, Not Found, Invalid Type]scenario
    2f14:	2100      	movs	r1, #0
    2f16:	e024      	b.n	2f62 <ble_mgr_events_callback_handler+0xaa>
    2f18:	2100      	movs	r1, #0
						status = true; //Successfully registered to table
						break;
					}
				}
			}
			else if(event_cb_type == UNREGISTER_CALL_BACK)
    2f1a:	2801      	cmp	r0, #1
    2f1c:	d121      	bne.n	2f62 <ble_mgr_events_callback_handler+0xaa>
			{
				for (idx = 0; idx < max_event_handler; idx++)
				{
					if(ble_event_cb_ptr[idx] == ble_event_handler)
    2f1e:	6819      	ldr	r1, [r3, #0]
    2f20:	428a      	cmp	r2, r1
    2f22:	d10c      	bne.n	2f3e <ble_mgr_events_callback_handler+0x86>
    2f24:	e006      	b.n	2f34 <ble_mgr_events_callback_handler+0x7c>
    2f26:	001d      	movs	r5, r3
    2f28:	3304      	adds	r3, #4
    2f2a:	1f18      	subs	r0, r3, #4
    2f2c:	6800      	ldr	r0, [r0, #0]
    2f2e:	4282      	cmp	r2, r0
    2f30:	d107      	bne.n	2f42 <ble_mgr_events_callback_handler+0x8a>
    2f32:	e000      	b.n	2f36 <ble_mgr_events_callback_handler+0x7e>
    2f34:	001d      	movs	r5, r3
					{
						ble_event_cb_ptr[idx] = NULL;
    2f36:	2300      	movs	r3, #0
    2f38:	602b      	str	r3, [r5, #0]
						status = true;//Successfully unregistered from table
    2f3a:	2101      	movs	r1, #1
						break;
    2f3c:	e011      	b.n	2f62 <ble_mgr_events_callback_handler+0xaa>
    2f3e:	3304      	adds	r3, #4
			}
			else if(event_cb_type == UNREGISTER_CALL_BACK)
			{
				for (idx = 0; idx < max_event_handler; idx++)
				{
					if(ble_event_cb_ptr[idx] == ble_event_handler)
    2f40:	2100      	movs	r1, #0
					}
				}
			}
			else if(event_cb_type == UNREGISTER_CALL_BACK)
			{
				for (idx = 0; idx < max_event_handler; idx++)
    2f42:	3101      	adds	r1, #1
    2f44:	b2c9      	uxtb	r1, r1
    2f46:	42a1      	cmp	r1, r4
    2f48:	d3ed      	bcc.n	2f26 <ble_mgr_events_callback_handler+0x6e>
			break;
		}
		
		if (status)
		{
			status = false; //Defaults to Failure[No Space to register, Not Found, Invalid Type]scenario
    2f4a:	2100      	movs	r1, #0
    2f4c:	e009      	b.n	2f62 <ble_mgr_events_callback_handler+0xaa>
			}			
		}
	}
	else
	{
		status = false; //Invalid parameter
    2f4e:	2100      	movs	r1, #0
    2f50:	e007      	b.n	2f62 <ble_mgr_events_callback_handler+0xaa>
	uint8_t max_event_handler = 0;
	bool status = true;
	const ble_event_callback_t **ble_event_cb_ptr = NULL;
	if (ble_event_handler != NULL)
	{
		switch(event_type)
    2f52:	2100      	movs	r1, #0
    2f54:	e005      	b.n	2f62 <ble_mgr_events_callback_handler+0xaa>
			}
			break;
			
			case BLE_GATT_CLIENT_EVENT_TYPE:
			{
				ble_event_cb_ptr = ble_mgr_gatt_client_event_cb;
    2f56:	4b0a      	ldr	r3, [pc, #40]	; (2f80 <ble_mgr_events_callback_handler+0xc8>)
				max_event_handler = MAX_GATT_CLIENT_SUBSCRIBERS;
    2f58:	2405      	movs	r4, #5
    2f5a:	e7c4      	b.n	2ee6 <ble_mgr_events_callback_handler+0x2e>
			}
			break;
			
			case BLE_L2CAP_EVENT_TYPE:
			{
				ble_event_cb_ptr = ble_mgr_l2cap_event_cb;
    2f5c:	4b09      	ldr	r3, [pc, #36]	; (2f84 <ble_mgr_events_callback_handler+0xcc>)
				max_event_handler = MAX_L2CAP_EVENT_SUBSCRIBERS;
    2f5e:	2401      	movs	r4, #1
    2f60:	e7c1      	b.n	2ee6 <ble_mgr_events_callback_handler+0x2e>
	else
	{
		status = false; //Invalid parameter
	}
	return status;
}
    2f62:	0008      	movs	r0, r1
    2f64:	bd30      	pop	{r4, r5, pc}
    2f66:	46c0      	nop			; (mov r8, r8)
    2f68:	00009210 	.word	0x00009210
    2f6c:	200010f0 	.word	0x200010f0
    2f70:	200010ec 	.word	0x200010ec
    2f74:	20001374 	.word	0x20001374
    2f78:	2000193c 	.word	0x2000193c
    2f7c:	20001388 	.word	0x20001388
    2f80:	2000139c 	.word	0x2000139c
    2f84:	200013f8 	.word	0x200013f8

00002f88 <ble_device_init>:

at_ble_init_config_t pf_cfg;

/** @brief BLE device initialization */
void ble_device_init(at_ble_addr_t *addr)
{
    2f88:	b5f0      	push	{r4, r5, r6, r7, lr}
    2f8a:	4647      	mov	r7, r8
    2f8c:	b480      	push	{r7}
    2f8e:	b090      	sub	sp, #64	; 0x40
    2f90:	0005      	movs	r5, r0
	char *dev_name = NULL;

	/* Initialize the BLE Event callbacks */
	for (idx = 0; idx < MAX_GAP_EVENT_SUBSCRIBERS; idx++)
	{
		ble_mgr_gap_event_cb[idx] = NULL;
    2f92:	4a6a      	ldr	r2, [pc, #424]	; (313c <ble_device_init+0x1b4>)
    2f94:	2300      	movs	r3, #0
    2f96:	6013      	str	r3, [r2, #0]
    2f98:	6053      	str	r3, [r2, #4]
    2f9a:	6093      	str	r3, [r2, #8]
    2f9c:	60d3      	str	r3, [r2, #12]
    2f9e:	6113      	str	r3, [r2, #16]
	}
	
	for (idx = 0; idx < MAX_GATT_CLIENT_SUBSCRIBERS; idx++)
	{
		ble_mgr_gatt_client_event_cb[idx] = NULL;
    2fa0:	4a67      	ldr	r2, [pc, #412]	; (3140 <ble_device_init+0x1b8>)
    2fa2:	6013      	str	r3, [r2, #0]
    2fa4:	6053      	str	r3, [r2, #4]
    2fa6:	6093      	str	r3, [r2, #8]
    2fa8:	60d3      	str	r3, [r2, #12]
    2faa:	6113      	str	r3, [r2, #16]
	}
	
	for (idx = 0; idx < MAX_GATT_SERVER_SUBSCRIBERS; idx++)
	{
		ble_mgr_gatt_server_event_cb[idx] = NULL;
    2fac:	4a65      	ldr	r2, [pc, #404]	; (3144 <ble_device_init+0x1bc>)
    2fae:	6013      	str	r3, [r2, #0]
    2fb0:	6053      	str	r3, [r2, #4]
    2fb2:	6093      	str	r3, [r2, #8]
    2fb4:	60d3      	str	r3, [r2, #12]
    2fb6:	6113      	str	r3, [r2, #16]
	}
	
	for (idx = 0; idx < MAX_L2CAP_EVENT_SUBSCRIBERS; idx++)
	{
		ble_mgr_l2cap_event_cb[idx] = NULL;
    2fb8:	4a63      	ldr	r2, [pc, #396]	; (3148 <ble_device_init+0x1c0>)
    2fba:	6013      	str	r3, [r2, #0]
	}
	
	for (idx = 0; idx < MAX_HTPT_EVENT_SUBSCRIBERS; idx++)
	{
		ble_mgr_htpt_event_cb[idx] = NULL;
    2fbc:	4a63      	ldr	r2, [pc, #396]	; (314c <ble_device_init+0x1c4>)
    2fbe:	6013      	str	r3, [r2, #0]
	}
	
	for (idx = 0; idx < MAX_DTM_EVENT_SUBSCRIBERS; idx++)
	{
		ble_mgr_dtm_event_cb[idx] = NULL;
    2fc0:	4a63      	ldr	r2, [pc, #396]	; (3150 <ble_device_init+0x1c8>)
    2fc2:	6013      	str	r3, [r2, #0]
    2fc4:	6053      	str	r3, [r2, #4]
    2fc6:	6093      	str	r3, [r2, #8]
    2fc8:	60d3      	str	r3, [r2, #12]
    2fca:	6113      	str	r3, [r2, #16]
	}
	
	for (idx = 0; idx < MAX_CUSTOM_EVENT_SUBSCRIBERS; idx++)
	{
		ble_mgr_custom_event_cb[idx] = NULL;
    2fcc:	4a61      	ldr	r2, [pc, #388]	; (3154 <ble_device_init+0x1cc>)
    2fce:	6013      	str	r3, [r2, #0]
    2fd0:	4c61      	ldr	r4, [pc, #388]	; (3158 <ble_device_init+0x1d0>)
    2fd2:	239b      	movs	r3, #155	; 0x9b
    2fd4:	009b      	lsls	r3, r3, #2
    2fd6:	4698      	mov	r8, r3
    2fd8:	44a0      	add	r8, r4
	}
        
    /* Set the BLE Device connection state */
    for (idx = 0; idx < BLE_MAX_DEVICE_CONNECTED; idx++)
    {
        memset(&ble_dev_info[idx], 0, sizeof(ble_connected_dev_info_t));
    2fda:	4f60      	ldr	r7, [pc, #384]	; (315c <ble_device_init+0x1d4>)
		ble_dev_info[idx].conn_state = BLE_DEVICE_DEFAULT_IDLE;
		/* Set Invalid to Bonding information */
		ble_dev_info[idx].bond_info.status = AT_BLE_GAP_INVALID_PARAM;
    2fdc:	2640      	movs	r6, #64	; 0x40
	}
        
    /* Set the BLE Device connection state */
    for (idx = 0; idx < BLE_MAX_DEVICE_CONNECTED; idx++)
    {
        memset(&ble_dev_info[idx], 0, sizeof(ble_connected_dev_info_t));
    2fde:	227c      	movs	r2, #124	; 0x7c
    2fe0:	2100      	movs	r1, #0
    2fe2:	0020      	movs	r0, r4
    2fe4:	47b8      	blx	r7
		ble_dev_info[idx].conn_state = BLE_DEVICE_DEFAULT_IDLE;
    2fe6:	0023      	movs	r3, r4
    2fe8:	335e      	adds	r3, #94	; 0x5e
    2fea:	2200      	movs	r2, #0
    2fec:	701a      	strb	r2, [r3, #0]
		/* Set Invalid to Bonding information */
		ble_dev_info[idx].bond_info.status = AT_BLE_GAP_INVALID_PARAM;
    2fee:	7626      	strb	r6, [r4, #24]
    2ff0:	347c      	adds	r4, #124	; 0x7c
	{
		ble_mgr_custom_event_cb[idx] = NULL;
	}
        
    /* Set the BLE Device connection state */
    for (idx = 0; idx < BLE_MAX_DEVICE_CONNECTED; idx++)
    2ff2:	45a0      	cmp	r8, r4
    2ff4:	d1f3      	bne.n	2fde <ble_device_init+0x56>
		ble_dev_info[idx].conn_state = BLE_DEVICE_DEFAULT_IDLE;
		/* Set Invalid to Bonding information */
		ble_dev_info[idx].bond_info.status = AT_BLE_GAP_INVALID_PARAM;
    }
	/* Need to reset the count to 0 for storing it only in SRAM */
	ble_device_count = 0; 
    2ff6:	4b5a      	ldr	r3, [pc, #360]	; (3160 <ble_device_init+0x1d8>)
    2ff8:	701a      	strb	r2, [r3, #0]
	
	
#if defined ATT_DB_MEMORY
	pf_cfg.memPool.memSize = BLE_ATT_DB_MEMORY_SIZE;
    2ffa:	4c5a      	ldr	r4, [pc, #360]	; (3164 <ble_device_init+0x1dc>)
    2ffc:	4b5a      	ldr	r3, [pc, #360]	; (3168 <ble_device_init+0x1e0>)
    2ffe:	6063      	str	r3, [r4, #4]
	pf_cfg.memPool.memStartAdd = (uint8_t *)&att_db_data;
    3000:	4b5a      	ldr	r3, [pc, #360]	; (316c <ble_device_init+0x1e4>)
    3002:	6023      	str	r3, [r4, #0]
#else
	pf_cfg.memPool.memSize = 0;
	pf_cfg.memPool.memStartAdd = NULL;
#endif
	/*Bus configuration*/
	pf_cfg.bus_info.bus_type = AT_BLE_UART;
    3004:	2301      	movs	r3, #1
    3006:	322c      	adds	r2, #44	; 0x2c
    3008:	54a3      	strb	r3, [r4, r2]

#if UART_FLOWCONTROL_6WIRE_MODE == true
	/* Enable Hardware Flow-control on BTLC1000 */
   pf_cfg.bus_info.bus_flow_control_enabled = true; // enable flow control
    300a:	3201      	adds	r2, #1
    300c:	54a3      	strb	r3, [r4, r2]
	/* Disable Hardware Flow-control on BTLC1000 */
   pf_cfg.bus_info.bus_flow_control_enabled = false; // Disable flow control
#endif

	/* Register Platform callback API's */
	pf_cfg.platform_api_list.at_ble_create_timer = platform_create_timer;
    300e:	4b58      	ldr	r3, [pc, #352]	; (3170 <ble_device_init+0x1e8>)
    3010:	60a3      	str	r3, [r4, #8]
	pf_cfg.platform_api_list.at_ble_delete_timer = platform_delete_timer;
    3012:	4b58      	ldr	r3, [pc, #352]	; (3174 <ble_device_init+0x1ec>)
    3014:	60e3      	str	r3, [r4, #12]
	pf_cfg.platform_api_list.at_ble_start_timer = platform_start_timer;
    3016:	4b58      	ldr	r3, [pc, #352]	; (3178 <ble_device_init+0x1f0>)
    3018:	6123      	str	r3, [r4, #16]
	pf_cfg.platform_api_list.at_ble_stop_timer = platform_stop_timer;
    301a:	4b58      	ldr	r3, [pc, #352]	; (317c <ble_device_init+0x1f4>)
    301c:	6163      	str	r3, [r4, #20]
	pf_cfg.platform_api_list.at_ble_sleep = platform_sleep;
    301e:	4b58      	ldr	r3, [pc, #352]	; (3180 <ble_device_init+0x1f8>)
    3020:	61a3      	str	r3, [r4, #24]
	pf_cfg.platform_api_list.at_ble_gpio_set = platform_gpio_set;
    3022:	4b58      	ldr	r3, [pc, #352]	; (3184 <ble_device_init+0x1fc>)
    3024:	61e3      	str	r3, [r4, #28]
	pf_cfg.platform_api_list.at_ble_send_sync = platform_send_sync;
    3026:	4b58      	ldr	r3, [pc, #352]	; (3188 <ble_device_init+0x200>)
    3028:	6223      	str	r3, [r4, #32]
	pf_cfg.platform_api_list.at_ble_recv_async = platform_recv_async;
    302a:	4b58      	ldr	r3, [pc, #352]	; (318c <ble_device_init+0x204>)
    302c:	6263      	str	r3, [r4, #36]	; 0x24
	pf_cfg.platform_api_list.at_ble_reconfigure_usart = platform_configure_hw_fc_uart;
    302e:	4b58      	ldr	r3, [pc, #352]	; (3190 <ble_device_init+0x208>)
    3030:	62a3      	str	r3, [r4, #40]	; 0x28
	
	platform_init(pf_cfg.bus_info.bus_type, pf_cfg.bus_info.bus_flow_control_enabled);
    3032:	2101      	movs	r1, #1
    3034:	2001      	movs	r0, #1
    3036:	4b57      	ldr	r3, [pc, #348]	; (3194 <ble_device_init+0x20c>)
    3038:	4798      	blx	r3

/* Initialize the BLE */
static void ble_init(at_ble_init_config_t * args)
{
	/* Initialize the platform */
	DBG_LOG("Initializing BTLC1000");
    303a:	4857      	ldr	r0, [pc, #348]	; (3198 <ble_device_init+0x210>)
    303c:	4b57      	ldr	r3, [pc, #348]	; (319c <ble_device_init+0x214>)
    303e:	4798      	blx	r3
    3040:	4857      	ldr	r0, [pc, #348]	; (31a0 <ble_device_init+0x218>)
    3042:	4b58      	ldr	r3, [pc, #352]	; (31a4 <ble_device_init+0x21c>)
    3044:	4798      	blx	r3
	
	/* Init BLE device */
	if(at_ble_init(args) != AT_BLE_SUCCESS)
    3046:	0020      	movs	r0, r4
    3048:	4b57      	ldr	r3, [pc, #348]	; (31a8 <ble_device_init+0x220>)
    304a:	4798      	blx	r3
    304c:	2800      	cmp	r0, #0
    304e:	d00a      	beq.n	3066 <ble_device_init+0xde>
	{
		DBG_LOG("BTLC1000 Initialization failed");
    3050:	4f51      	ldr	r7, [pc, #324]	; (3198 <ble_device_init+0x210>)
    3052:	0038      	movs	r0, r7
    3054:	4e51      	ldr	r6, [pc, #324]	; (319c <ble_device_init+0x214>)
    3056:	47b0      	blx	r6
    3058:	4854      	ldr	r0, [pc, #336]	; (31ac <ble_device_init+0x224>)
    305a:	4c52      	ldr	r4, [pc, #328]	; (31a4 <ble_device_init+0x21c>)
    305c:	47a0      	blx	r4
		DBG_LOG("Please check the power and connection / hardware connector");	
    305e:	0038      	movs	r0, r7
    3060:	47b0      	blx	r6
    3062:	4853      	ldr	r0, [pc, #332]	; (31b0 <ble_device_init+0x228>)
    3064:	47a0      	blx	r4
	platform_init(pf_cfg.bus_info.bus_type, pf_cfg.bus_info.bus_flow_control_enabled);
	
	ble_init(&pf_cfg);

	/* Register it in first index of callback handler */
	ble_mgr_events_callback_handler(REGISTER_CALL_BACK, 
    3066:	4a53      	ldr	r2, [pc, #332]	; (31b4 <ble_device_init+0x22c>)
    3068:	2100      	movs	r1, #0
    306a:	2000      	movs	r0, #0
    306c:	4c52      	ldr	r4, [pc, #328]	; (31b8 <ble_device_init+0x230>)
    306e:	47a0      	blx	r4
									BLE_GAP_EVENT_TYPE, 
									ble_mgr_gap_handle);
	ble_mgr_events_callback_handler(REGISTER_CALL_BACK,
    3070:	4a52      	ldr	r2, [pc, #328]	; (31bc <ble_device_init+0x234>)
    3072:	2102      	movs	r1, #2
    3074:	2000      	movs	r0, #0
    3076:	47a0      	blx	r4
{
	if ((name == NULL) || (name_len < 1))
	{
		return AT_BLE_INVALID_PARAM;
	}
	return at_ble_device_name_set(name, name_len);
    3078:	2108      	movs	r1, #8
    307a:	4851      	ldr	r0, [pc, #324]	; (31c0 <ble_device_init+0x238>)
    307c:	4b51      	ldr	r3, [pc, #324]	; (31c4 <ble_device_init+0x23c>)
    307e:	4798      	blx	r3
	ble_mgr_events_callback_handler(REGISTER_CALL_BACK,
									BLE_GATT_SERVER_EVENT_TYPE,
									ble_mgr_gatt_server_handle);
									
	dev_name = (char *)BLE_DEVICE_NAME;
	if (ble_set_device_name((uint8_t *)dev_name, strlen(dev_name)) != AT_BLE_SUCCESS)
    3080:	2800      	cmp	r0, #0
    3082:	d005      	beq.n	3090 <ble_device_init+0x108>
	{
		DBG_LOG("Device name set failed");
    3084:	4844      	ldr	r0, [pc, #272]	; (3198 <ble_device_init+0x210>)
    3086:	4b45      	ldr	r3, [pc, #276]	; (319c <ble_device_init+0x214>)
    3088:	4798      	blx	r3
    308a:	484f      	ldr	r0, [pc, #316]	; (31c8 <ble_device_init+0x240>)
    308c:	4b45      	ldr	r3, [pc, #276]	; (31a4 <ble_device_init+0x21c>)
    308e:	4798      	blx	r3

/* Set BLE Address and device configuration, If address is NULL then it will use BD public address */
static void ble_set_dev_config(at_ble_addr_t *addr)
{
	at_ble_dev_config_t stDevConfig;
	at_ble_addr_t address = {AT_BLE_ADDRESS_PUBLIC, {0xAB, 0xCD, 0xEF, 0xAB, 0xCD, 0xEF}};
    3090:	2207      	movs	r2, #7
    3092:	494e      	ldr	r1, [pc, #312]	; (31cc <ble_device_init+0x244>)
    3094:	3108      	adds	r1, #8
    3096:	a804      	add	r0, sp, #16
    3098:	4b4d      	ldr	r3, [pc, #308]	; (31d0 <ble_device_init+0x248>)
    309a:	4798      	blx	r3
	
	if (addr == NULL)
    309c:	2d00      	cmp	r5, #0
    309e:	d10c      	bne.n	30ba <ble_device_init+0x132>
	{		
		/* get BD address from BLE device */
		if(at_ble_addr_get(&address) != AT_BLE_SUCCESS)
    30a0:	a804      	add	r0, sp, #16
    30a2:	4b4c      	ldr	r3, [pc, #304]	; (31d4 <ble_device_init+0x24c>)
    30a4:	4798      	blx	r3
		{
			DBG_LOG("BD address get failed");
		}
		
		/* Copy the BD address into address pointer */
		addr = &address;
    30a6:	ad04      	add	r5, sp, #16
	at_ble_addr_t address = {AT_BLE_ADDRESS_PUBLIC, {0xAB, 0xCD, 0xEF, 0xAB, 0xCD, 0xEF}};
	
	if (addr == NULL)
	{		
		/* get BD address from BLE device */
		if(at_ble_addr_get(&address) != AT_BLE_SUCCESS)
    30a8:	2800      	cmp	r0, #0
    30aa:	d006      	beq.n	30ba <ble_device_init+0x132>
		{
			DBG_LOG("BD address get failed");
    30ac:	483a      	ldr	r0, [pc, #232]	; (3198 <ble_device_init+0x210>)
    30ae:	4b3b      	ldr	r3, [pc, #236]	; (319c <ble_device_init+0x214>)
    30b0:	4798      	blx	r3
    30b2:	4849      	ldr	r0, [pc, #292]	; (31d8 <ble_device_init+0x250>)
    30b4:	4b3b      	ldr	r3, [pc, #236]	; (31a4 <ble_device_init+0x21c>)
    30b6:	4798      	blx	r3
		}
		
		/* Copy the BD address into address pointer */
		addr = &address;
    30b8:	ad04      	add	r5, sp, #16
	}
	
	DBG_LOG("BD Address:0x%02X%02X%02X%02X%02X%02X, Address Type:%d",
    30ba:	4837      	ldr	r0, [pc, #220]	; (3198 <ble_device_init+0x210>)
    30bc:	4b37      	ldr	r3, [pc, #220]	; (319c <ble_device_init+0x214>)
    30be:	4798      	blx	r3
    30c0:	792b      	ldrb	r3, [r5, #4]
    30c2:	796a      	ldrb	r2, [r5, #5]
    30c4:	79a9      	ldrb	r1, [r5, #6]
    30c6:	7828      	ldrb	r0, [r5, #0]
    30c8:	9003      	str	r0, [sp, #12]
    30ca:	7868      	ldrb	r0, [r5, #1]
    30cc:	9002      	str	r0, [sp, #8]
    30ce:	78a8      	ldrb	r0, [r5, #2]
    30d0:	9001      	str	r0, [sp, #4]
    30d2:	78e8      	ldrb	r0, [r5, #3]
    30d4:	9000      	str	r0, [sp, #0]
    30d6:	4841      	ldr	r0, [pc, #260]	; (31dc <ble_device_init+0x254>)
    30d8:	4c32      	ldr	r4, [pc, #200]	; (31a4 <ble_device_init+0x21c>)
    30da:	47a0      	blx	r4
	addr->addr[1],
	addr->addr[0], addr->type);
	
	/* Set device configuration */
	/* Device role */
	stDevConfig.role = (at_ble_dev_role_t)BLE_DEVICE_ROLE;
    30dc:	ac06      	add	r4, sp, #24
    30de:	230a      	movs	r3, #10
    30e0:	7023      	strb	r3, [r4, #0]
	/* device renew duration */
	stDevConfig.renew_dur = AT_RENEW_DUR_VAL_MIN;
    30e2:	4b3f      	ldr	r3, [pc, #252]	; (31e0 <ble_device_init+0x258>)
    30e4:	8063      	strh	r3, [r4, #2]
	/* device address type */
	memcpy((uint8_t *)&stDevConfig.address, (uint8_t *)addr, sizeof(at_ble_addr_t));
    30e6:	2207      	movs	r2, #7
    30e8:	0029      	movs	r1, r5
    30ea:	a807      	add	r0, sp, #28
    30ec:	4b38      	ldr	r3, [pc, #224]	; (31d0 <ble_device_init+0x248>)
    30ee:	4798      	blx	r3
	/* Attributes */
	stDevConfig.att_cfg.b2NamePerm = AT_BLE_WRITE_DISABLE;
    30f0:	2300      	movs	r3, #0
    30f2:	76e3      	strb	r3, [r4, #27]
	stDevConfig.att_cfg.b2AppearancePerm = AT_BLE_WRITE_DISABLE;
    30f4:	7723      	strb	r3, [r4, #28]
	stDevConfig.att_cfg.b1EnableSpcs = 0;
    30f6:	7763      	strb	r3, [r4, #29]
	stDevConfig.att_cfg.b1EnableServiceChanged = 0;
    30f8:	77a3      	strb	r3, [r4, #30]
	stDevConfig.att_cfg.b2Rfu = AT_BLE_WRITE_DISABLE;
    30fa:	77e3      	strb	r3, [r4, #31]
	/* Handles */
	stDevConfig.gap_start_hdl = AT_BLE_AUTO_ALLOC_HANDLE;
    30fc:	8423      	strh	r3, [r4, #32]
	stDevConfig.gatt_start_hdl = AT_BLE_AUTO_ALLOC_HANDLE;
    30fe:	8463      	strh	r3, [r4, #34]	; 0x22
	/* MTU */
	stDevConfig.max_mtu = AT_MTU_VAL_RECOMMENDED;
    3100:	2380      	movs	r3, #128	; 0x80
    3102:	009b      	lsls	r3, r3, #2
    3104:	84a3      	strh	r3, [r4, #36]	; 0x24
	
	if(at_ble_set_dev_config(&stDevConfig) != AT_BLE_SUCCESS)
    3106:	0020      	movs	r0, r4
    3108:	4b36      	ldr	r3, [pc, #216]	; (31e4 <ble_device_init+0x25c>)
    310a:	4798      	blx	r3
    310c:	2800      	cmp	r0, #0
    310e:	d005      	beq.n	311c <ble_device_init+0x194>
	{
		DBG_LOG("Set BLE Device configuration failed");
    3110:	4821      	ldr	r0, [pc, #132]	; (3198 <ble_device_init+0x210>)
    3112:	4b22      	ldr	r3, [pc, #136]	; (319c <ble_device_init+0x214>)
    3114:	4798      	blx	r3
    3116:	4834      	ldr	r0, [pc, #208]	; (31e8 <ble_device_init+0x260>)
    3118:	4b22      	ldr	r3, [pc, #136]	; (31a4 <ble_device_init+0x21c>)
    311a:	4798      	blx	r3
	}
	
	if (at_ble_addr_set(addr) != AT_BLE_SUCCESS)
    311c:	0028      	movs	r0, r5
    311e:	4b33      	ldr	r3, [pc, #204]	; (31ec <ble_device_init+0x264>)
    3120:	4798      	blx	r3
    3122:	2800      	cmp	r0, #0
    3124:	d005      	beq.n	3132 <ble_device_init+0x1aa>
	{
		DBG_LOG("Set BLE Device Address failed");
    3126:	481c      	ldr	r0, [pc, #112]	; (3198 <ble_device_init+0x210>)
    3128:	4b1c      	ldr	r3, [pc, #112]	; (319c <ble_device_init+0x214>)
    312a:	4798      	blx	r3
    312c:	4830      	ldr	r0, [pc, #192]	; (31f0 <ble_device_init+0x268>)
    312e:	4b1d      	ldr	r3, [pc, #116]	; (31a4 <ble_device_init+0x21c>)
    3130:	4798      	blx	r3
	{
		DBG_LOG("Device name set failed");
	}
	
	ble_set_dev_config(addr);	
}
    3132:	b010      	add	sp, #64	; 0x40
    3134:	bc04      	pop	{r2}
    3136:	4690      	mov	r8, r2
    3138:	bdf0      	pop	{r4, r5, r6, r7, pc}
    313a:	46c0      	nop			; (mov r8, r8)
    313c:	20001388 	.word	0x20001388
    3140:	2000139c 	.word	0x2000139c
    3144:	200010f0 	.word	0x200010f0
    3148:	200013f8 	.word	0x200013f8
    314c:	200010ec 	.word	0x200010ec
    3150:	20001374 	.word	0x20001374
    3154:	2000193c 	.word	0x2000193c
    3158:	20001104 	.word	0x20001104
    315c:	00007dd1 	.word	0x00007dd1
    3160:	20001370 	.word	0x20001370
    3164:	200013c4 	.word	0x200013c4
    3168:	000004e2 	.word	0x000004e2
    316c:	2000028c 	.word	0x2000028c
    3170:	00003921 	.word	0x00003921
    3174:	0000392d 	.word	0x0000392d
    3178:	0000394d 	.word	0x0000394d
    317c:	00003971 	.word	0x00003971
    3180:	00003991 	.word	0x00003991
    3184:	000038a1 	.word	0x000038a1
    3188:	00003885 	.word	0x00003885
    318c:	000038d5 	.word	0x000038d5
    3190:	00003915 	.word	0x00003915
    3194:	00003819 	.word	0x00003819
    3198:	00009074 	.word	0x00009074
    319c:	00007f01 	.word	0x00007f01
    31a0:	000097fc 	.word	0x000097fc
    31a4:	00007de1 	.word	0x00007de1
    31a8:	000043c1 	.word	0x000043c1
    31ac:	00009814 	.word	0x00009814
    31b0:	00009834 	.word	0x00009834
    31b4:	00009968 	.word	0x00009968
    31b8:	00002eb9 	.word	0x00002eb9
    31bc:	00009348 	.word	0x00009348
    31c0:	00009870 	.word	0x00009870
    31c4:	0000423d 	.word	0x0000423d
    31c8:	0000987c 	.word	0x0000987c
    31cc:	00009318 	.word	0x00009318
    31d0:	00007dbf 	.word	0x00007dbf
    31d4:	00004299 	.word	0x00004299
    31d8:	00009894 	.word	0x00009894
    31dc:	000098ac 	.word	0x000098ac
    31e0:	00003a98 	.word	0x00003a98
    31e4:	000042bd 	.word	0x000042bd
    31e8:	000098e4 	.word	0x000098e4
    31ec:	00004529 	.word	0x00004529
    31f0:	00009908 	.word	0x00009908

000031f4 <ble_event_manager>:
	}
	return AT_BLE_SUCCESS;
}

void ble_event_manager(at_ble_events_t events, void *event_params)
{
    31f4:	b5f8      	push	{r3, r4, r5, r6, r7, lr}
    31f6:	000d      	movs	r5, r1
	DBG_LOG_DEV("BLE-Event:%d", events);
	switch(events)
    31f8:	283a      	cmp	r0, #58	; 0x3a
    31fa:	d86c      	bhi.n	32d6 <ble_event_manager+0xe2>
    31fc:	0083      	lsls	r3, r0, #2
    31fe:	4a39      	ldr	r2, [pc, #228]	; (32e4 <ble_event_manager+0xf0>)
    3200:	58d3      	ldr	r3, [r2, r3]
    3202:	469f      	mov	pc, r3
		for (idx = 0; idx < MAX_GAP_EVENT_SUBSCRIBERS; idx++)
		{
			if (ble_mgr_gap_event_cb[idx] != NULL)
			{
				const ble_event_callback_t *event_cb_fn = ble_mgr_gap_event_cb[idx];
				if(event_cb_fn[events] != NULL)
    3204:	0084      	lsls	r4, r0, #2
    3206:	2600      	movs	r6, #0
	case AT_BLE_CON_CHANNEL_MAP_IND:
	{
		uint8_t idx;
		for (idx = 0; idx < MAX_GAP_EVENT_SUBSCRIBERS; idx++)
		{
			if (ble_mgr_gap_event_cb[idx] != NULL)
    3208:	4f37      	ldr	r7, [pc, #220]	; (32e8 <ble_event_manager+0xf4>)
    320a:	59bb      	ldr	r3, [r7, r6]
    320c:	2b00      	cmp	r3, #0
    320e:	d004      	beq.n	321a <ble_event_manager+0x26>
			{
				const ble_event_callback_t *event_cb_fn = ble_mgr_gap_event_cb[idx];
				if(event_cb_fn[events] != NULL)
    3210:	591b      	ldr	r3, [r3, r4]
    3212:	2b00      	cmp	r3, #0
    3214:	d001      	beq.n	321a <ble_event_manager+0x26>
				{
					event_cb_fn[events](event_params);
    3216:	0028      	movs	r0, r5
    3218:	4798      	blx	r3
    321a:	3604      	adds	r6, #4
	case AT_BLE_SIGN_COUNTERS_IND:
	case AT_BLE_PEER_ATT_INFO_IND:
	case AT_BLE_CON_CHANNEL_MAP_IND:
	{
		uint8_t idx;
		for (idx = 0; idx < MAX_GAP_EVENT_SUBSCRIBERS; idx++)
    321c:	2e14      	cmp	r6, #20
    321e:	d1f4      	bne.n	320a <ble_event_manager+0x16>
    3220:	e05f      	b.n	32e2 <ble_event_manager+0xee>
		for (idx = 0; idx < MAX_GATT_CLIENT_SUBSCRIBERS; idx++)
		{
			if (ble_mgr_gatt_client_event_cb[idx] != NULL)
			{
				const ble_event_callback_t *event_cb_fn = ble_mgr_gatt_client_event_cb[idx];
				if(event_cb_fn[events] != NULL)
    3222:	3813      	subs	r0, #19
    3224:	b2c4      	uxtb	r4, r0
    3226:	00a4      	lsls	r4, r4, #2
    3228:	2600      	movs	r6, #0
	{
		uint8_t idx;
		events -= (AT_BLE_CON_CHANNEL_MAP_IND + 1);
		for (idx = 0; idx < MAX_GATT_CLIENT_SUBSCRIBERS; idx++)
		{
			if (ble_mgr_gatt_client_event_cb[idx] != NULL)
    322a:	4f30      	ldr	r7, [pc, #192]	; (32ec <ble_event_manager+0xf8>)
    322c:	59bb      	ldr	r3, [r7, r6]
    322e:	2b00      	cmp	r3, #0
    3230:	d004      	beq.n	323c <ble_event_manager+0x48>
			{
				const ble_event_callback_t *event_cb_fn = ble_mgr_gatt_client_event_cb[idx];
				if(event_cb_fn[events] != NULL)
    3232:	591b      	ldr	r3, [r3, r4]
    3234:	2b00      	cmp	r3, #0
    3236:	d001      	beq.n	323c <ble_event_manager+0x48>
				{
					event_cb_fn[events](event_params);
    3238:	0028      	movs	r0, r5
    323a:	4798      	blx	r3
    323c:	3604      	adds	r6, #4
	case AT_BLE_NOTIFICATION_RECIEVED:
	case AT_BLE_INDICATION_RECIEVED:
	{
		uint8_t idx;
		events -= (AT_BLE_CON_CHANNEL_MAP_IND + 1);
		for (idx = 0; idx < MAX_GATT_CLIENT_SUBSCRIBERS; idx++)
    323e:	2e14      	cmp	r6, #20
    3240:	d1f4      	bne.n	322c <ble_event_manager+0x38>
    3242:	e04e      	b.n	32e2 <ble_event_manager+0xee>
		for (idx = 0; idx < MAX_GATT_SERVER_SUBSCRIBERS; idx++)
		{
			if (ble_mgr_gatt_server_event_cb[idx] != NULL)
			{
				const ble_event_callback_t *event_cb_fn = ble_mgr_gatt_server_event_cb[idx];
				if(event_cb_fn[events] != NULL)
    3244:	381d      	subs	r0, #29
    3246:	b2c4      	uxtb	r4, r0
    3248:	00a4      	lsls	r4, r4, #2
    324a:	2600      	movs	r6, #0
		uint8_t idx;
		events -= (AT_BLE_INDICATION_RECIEVED + 1);
		DBG_LOG_DEV("GATT_Server Event:%d", events);
		for (idx = 0; idx < MAX_GATT_SERVER_SUBSCRIBERS; idx++)
		{
			if (ble_mgr_gatt_server_event_cb[idx] != NULL)
    324c:	4f28      	ldr	r7, [pc, #160]	; (32f0 <ble_event_manager+0xfc>)
    324e:	59bb      	ldr	r3, [r7, r6]
    3250:	2b00      	cmp	r3, #0
    3252:	d004      	beq.n	325e <ble_event_manager+0x6a>
			{
				const ble_event_callback_t *event_cb_fn = ble_mgr_gatt_server_event_cb[idx];
				if(event_cb_fn[events] != NULL)
    3254:	591b      	ldr	r3, [r3, r4]
    3256:	2b00      	cmp	r3, #0
    3258:	d001      	beq.n	325e <ble_event_manager+0x6a>
				{
					event_cb_fn[events](event_params);
    325a:	0028      	movs	r0, r5
    325c:	4798      	blx	r3
    325e:	3604      	adds	r6, #4
	case AT_BLE_READ_AUTHORIZE_REQUEST:
	{
		uint8_t idx;
		events -= (AT_BLE_INDICATION_RECIEVED + 1);
		DBG_LOG_DEV("GATT_Server Event:%d", events);
		for (idx = 0; idx < MAX_GATT_SERVER_SUBSCRIBERS; idx++)
    3260:	2e14      	cmp	r6, #20
    3262:	d1f4      	bne.n	324e <ble_event_manager+0x5a>
    3264:	e03d      	b.n	32e2 <ble_event_manager+0xee>
	case AT_BLE_LECB_ADD_CREDIT_IND:
	case AT_BLE_LECB_SEND_RESP:
	case AT_BLE_LECB_DATA_RECIEVED:
	{
		uint8_t idx;
		events -= (AT_BLE_READ_AUTHORIZE_REQUEST + 1);
    3266:	3827      	subs	r0, #39	; 0x27
    3268:	b2c0      	uxtb	r0, r0
		for (idx = 0; idx < MAX_L2CAP_EVENT_SUBSCRIBERS; idx++)
		{
			if (ble_mgr_l2cap_event_cb[idx] != NULL)
    326a:	4b22      	ldr	r3, [pc, #136]	; (32f4 <ble_event_manager+0x100>)
    326c:	681b      	ldr	r3, [r3, #0]
    326e:	2b00      	cmp	r3, #0
    3270:	d037      	beq.n	32e2 <ble_event_manager+0xee>
			{
				const ble_event_callback_t *event_cb_fn = ble_mgr_l2cap_event_cb[idx];
				if(event_cb_fn[events] != NULL)
    3272:	0080      	lsls	r0, r0, #2
    3274:	58c3      	ldr	r3, [r0, r3]
    3276:	2b00      	cmp	r3, #0
    3278:	d033      	beq.n	32e2 <ble_event_manager+0xee>
				{
					event_cb_fn[events](event_params);
    327a:	0008      	movs	r0, r1
    327c:	4798      	blx	r3
    327e:	e030      	b.n	32e2 <ble_event_manager+0xee>
	case AT_BLE_HTPT_ENABLE_RSP:
	case AT_BLE_HTPT_MEAS_INTV_UPD_RSP:
	case AT_BLE_HTPT_MEAS_INTV_CHG_REQ:
	{
		uint8_t idx;
		events -= (AT_BLE_LECB_DATA_RECIEVED + 1);
    3280:	382d      	subs	r0, #45	; 0x2d
    3282:	b2c0      	uxtb	r0, r0
		for (idx = 0; idx < MAX_HTPT_EVENT_SUBSCRIBERS; idx++)
		{
			if (ble_mgr_htpt_event_cb[idx] != NULL)
    3284:	4b1c      	ldr	r3, [pc, #112]	; (32f8 <ble_event_manager+0x104>)
    3286:	681b      	ldr	r3, [r3, #0]
    3288:	2b00      	cmp	r3, #0
    328a:	d02a      	beq.n	32e2 <ble_event_manager+0xee>
			{
				const ble_event_callback_t *event_cb_fn = ble_mgr_htpt_event_cb[idx];
				if(event_cb_fn[events] != NULL)
    328c:	0080      	lsls	r0, r0, #2
    328e:	58c3      	ldr	r3, [r0, r3]
    3290:	2b00      	cmp	r3, #0
    3292:	d026      	beq.n	32e2 <ble_event_manager+0xee>
				{
					event_cb_fn[events](event_params);
    3294:	0008      	movs	r0, r1
    3296:	4798      	blx	r3
    3298:	e023      	b.n	32e2 <ble_event_manager+0xee>
		for (idx = 0; idx < MAX_DTM_EVENT_SUBSCRIBERS; idx++)
		{
			if (ble_mgr_dtm_event_cb[idx] != NULL)
			{
				const ble_event_callback_t *event_cb_fn = ble_mgr_dtm_event_cb[idx];
				if(event_cb_fn[events] != NULL)
    329a:	3836      	subs	r0, #54	; 0x36
    329c:	b2c4      	uxtb	r4, r0
    329e:	00a4      	lsls	r4, r4, #2
    32a0:	2600      	movs	r6, #0
	{
		uint8_t idx;
		events -= (AT_BLE_HTPT_MEAS_INTV_CHG_REQ + 1);
		for (idx = 0; idx < MAX_DTM_EVENT_SUBSCRIBERS; idx++)
		{
			if (ble_mgr_dtm_event_cb[idx] != NULL)
    32a2:	4f16      	ldr	r7, [pc, #88]	; (32fc <ble_event_manager+0x108>)
    32a4:	59bb      	ldr	r3, [r7, r6]
    32a6:	2b00      	cmp	r3, #0
    32a8:	d004      	beq.n	32b4 <ble_event_manager+0xc0>
			{
				const ble_event_callback_t *event_cb_fn = ble_mgr_dtm_event_cb[idx];
				if(event_cb_fn[events] != NULL)
    32aa:	591b      	ldr	r3, [r3, r4]
    32ac:	2b00      	cmp	r3, #0
    32ae:	d001      	beq.n	32b4 <ble_event_manager+0xc0>
				{
					event_cb_fn[events](event_params);
    32b0:	0028      	movs	r0, r5
    32b2:	4798      	blx	r3
    32b4:	3604      	adds	r6, #4
	case AT_BLE_LE_TEST_STATUS:
	case AT_BLE_LE_PACKET_REPORT:
	{
		uint8_t idx;
		events -= (AT_BLE_HTPT_MEAS_INTV_CHG_REQ + 1);
		for (idx = 0; idx < MAX_DTM_EVENT_SUBSCRIBERS; idx++)
    32b6:	2e14      	cmp	r6, #20
    32b8:	d1f4      	bne.n	32a4 <ble_event_manager+0xb0>
    32ba:	e012      	b.n	32e2 <ble_event_manager+0xee>
	case AT_BLE_CUSTOM_EVENT:
	case AT_BLE_DEVICE_READY:
	case AT_BLE_EVENT_MAX:
	{
		uint8_t idx;
		events -= (AT_BLE_LE_PACKET_REPORT + 1);
    32bc:	3838      	subs	r0, #56	; 0x38
    32be:	b2c0      	uxtb	r0, r0
		for (idx = 0; idx < MAX_CUSTOM_EVENT_SUBSCRIBERS; idx++)
		{
			if (ble_mgr_custom_event_cb[idx] != NULL)
    32c0:	4b0f      	ldr	r3, [pc, #60]	; (3300 <ble_event_manager+0x10c>)
    32c2:	681b      	ldr	r3, [r3, #0]
    32c4:	2b00      	cmp	r3, #0
    32c6:	d00c      	beq.n	32e2 <ble_event_manager+0xee>
			{
				const ble_event_callback_t *event_cb_fn = ble_mgr_custom_event_cb[idx];
				if(event_cb_fn[events] != NULL)
    32c8:	0080      	lsls	r0, r0, #2
    32ca:	58c3      	ldr	r3, [r0, r3]
    32cc:	2b00      	cmp	r3, #0
    32ce:	d008      	beq.n	32e2 <ble_event_manager+0xee>
				{
					event_cb_fn[events](event_params);
    32d0:	0008      	movs	r0, r1
    32d2:	4798      	blx	r3
    32d4:	e005      	b.n	32e2 <ble_event_manager+0xee>
	break;
	
	default:
	{
		DBG_LOG_DEV("BLE-Manager:Unknown Event=0x%X", events);
		DBG_LOG("\r\n");
    32d6:	4d0b      	ldr	r5, [pc, #44]	; (3304 <ble_event_manager+0x110>)
    32d8:	0028      	movs	r0, r5
    32da:	4c0b      	ldr	r4, [pc, #44]	; (3308 <ble_event_manager+0x114>)
    32dc:	47a0      	blx	r4
    32de:	0028      	movs	r0, r5
    32e0:	47a0      	blx	r4
	}
	break;		
	}
}
    32e2:	bdf8      	pop	{r3, r4, r5, r6, r7, pc}
    32e4:	0000922c 	.word	0x0000922c
    32e8:	20001388 	.word	0x20001388
    32ec:	2000139c 	.word	0x2000139c
    32f0:	200010f0 	.word	0x200010f0
    32f4:	200013f8 	.word	0x200013f8
    32f8:	200010ec 	.word	0x200010ec
    32fc:	20001374 	.word	0x20001374
    3300:	2000193c 	.word	0x2000193c
    3304:	00009074 	.word	0x00009074
    3308:	00007f01 	.word	0x00007f01

0000330c <ble_event_task>:
/** @brief Set BLE Address, If address is NULL then it will use BD public address */
static void ble_set_dev_config(at_ble_addr_t *addr);

/** @brief function to get event from stack */
at_ble_status_t ble_event_task(void)
{
    330c:	b510      	push	{r4, lr}
    if (at_ble_event_get(&event, ble_event_params, BLE_EVENT_TIMEOUT) == AT_BLE_SUCCESS) 
    330e:	2214      	movs	r2, #20
    3310:	4907      	ldr	r1, [pc, #28]	; (3330 <ble_event_task+0x24>)
    3312:	4808      	ldr	r0, [pc, #32]	; (3334 <ble_event_task+0x28>)
    3314:	4b08      	ldr	r3, [pc, #32]	; (3338 <ble_event_task+0x2c>)
    3316:	4798      	blx	r3
    3318:	1e04      	subs	r4, r0, #0
    331a:	d105      	bne.n	3328 <ble_event_task+0x1c>
    {
            ble_event_manager(event, ble_event_params);
    331c:	4b05      	ldr	r3, [pc, #20]	; (3334 <ble_event_task+0x28>)
    331e:	7818      	ldrb	r0, [r3, #0]
    3320:	4903      	ldr	r1, [pc, #12]	; (3330 <ble_event_task+0x24>)
    3322:	4b06      	ldr	r3, [pc, #24]	; (333c <ble_event_task+0x30>)
    3324:	4798      	blx	r3
            return AT_BLE_SUCCESS;
    3326:	e000      	b.n	332a <ble_event_task+0x1e>
    }
    
    return AT_BLE_FAILURE;
    3328:	24e2      	movs	r4, #226	; 0xe2
}
    332a:	0020      	movs	r0, r4
    332c:	bd10      	pop	{r4, pc}
    332e:	46c0      	nop			; (mov r8, r8)
    3330:	20001730 	.word	0x20001730
    3334:	200013f4 	.word	0x200013f4
    3338:	00003bc1 	.word	0x00003bc1
    333c:	000031f5 	.word	0x000031f5

00003340 <getchar_timeout>:
    3340:	b5f0      	push	{r4, r5, r6, r7, lr}
    3342:	b083      	sub	sp, #12
    3344:	0004      	movs	r4, r0
    3346:	2200      	movs	r2, #0
    3348:	466b      	mov	r3, sp
    334a:	80da      	strh	r2, [r3, #6]
    334c:	4e09      	ldr	r6, [pc, #36]	; (3374 <getchar_timeout+0x34>)
    334e:	4d0a      	ldr	r5, [pc, #40]	; (3378 <getchar_timeout+0x38>)
    3350:	4f0a      	ldr	r7, [pc, #40]	; (337c <getchar_timeout+0x3c>)
    3352:	e002      	b.n	335a <getchar_timeout+0x1a>
    3354:	3c01      	subs	r4, #1
    3356:	2001      	movs	r0, #1
    3358:	47b8      	blx	r7
    335a:	466b      	mov	r3, sp
    335c:	1d99      	adds	r1, r3, #6
    335e:	0030      	movs	r0, r6
    3360:	47a8      	blx	r5
    3362:	2800      	cmp	r0, #0
    3364:	d001      	beq.n	336a <getchar_timeout+0x2a>
    3366:	2c00      	cmp	r4, #0
    3368:	d1f4      	bne.n	3354 <getchar_timeout+0x14>
    336a:	466b      	mov	r3, sp
    336c:	7998      	ldrb	r0, [r3, #6]
    336e:	b003      	add	sp, #12
    3370:	bdf0      	pop	{r4, r5, r6, r7, pc}
    3372:	46c0      	nop			; (mov r8, r8)
    3374:	20000778 	.word	0x20000778
    3378:	00000b95 	.word	0x00000b95
    337c:	00000181 	.word	0x00000181

00003380 <serial_drv_write_cb>:
    3380:	4770      	bx	lr
    3382:	46c0      	nop			; (mov r8, r8)

00003384 <serial_drv_read_cb>:
    3384:	b510      	push	{r4, lr}
    3386:	4b02      	ldr	r3, [pc, #8]	; (3390 <serial_drv_read_cb+0xc>)
    3388:	7818      	ldrb	r0, [r3, #0]
    338a:	4b02      	ldr	r3, [pc, #8]	; (3394 <serial_drv_read_cb+0x10>)
    338c:	4798      	blx	r3
    338e:	bd10      	pop	{r4, pc}
    3390:	200007ac 	.word	0x200007ac
    3394:	000038f5 	.word	0x000038f5

00003398 <serial_drv_send>:
    3398:	b5f8      	push	{r3, r4, r5, r6, r7, lr}
    339a:	0006      	movs	r6, r0
    339c:	000d      	movs	r5, r1
    339e:	4c08      	ldr	r4, [pc, #32]	; (33c0 <serial_drv_send+0x28>)
    33a0:	4f08      	ldr	r7, [pc, #32]	; (33c4 <serial_drv_send+0x2c>)
    33a2:	002a      	movs	r2, r5
    33a4:	0031      	movs	r1, r6
    33a6:	0020      	movs	r0, r4
    33a8:	47b8      	blx	r7
    33aa:	2800      	cmp	r0, #0
    33ac:	d1f9      	bne.n	33a2 <serial_drv_send+0xa>
    33ae:	4d04      	ldr	r5, [pc, #16]	; (33c0 <serial_drv_send+0x28>)
    33b0:	4c05      	ldr	r4, [pc, #20]	; (33c8 <serial_drv_send+0x30>)
    33b2:	2101      	movs	r1, #1
    33b4:	0028      	movs	r0, r5
    33b6:	47a0      	blx	r4
    33b8:	2800      	cmp	r0, #0
    33ba:	d1fa      	bne.n	33b2 <serial_drv_send+0x1a>
    33bc:	bdf8      	pop	{r3, r4, r5, r6, r7, pc}
    33be:	46c0      	nop			; (mov r8, r8)
    33c0:	20001940 	.word	0x20001940
    33c4:	00000e05 	.word	0x00000e05
    33c8:	00000e25 	.word	0x00000e25

000033cc <serial_read_byte>:
    33cc:	b510      	push	{r4, lr}
    33ce:	0001      	movs	r1, r0
    33d0:	4801      	ldr	r0, [pc, #4]	; (33d8 <serial_read_byte+0xc>)
    33d2:	4b02      	ldr	r3, [pc, #8]	; (33dc <serial_read_byte+0x10>)
    33d4:	4798      	blx	r3
    33d6:	bd10      	pop	{r4, pc}
    33d8:	20001940 	.word	0x20001940
    33dc:	00000df5 	.word	0x00000df5

000033e0 <configure_serial_drv>:
    33e0:	b530      	push	{r4, r5, lr}
    33e2:	b091      	sub	sp, #68	; 0x44
    33e4:	2380      	movs	r3, #128	; 0x80
    33e6:	05db      	lsls	r3, r3, #23
    33e8:	9300      	str	r3, [sp, #0]
    33ea:	2300      	movs	r3, #0
    33ec:	9301      	str	r3, [sp, #4]
    33ee:	22ff      	movs	r2, #255	; 0xff
    33f0:	4669      	mov	r1, sp
    33f2:	810a      	strh	r2, [r1, #8]
    33f4:	2200      	movs	r2, #0
    33f6:	728b      	strb	r3, [r1, #10]
    33f8:	72cb      	strb	r3, [r1, #11]
    33fa:	2101      	movs	r1, #1
    33fc:	2024      	movs	r0, #36	; 0x24
    33fe:	466c      	mov	r4, sp
    3400:	5421      	strb	r1, [r4, r0]
    3402:	3001      	adds	r0, #1
    3404:	5421      	strb	r1, [r4, r0]
    3406:	3125      	adds	r1, #37	; 0x25
    3408:	5463      	strb	r3, [r4, r1]
    340a:	3101      	adds	r1, #1
    340c:	5463      	strb	r3, [r4, r1]
    340e:	930a      	str	r3, [sp, #40]	; 0x28
    3410:	3105      	adds	r1, #5
    3412:	5463      	strb	r3, [r4, r1]
    3414:	3101      	adds	r1, #1
    3416:	5463      	strb	r3, [r4, r1]
    3418:	9305      	str	r3, [sp, #20]
    341a:	8223      	strh	r3, [r4, #16]
    341c:	76e3      	strb	r3, [r4, #27]
    341e:	7622      	strb	r2, [r4, #24]
    3420:	7722      	strb	r2, [r4, #28]
    3422:	7662      	strb	r2, [r4, #25]
    3424:	2313      	movs	r3, #19
    3426:	76a3      	strb	r3, [r4, #26]
    3428:	7762      	strb	r2, [r4, #29]
    342a:	23e1      	movs	r3, #225	; 0xe1
    342c:	025b      	lsls	r3, r3, #9
    342e:	9308      	str	r3, [sp, #32]
    3430:	2380      	movs	r3, #128	; 0x80
    3432:	035b      	lsls	r3, r3, #13
    3434:	9303      	str	r3, [sp, #12]
    3436:	4b1c      	ldr	r3, [pc, #112]	; (34a8 <configure_serial_drv+0xc8>)
    3438:	930c      	str	r3, [sp, #48]	; 0x30
    343a:	4b1c      	ldr	r3, [pc, #112]	; (34ac <configure_serial_drv+0xcc>)
    343c:	930d      	str	r3, [sp, #52]	; 0x34
    343e:	2301      	movs	r3, #1
    3440:	425b      	negs	r3, r3
    3442:	930e      	str	r3, [sp, #56]	; 0x38
    3444:	930f      	str	r3, [sp, #60]	; 0x3c
    3446:	4d1a      	ldr	r5, [pc, #104]	; (34b0 <configure_serial_drv+0xd0>)
    3448:	4c1a      	ldr	r4, [pc, #104]	; (34b4 <configure_serial_drv+0xd4>)
    344a:	466a      	mov	r2, sp
    344c:	491a      	ldr	r1, [pc, #104]	; (34b8 <configure_serial_drv+0xd8>)
    344e:	0028      	movs	r0, r5
    3450:	47a0      	blx	r4
    3452:	2800      	cmp	r0, #0
    3454:	d1f9      	bne.n	344a <configure_serial_drv+0x6a>
    3456:	4d16      	ldr	r5, [pc, #88]	; (34b0 <configure_serial_drv+0xd0>)
    3458:	682c      	ldr	r4, [r5, #0]
    345a:	0020      	movs	r0, r4
    345c:	4b17      	ldr	r3, [pc, #92]	; (34bc <configure_serial_drv+0xdc>)
    345e:	4798      	blx	r3
    3460:	231f      	movs	r3, #31
    3462:	4018      	ands	r0, r3
    3464:	3b1e      	subs	r3, #30
    3466:	4083      	lsls	r3, r0
    3468:	4a15      	ldr	r2, [pc, #84]	; (34c0 <configure_serial_drv+0xe0>)
    346a:	6013      	str	r3, [r2, #0]
    346c:	682a      	ldr	r2, [r5, #0]
    346e:	69d3      	ldr	r3, [r2, #28]
    3470:	2b00      	cmp	r3, #0
    3472:	d1fc      	bne.n	346e <configure_serial_drv+0x8e>
    3474:	6822      	ldr	r2, [r4, #0]
    3476:	3302      	adds	r3, #2
    3478:	4313      	orrs	r3, r2
    347a:	6023      	str	r3, [r4, #0]
    347c:	4c0c      	ldr	r4, [pc, #48]	; (34b0 <configure_serial_drv+0xd0>)
    347e:	2201      	movs	r2, #1
    3480:	4910      	ldr	r1, [pc, #64]	; (34c4 <configure_serial_drv+0xe4>)
    3482:	0020      	movs	r0, r4
    3484:	4d10      	ldr	r5, [pc, #64]	; (34c8 <configure_serial_drv+0xe8>)
    3486:	47a8      	blx	r5
    3488:	2200      	movs	r2, #0
    348a:	4910      	ldr	r1, [pc, #64]	; (34cc <configure_serial_drv+0xec>)
    348c:	0020      	movs	r0, r4
    348e:	47a8      	blx	r5
    3490:	2231      	movs	r2, #49	; 0x31
    3492:	5ca1      	ldrb	r1, [r4, r2]
    3494:	2303      	movs	r3, #3
    3496:	430b      	orrs	r3, r1
    3498:	54a3      	strb	r3, [r4, r2]
    349a:	480d      	ldr	r0, [pc, #52]	; (34d0 <configure_serial_drv+0xf0>)
    349c:	4b0d      	ldr	r3, [pc, #52]	; (34d4 <configure_serial_drv+0xf4>)
    349e:	4798      	blx	r3
    34a0:	2000      	movs	r0, #0
    34a2:	b011      	add	sp, #68	; 0x44
    34a4:	bd30      	pop	{r4, r5, pc}
    34a6:	46c0      	nop			; (mov r8, r8)
    34a8:	00280003 	.word	0x00280003
    34ac:	00290003 	.word	0x00290003
    34b0:	20001940 	.word	0x20001940
    34b4:	00000831 	.word	0x00000831
    34b8:	42001800 	.word	0x42001800
    34bc:	000007a5 	.word	0x000007a5
    34c0:	e000e100 	.word	0xe000e100
    34c4:	00003385 	.word	0x00003385
    34c8:	00000ddd 	.word	0x00000ddd
    34cc:	00003381 	.word	0x00003381
    34d0:	200007ac 	.word	0x200007ac
    34d4:	000033cd 	.word	0x000033cd

000034d8 <configure_usart_after_patch>:
    34d8:	b530      	push	{r4, r5, lr}
    34da:	b091      	sub	sp, #68	; 0x44
    34dc:	4d46      	ldr	r5, [pc, #280]	; (35f8 <configure_usart_after_patch+0x120>)
    34de:	682c      	ldr	r4, [r5, #0]
    34e0:	0020      	movs	r0, r4
    34e2:	4b46      	ldr	r3, [pc, #280]	; (35fc <configure_usart_after_patch+0x124>)
    34e4:	4798      	blx	r3
    34e6:	231f      	movs	r3, #31
    34e8:	4018      	ands	r0, r3
    34ea:	3b1e      	subs	r3, #30
    34ec:	4083      	lsls	r3, r0
    34ee:	2280      	movs	r2, #128	; 0x80
    34f0:	4943      	ldr	r1, [pc, #268]	; (3600 <configure_usart_after_patch+0x128>)
    34f2:	508b      	str	r3, [r1, r2]
    34f4:	682a      	ldr	r2, [r5, #0]
    34f6:	69d3      	ldr	r3, [r2, #28]
    34f8:	2b00      	cmp	r3, #0
    34fa:	d1fc      	bne.n	34f6 <configure_usart_after_patch+0x1e>
    34fc:	6823      	ldr	r3, [r4, #0]
    34fe:	2202      	movs	r2, #2
    3500:	4393      	bics	r3, r2
    3502:	6023      	str	r3, [r4, #0]
    3504:	4d3c      	ldr	r5, [pc, #240]	; (35f8 <configure_usart_after_patch+0x120>)
    3506:	682c      	ldr	r4, [r5, #0]
    3508:	0020      	movs	r0, r4
    350a:	4b3c      	ldr	r3, [pc, #240]	; (35fc <configure_usart_after_patch+0x124>)
    350c:	4798      	blx	r3
    350e:	231f      	movs	r3, #31
    3510:	4018      	ands	r0, r3
    3512:	3b1e      	subs	r3, #30
    3514:	4083      	lsls	r3, r0
    3516:	2280      	movs	r2, #128	; 0x80
    3518:	4939      	ldr	r1, [pc, #228]	; (3600 <configure_usart_after_patch+0x128>)
    351a:	508b      	str	r3, [r1, r2]
    351c:	682a      	ldr	r2, [r5, #0]
    351e:	69d3      	ldr	r3, [r2, #28]
    3520:	2b00      	cmp	r3, #0
    3522:	d1fc      	bne.n	351e <configure_usart_after_patch+0x46>
    3524:	6823      	ldr	r3, [r4, #0]
    3526:	2202      	movs	r2, #2
    3528:	4393      	bics	r3, r2
    352a:	6023      	str	r3, [r4, #0]
    352c:	4b32      	ldr	r3, [pc, #200]	; (35f8 <configure_usart_after_patch+0x120>)
    352e:	681a      	ldr	r2, [r3, #0]
    3530:	69d3      	ldr	r3, [r2, #28]
    3532:	2b00      	cmp	r3, #0
    3534:	d1fc      	bne.n	3530 <configure_usart_after_patch+0x58>
    3536:	2101      	movs	r1, #1
    3538:	6021      	str	r1, [r4, #0]
    353a:	2380      	movs	r3, #128	; 0x80
    353c:	05db      	lsls	r3, r3, #23
    353e:	9300      	str	r3, [sp, #0]
    3540:	2300      	movs	r3, #0
    3542:	9301      	str	r3, [sp, #4]
    3544:	22ff      	movs	r2, #255	; 0xff
    3546:	4668      	mov	r0, sp
    3548:	8102      	strh	r2, [r0, #8]
    354a:	2200      	movs	r2, #0
    354c:	7283      	strb	r3, [r0, #10]
    354e:	72c3      	strb	r3, [r0, #11]
    3550:	2024      	movs	r0, #36	; 0x24
    3552:	466c      	mov	r4, sp
    3554:	5421      	strb	r1, [r4, r0]
    3556:	3001      	adds	r0, #1
    3558:	5421      	strb	r1, [r4, r0]
    355a:	3125      	adds	r1, #37	; 0x25
    355c:	5463      	strb	r3, [r4, r1]
    355e:	3101      	adds	r1, #1
    3560:	5463      	strb	r3, [r4, r1]
    3562:	930a      	str	r3, [sp, #40]	; 0x28
    3564:	3105      	adds	r1, #5
    3566:	5463      	strb	r3, [r4, r1]
    3568:	3101      	adds	r1, #1
    356a:	5463      	strb	r3, [r4, r1]
    356c:	9305      	str	r3, [sp, #20]
    356e:	8223      	strh	r3, [r4, #16]
    3570:	76e3      	strb	r3, [r4, #27]
    3572:	7622      	strb	r2, [r4, #24]
    3574:	7722      	strb	r2, [r4, #28]
    3576:	7662      	strb	r2, [r4, #25]
    3578:	2313      	movs	r3, #19
    357a:	76a3      	strb	r3, [r4, #26]
    357c:	7762      	strb	r2, [r4, #29]
    357e:	23e1      	movs	r3, #225	; 0xe1
    3580:	025b      	lsls	r3, r3, #9
    3582:	9308      	str	r3, [sp, #32]
    3584:	2390      	movs	r3, #144	; 0x90
    3586:	035b      	lsls	r3, r3, #13
    3588:	9303      	str	r3, [sp, #12]
    358a:	4b1e      	ldr	r3, [pc, #120]	; (3604 <configure_usart_after_patch+0x12c>)
    358c:	930c      	str	r3, [sp, #48]	; 0x30
    358e:	4b1e      	ldr	r3, [pc, #120]	; (3608 <configure_usart_after_patch+0x130>)
    3590:	930d      	str	r3, [sp, #52]	; 0x34
    3592:	4b1e      	ldr	r3, [pc, #120]	; (360c <configure_usart_after_patch+0x134>)
    3594:	930e      	str	r3, [sp, #56]	; 0x38
    3596:	4b1e      	ldr	r3, [pc, #120]	; (3610 <configure_usart_after_patch+0x138>)
    3598:	930f      	str	r3, [sp, #60]	; 0x3c
    359a:	4d17      	ldr	r5, [pc, #92]	; (35f8 <configure_usart_after_patch+0x120>)
    359c:	4c1d      	ldr	r4, [pc, #116]	; (3614 <configure_usart_after_patch+0x13c>)
    359e:	466a      	mov	r2, sp
    35a0:	491d      	ldr	r1, [pc, #116]	; (3618 <configure_usart_after_patch+0x140>)
    35a2:	0028      	movs	r0, r5
    35a4:	47a0      	blx	r4
    35a6:	2800      	cmp	r0, #0
    35a8:	d1f9      	bne.n	359e <configure_usart_after_patch+0xc6>
    35aa:	4d13      	ldr	r5, [pc, #76]	; (35f8 <configure_usart_after_patch+0x120>)
    35ac:	682c      	ldr	r4, [r5, #0]
    35ae:	0020      	movs	r0, r4
    35b0:	4b12      	ldr	r3, [pc, #72]	; (35fc <configure_usart_after_patch+0x124>)
    35b2:	4798      	blx	r3
    35b4:	231f      	movs	r3, #31
    35b6:	4018      	ands	r0, r3
    35b8:	3b1e      	subs	r3, #30
    35ba:	4083      	lsls	r3, r0
    35bc:	4a10      	ldr	r2, [pc, #64]	; (3600 <configure_usart_after_patch+0x128>)
    35be:	6013      	str	r3, [r2, #0]
    35c0:	682a      	ldr	r2, [r5, #0]
    35c2:	69d3      	ldr	r3, [r2, #28]
    35c4:	2b00      	cmp	r3, #0
    35c6:	d1fc      	bne.n	35c2 <configure_usart_after_patch+0xea>
    35c8:	6822      	ldr	r2, [r4, #0]
    35ca:	3302      	adds	r3, #2
    35cc:	4313      	orrs	r3, r2
    35ce:	6023      	str	r3, [r4, #0]
    35d0:	4c09      	ldr	r4, [pc, #36]	; (35f8 <configure_usart_after_patch+0x120>)
    35d2:	2201      	movs	r2, #1
    35d4:	4911      	ldr	r1, [pc, #68]	; (361c <configure_usart_after_patch+0x144>)
    35d6:	0020      	movs	r0, r4
    35d8:	4d11      	ldr	r5, [pc, #68]	; (3620 <configure_usart_after_patch+0x148>)
    35da:	47a8      	blx	r5
    35dc:	2200      	movs	r2, #0
    35de:	4911      	ldr	r1, [pc, #68]	; (3624 <configure_usart_after_patch+0x14c>)
    35e0:	0020      	movs	r0, r4
    35e2:	47a8      	blx	r5
    35e4:	2231      	movs	r2, #49	; 0x31
    35e6:	5ca1      	ldrb	r1, [r4, r2]
    35e8:	2303      	movs	r3, #3
    35ea:	430b      	orrs	r3, r1
    35ec:	54a3      	strb	r3, [r4, r2]
    35ee:	480e      	ldr	r0, [pc, #56]	; (3628 <configure_usart_after_patch+0x150>)
    35f0:	4b0e      	ldr	r3, [pc, #56]	; (362c <configure_usart_after_patch+0x154>)
    35f2:	4798      	blx	r3
    35f4:	b011      	add	sp, #68	; 0x44
    35f6:	bd30      	pop	{r4, r5, pc}
    35f8:	20001940 	.word	0x20001940
    35fc:	000007a5 	.word	0x000007a5
    3600:	e000e100 	.word	0xe000e100
    3604:	00040003 	.word	0x00040003
    3608:	00050003 	.word	0x00050003
    360c:	00060003 	.word	0x00060003
    3610:	00070003 	.word	0x00070003
    3614:	00000831 	.word	0x00000831
    3618:	42000800 	.word	0x42000800
    361c:	00003385 	.word	0x00003385
    3620:	00000ddd 	.word	0x00000ddd
    3624:	00003381 	.word	0x00003381
    3628:	200007ac 	.word	0x200007ac
    362c:	000033cd 	.word	0x000033cd

00003630 <platfrom_start_rx>:
    3630:	b510      	push	{r4, lr}
    3632:	4802      	ldr	r0, [pc, #8]	; (363c <platfrom_start_rx+0xc>)
    3634:	4b02      	ldr	r3, [pc, #8]	; (3640 <platfrom_start_rx+0x10>)
    3636:	4798      	blx	r3
    3638:	bd10      	pop	{r4, pc}
    363a:	46c0      	nop			; (mov r8, r8)
    363c:	200007ac 	.word	0x200007ac
    3640:	000033cd 	.word	0x000033cd

00003644 <platform_enter_critical_section>:
    3644:	b510      	push	{r4, lr}
    3646:	4b01      	ldr	r3, [pc, #4]	; (364c <platform_enter_critical_section+0x8>)
    3648:	4798      	blx	r3
    364a:	bd10      	pop	{r4, pc}
    364c:	000001ad 	.word	0x000001ad

00003650 <platform_leave_critical_section>:
    3650:	b510      	push	{r4, lr}
    3652:	4b01      	ldr	r3, [pc, #4]	; (3658 <platform_leave_critical_section+0x8>)
    3654:	4798      	blx	r3
    3656:	bd10      	pop	{r4, pc}
    3658:	000001ed 	.word	0x000001ed

0000365c <tc_cc1_cb>:
    365c:	b510      	push	{r4, lr}
    365e:	4b02      	ldr	r3, [pc, #8]	; (3668 <tc_cc1_cb+0xc>)
    3660:	681b      	ldr	r3, [r3, #0]
    3662:	4798      	blx	r3
    3664:	bd10      	pop	{r4, pc}
    3666:	46c0      	nop			; (mov r8, r8)
    3668:	20001978 	.word	0x20001978

0000366c <platform_configure_timer>:
    366c:	b530      	push	{r4, r5, lr}
    366e:	b08f      	sub	sp, #60	; 0x3c
    3670:	0004      	movs	r4, r0
    3672:	4b3a      	ldr	r3, [pc, #232]	; (375c <platform_configure_timer+0xf0>)
    3674:	4798      	blx	r3
    3676:	4b3a      	ldr	r3, [pc, #232]	; (3760 <platform_configure_timer+0xf4>)
    3678:	6a5b      	ldr	r3, [r3, #36]	; 0x24
    367a:	2b00      	cmp	r3, #0
    367c:	d169      	bne.n	3752 <platform_configure_timer+0xe6>
    367e:	2101      	movs	r1, #1
    3680:	4b37      	ldr	r3, [pc, #220]	; (3760 <platform_configure_timer+0xf4>)
    3682:	6259      	str	r1, [r3, #36]	; 0x24
    3684:	4b37      	ldr	r3, [pc, #220]	; (3764 <platform_configure_timer+0xf8>)
    3686:	601c      	str	r4, [r3, #0]
    3688:	ac01      	add	r4, sp, #4
    368a:	2300      	movs	r3, #0
    368c:	7023      	strb	r3, [r4, #0]
    368e:	2200      	movs	r2, #0
    3690:	80a3      	strh	r3, [r4, #4]
    3692:	71a2      	strb	r2, [r4, #6]
    3694:	8123      	strh	r3, [r4, #8]
    3696:	7062      	strb	r2, [r4, #1]
    3698:	72a2      	strb	r2, [r4, #10]
    369a:	72e2      	strb	r2, [r4, #11]
    369c:	7322      	strb	r2, [r4, #12]
    369e:	73a2      	strb	r2, [r4, #14]
    36a0:	7422      	strb	r2, [r4, #16]
    36a2:	6163      	str	r3, [r4, #20]
    36a4:	61a3      	str	r3, [r4, #24]
    36a6:	7722      	strb	r2, [r4, #28]
    36a8:	6223      	str	r3, [r4, #32]
    36aa:	6263      	str	r3, [r4, #36]	; 0x24
    36ac:	8523      	strh	r3, [r4, #40]	; 0x28
    36ae:	8563      	strh	r3, [r4, #42]	; 0x2a
    36b0:	85a3      	strh	r3, [r4, #44]	; 0x2c
    36b2:	7361      	strb	r1, [r4, #13]
    36b4:	3308      	adds	r3, #8
    36b6:	70a3      	strb	r3, [r4, #2]
    36b8:	4d2b      	ldr	r5, [pc, #172]	; (3768 <platform_configure_timer+0xfc>)
    36ba:	0022      	movs	r2, r4
    36bc:	492b      	ldr	r1, [pc, #172]	; (376c <platform_configure_timer+0x100>)
    36be:	0028      	movs	r0, r5
    36c0:	4b2b      	ldr	r3, [pc, #172]	; (3770 <platform_configure_timer+0x104>)
    36c2:	4798      	blx	r3
    36c4:	7820      	ldrb	r0, [r4, #0]
    36c6:	4b2b      	ldr	r3, [pc, #172]	; (3774 <platform_configure_timer+0x108>)
    36c8:	4798      	blx	r3
    36ca:	21fa      	movs	r1, #250	; 0xfa
    36cc:	0089      	lsls	r1, r1, #2
    36ce:	4b2a      	ldr	r3, [pc, #168]	; (3778 <platform_configure_timer+0x10c>)
    36d0:	4798      	blx	r3
    36d2:	4b2a      	ldr	r3, [pc, #168]	; (377c <platform_configure_timer+0x110>)
    36d4:	6018      	str	r0, [r3, #0]
    36d6:	2100      	movs	r1, #0
    36d8:	0028      	movs	r0, r5
    36da:	4b29      	ldr	r3, [pc, #164]	; (3780 <platform_configure_timer+0x114>)
    36dc:	4798      	blx	r3
    36de:	682a      	ldr	r2, [r5, #0]
    36e0:	217f      	movs	r1, #127	; 0x7f
    36e2:	7bd3      	ldrb	r3, [r2, #15]
    36e4:	438b      	bics	r3, r1
    36e6:	d1fc      	bne.n	36e2 <platform_configure_timer+0x76>
    36e8:	8811      	ldrh	r1, [r2, #0]
    36ea:	3302      	adds	r3, #2
    36ec:	430b      	orrs	r3, r1
    36ee:	8013      	strh	r3, [r2, #0]
    36f0:	4b1d      	ldr	r3, [pc, #116]	; (3768 <platform_configure_timer+0xfc>)
    36f2:	681a      	ldr	r2, [r3, #0]
    36f4:	217f      	movs	r1, #127	; 0x7f
    36f6:	7bd3      	ldrb	r3, [r2, #15]
    36f8:	438b      	bics	r3, r1
    36fa:	d1fc      	bne.n	36f6 <platform_configure_timer+0x8a>
    36fc:	3380      	adds	r3, #128	; 0x80
    36fe:	7153      	strb	r3, [r2, #5]
    3700:	4c19      	ldr	r4, [pc, #100]	; (3768 <platform_configure_timer+0xfc>)
    3702:	2200      	movs	r2, #0
    3704:	491f      	ldr	r1, [pc, #124]	; (3784 <platform_configure_timer+0x118>)
    3706:	0020      	movs	r0, r4
    3708:	4b1f      	ldr	r3, [pc, #124]	; (3788 <platform_configure_timer+0x11c>)
    370a:	4798      	blx	r3
    370c:	6820      	ldr	r0, [r4, #0]
    370e:	4b1f      	ldr	r3, [pc, #124]	; (378c <platform_configure_timer+0x120>)
    3710:	4798      	blx	r3
    3712:	4b1f      	ldr	r3, [pc, #124]	; (3790 <platform_configure_timer+0x124>)
    3714:	5c1b      	ldrb	r3, [r3, r0]
    3716:	221f      	movs	r2, #31
    3718:	4013      	ands	r3, r2
    371a:	3a1e      	subs	r2, #30
    371c:	0011      	movs	r1, r2
    371e:	4099      	lsls	r1, r3
    3720:	4b1c      	ldr	r3, [pc, #112]	; (3794 <platform_configure_timer+0x128>)
    3722:	6019      	str	r1, [r3, #0]
    3724:	7e61      	ldrb	r1, [r4, #25]
    3726:	2301      	movs	r3, #1
    3728:	430b      	orrs	r3, r1
    372a:	7663      	strb	r3, [r4, #25]
    372c:	6823      	ldr	r3, [r4, #0]
    372e:	735a      	strb	r2, [r3, #13]
    3730:	ab01      	add	r3, sp, #4
    3732:	7818      	ldrb	r0, [r3, #0]
    3734:	4b0f      	ldr	r3, [pc, #60]	; (3774 <platform_configure_timer+0x108>)
    3736:	4798      	blx	r3
    3738:	4d09      	ldr	r5, [pc, #36]	; (3760 <platform_configure_timer+0xf4>)
    373a:	6228      	str	r0, [r5, #32]
    373c:	002b      	movs	r3, r5
    373e:	cc07      	ldmia	r4!, {r0, r1, r2}
    3740:	c307      	stmia	r3!, {r0, r1, r2}
    3742:	cc07      	ldmia	r4!, {r0, r1, r2}
    3744:	c307      	stmia	r3!, {r0, r1, r2}
    3746:	6822      	ldr	r2, [r4, #0]
    3748:	601a      	str	r2, [r3, #0]
    374a:	4b13      	ldr	r3, [pc, #76]	; (3798 <platform_configure_timer+0x12c>)
    374c:	4798      	blx	r3
    374e:	0028      	movs	r0, r5
    3750:	e002      	b.n	3758 <platform_configure_timer+0xec>
    3752:	4b11      	ldr	r3, [pc, #68]	; (3798 <platform_configure_timer+0x12c>)
    3754:	4798      	blx	r3
    3756:	2000      	movs	r0, #0
    3758:	b00f      	add	sp, #60	; 0x3c
    375a:	bd30      	pop	{r4, r5, pc}
    375c:	000001ad 	.word	0x000001ad
    3760:	200000b4 	.word	0x200000b4
    3764:	20001978 	.word	0x20001978
    3768:	200019a0 	.word	0x200019a0
    376c:	42003000 	.word	0x42003000
    3770:	000018cd 	.word	0x000018cd
    3774:	00001545 	.word	0x00001545
    3778:	00007be5 	.word	0x00007be5
    377c:	20001980 	.word	0x20001980
    3780:	00001b49 	.word	0x00001b49
    3784:	0000365d 	.word	0x0000365d
    3788:	000017b5 	.word	0x000017b5
    378c:	00001891 	.word	0x00001891
    3790:	000099b4 	.word	0x000099b4
    3794:	e000e100 	.word	0xe000e100
    3798:	000001ed 	.word	0x000001ed

0000379c <platform_start_bus_timer>:
    379c:	b510      	push	{r4, lr}
    379e:	4b0a      	ldr	r3, [pc, #40]	; (37c8 <platform_start_bus_timer+0x2c>)
    37a0:	681b      	ldr	r3, [r3, #0]
    37a2:	4359      	muls	r1, r3
    37a4:	43c9      	mvns	r1, r1
    37a6:	4c09      	ldr	r4, [pc, #36]	; (37cc <platform_start_bus_timer+0x30>)
    37a8:	0020      	movs	r0, r4
    37aa:	4b09      	ldr	r3, [pc, #36]	; (37d0 <platform_start_bus_timer+0x34>)
    37ac:	4798      	blx	r3
    37ae:	6822      	ldr	r2, [r4, #0]
    37b0:	217f      	movs	r1, #127	; 0x7f
    37b2:	7bd3      	ldrb	r3, [r2, #15]
    37b4:	438b      	bics	r3, r1
    37b6:	d1fc      	bne.n	37b2 <platform_start_bus_timer+0x16>
    37b8:	7113      	strb	r3, [r2, #4]
    37ba:	217f      	movs	r1, #127	; 0x7f
    37bc:	7bd3      	ldrb	r3, [r2, #15]
    37be:	438b      	bics	r3, r1
    37c0:	d1fc      	bne.n	37bc <platform_start_bus_timer+0x20>
    37c2:	3340      	adds	r3, #64	; 0x40
    37c4:	7153      	strb	r3, [r2, #5]
    37c6:	bd10      	pop	{r4, pc}
    37c8:	20001980 	.word	0x20001980
    37cc:	200019a0 	.word	0x200019a0
    37d0:	00001b49 	.word	0x00001b49

000037d4 <platform_delete_bus_timer>:
    37d4:	b510      	push	{r4, lr}
    37d6:	4b07      	ldr	r3, [pc, #28]	; (37f4 <platform_delete_bus_timer+0x20>)
    37d8:	681a      	ldr	r2, [r3, #0]
    37da:	217f      	movs	r1, #127	; 0x7f
    37dc:	7bd3      	ldrb	r3, [r2, #15]
    37de:	438b      	bics	r3, r1
    37e0:	d1fc      	bne.n	37dc <platform_delete_bus_timer+0x8>
    37e2:	3380      	adds	r3, #128	; 0x80
    37e4:	7153      	strb	r3, [r2, #5]
    37e6:	4803      	ldr	r0, [pc, #12]	; (37f4 <platform_delete_bus_timer+0x20>)
    37e8:	4b03      	ldr	r3, [pc, #12]	; (37f8 <platform_delete_bus_timer+0x24>)
    37ea:	4798      	blx	r3
    37ec:	2200      	movs	r2, #0
    37ee:	4b03      	ldr	r3, [pc, #12]	; (37fc <platform_delete_bus_timer+0x28>)
    37f0:	625a      	str	r2, [r3, #36]	; 0x24
    37f2:	bd10      	pop	{r4, pc}
    37f4:	200019a0 	.word	0x200019a0
    37f8:	00001b81 	.word	0x00001b81
    37fc:	200000b4 	.word	0x200000b4

00003800 <platform_stop_bus_timer>:
    3800:	4b04      	ldr	r3, [pc, #16]	; (3814 <platform_stop_bus_timer+0x14>)
    3802:	681a      	ldr	r2, [r3, #0]
    3804:	217f      	movs	r1, #127	; 0x7f
    3806:	7bd3      	ldrb	r3, [r2, #15]
    3808:	438b      	bics	r3, r1
    380a:	d1fc      	bne.n	3806 <platform_stop_bus_timer+0x6>
    380c:	3380      	adds	r3, #128	; 0x80
    380e:	7153      	strb	r3, [r2, #5]
    3810:	4770      	bx	lr
    3812:	46c0      	nop			; (mov r8, r8)
    3814:	200019a0 	.word	0x200019a0

00003818 <platform_init>:
    3818:	b5f0      	push	{r4, r5, r6, r7, lr}
    381a:	b083      	sub	sp, #12
    381c:	4b14      	ldr	r3, [pc, #80]	; (3870 <platform_init+0x58>)
    381e:	7018      	strb	r0, [r3, #0]
    3820:	23cf      	movs	r3, #207	; 0xcf
    3822:	2801      	cmp	r0, #1
    3824:	d121      	bne.n	386a <platform_init+0x52>
    3826:	4b13      	ldr	r3, [pc, #76]	; (3874 <platform_init+0x5c>)
    3828:	4798      	blx	r3
    382a:	ac01      	add	r4, sp, #4
    382c:	2600      	movs	r6, #0
    382e:	70a6      	strb	r6, [r4, #2]
    3830:	2701      	movs	r7, #1
    3832:	7027      	strb	r7, [r4, #0]
    3834:	2302      	movs	r3, #2
    3836:	7063      	strb	r3, [r4, #1]
    3838:	0021      	movs	r1, r4
    383a:	2027      	movs	r0, #39	; 0x27
    383c:	4d0e      	ldr	r5, [pc, #56]	; (3878 <platform_init+0x60>)
    383e:	47a8      	blx	r5
    3840:	0021      	movs	r1, r4
    3842:	2021      	movs	r0, #33	; 0x21
    3844:	47a8      	blx	r5
    3846:	7067      	strb	r7, [r4, #1]
    3848:	70a6      	strb	r6, [r4, #2]
    384a:	7027      	strb	r7, [r4, #0]
    384c:	0021      	movs	r1, r4
    384e:	2006      	movs	r0, #6
    3850:	47a8      	blx	r5
    3852:	2240      	movs	r2, #64	; 0x40
    3854:	4b09      	ldr	r3, [pc, #36]	; (387c <platform_init+0x64>)
    3856:	619a      	str	r2, [r3, #24]
    3858:	7026      	strb	r6, [r4, #0]
    385a:	7067      	strb	r7, [r4, #1]
    385c:	70a6      	strb	r6, [r4, #2]
    385e:	0021      	movs	r1, r4
    3860:	2007      	movs	r0, #7
    3862:	47a8      	blx	r5
    3864:	4b06      	ldr	r3, [pc, #24]	; (3880 <platform_init+0x68>)
    3866:	4798      	blx	r3
    3868:	2300      	movs	r3, #0
    386a:	0018      	movs	r0, r3
    386c:	b003      	add	sp, #12
    386e:	bdf0      	pop	{r4, r5, r6, r7, pc}
    3870:	200007b4 	.word	0x200007b4
    3874:	00000115 	.word	0x00000115
    3878:	00000341 	.word	0x00000341
    387c:	41004400 	.word	0x41004400
    3880:	000033e1 	.word	0x000033e1

00003884 <platform_send_sync>:
    3884:	b510      	push	{r4, lr}
    3886:	4b04      	ldr	r3, [pc, #16]	; (3898 <platform_send_sync+0x14>)
    3888:	781b      	ldrb	r3, [r3, #0]
    388a:	2b01      	cmp	r3, #1
    388c:	d102      	bne.n	3894 <platform_send_sync+0x10>
    388e:	b289      	uxth	r1, r1
    3890:	4b02      	ldr	r3, [pc, #8]	; (389c <platform_send_sync+0x18>)
    3892:	4798      	blx	r3
    3894:	bd10      	pop	{r4, pc}
    3896:	46c0      	nop			; (mov r8, r8)
    3898:	200007b4 	.word	0x200007b4
    389c:	00003399 	.word	0x00003399

000038a0 <platform_gpio_set>:
    38a0:	2800      	cmp	r0, #0
    38a2:	d109      	bne.n	38b8 <platform_gpio_set+0x18>
    38a4:	2901      	cmp	r1, #1
    38a6:	d103      	bne.n	38b0 <platform_gpio_set+0x10>
    38a8:	2202      	movs	r2, #2
    38aa:	4b09      	ldr	r3, [pc, #36]	; (38d0 <platform_gpio_set+0x30>)
    38ac:	619a      	str	r2, [r3, #24]
    38ae:	e00e      	b.n	38ce <platform_gpio_set+0x2e>
    38b0:	2202      	movs	r2, #2
    38b2:	4b07      	ldr	r3, [pc, #28]	; (38d0 <platform_gpio_set+0x30>)
    38b4:	615a      	str	r2, [r3, #20]
    38b6:	e00a      	b.n	38ce <platform_gpio_set+0x2e>
    38b8:	2801      	cmp	r0, #1
    38ba:	d108      	bne.n	38ce <platform_gpio_set+0x2e>
    38bc:	2901      	cmp	r1, #1
    38be:	d103      	bne.n	38c8 <platform_gpio_set+0x28>
    38c0:	4b03      	ldr	r3, [pc, #12]	; (38d0 <platform_gpio_set+0x30>)
    38c2:	2280      	movs	r2, #128	; 0x80
    38c4:	619a      	str	r2, [r3, #24]
    38c6:	e002      	b.n	38ce <platform_gpio_set+0x2e>
    38c8:	4b01      	ldr	r3, [pc, #4]	; (38d0 <platform_gpio_set+0x30>)
    38ca:	2280      	movs	r2, #128	; 0x80
    38cc:	615a      	str	r2, [r3, #20]
    38ce:	4770      	bx	lr
    38d0:	41004480 	.word	0x41004480

000038d4 <platform_recv_async>:
    38d4:	b510      	push	{r4, lr}
    38d6:	4b04      	ldr	r3, [pc, #16]	; (38e8 <platform_recv_async+0x14>)
    38d8:	781b      	ldrb	r3, [r3, #0]
    38da:	2b01      	cmp	r3, #1
    38dc:	d103      	bne.n	38e6 <platform_recv_async+0x12>
    38de:	4b03      	ldr	r3, [pc, #12]	; (38ec <platform_recv_async+0x18>)
    38e0:	6018      	str	r0, [r3, #0]
    38e2:	4b03      	ldr	r3, [pc, #12]	; (38f0 <platform_recv_async+0x1c>)
    38e4:	4798      	blx	r3
    38e6:	bd10      	pop	{r4, pc}
    38e8:	200007b4 	.word	0x200007b4
    38ec:	200007b0 	.word	0x200007b0
    38f0:	00003631 	.word	0x00003631

000038f4 <platform_process_rxdata>:
    38f4:	b510      	push	{r4, lr}
    38f6:	4b05      	ldr	r3, [pc, #20]	; (390c <platform_process_rxdata+0x18>)
    38f8:	781b      	ldrb	r3, [r3, #0]
    38fa:	2b01      	cmp	r3, #1
    38fc:	d104      	bne.n	3908 <platform_process_rxdata+0x14>
    38fe:	4b04      	ldr	r3, [pc, #16]	; (3910 <platform_process_rxdata+0x1c>)
    3900:	681b      	ldr	r3, [r3, #0]
    3902:	2b00      	cmp	r3, #0
    3904:	d000      	beq.n	3908 <platform_process_rxdata+0x14>
    3906:	4798      	blx	r3
    3908:	bd10      	pop	{r4, pc}
    390a:	46c0      	nop			; (mov r8, r8)
    390c:	200007b4 	.word	0x200007b4
    3910:	200007b0 	.word	0x200007b0

00003914 <platform_configure_hw_fc_uart>:
    3914:	b510      	push	{r4, lr}
    3916:	4b01      	ldr	r3, [pc, #4]	; (391c <platform_configure_hw_fc_uart+0x8>)
    3918:	4798      	blx	r3
    391a:	bd10      	pop	{r4, pc}
    391c:	000034d9 	.word	0x000034d9

00003920 <platform_create_timer>:
    3920:	b510      	push	{r4, lr}
    3922:	4b01      	ldr	r3, [pc, #4]	; (3928 <platform_create_timer+0x8>)
    3924:	4798      	blx	r3
    3926:	bd10      	pop	{r4, pc}
    3928:	0000366d 	.word	0x0000366d

0000392c <platform_delete_timer>:
    392c:	b510      	push	{r4, lr}
    392e:	0004      	movs	r4, r0
    3930:	4b03      	ldr	r3, [pc, #12]	; (3940 <platform_delete_timer+0x14>)
    3932:	4798      	blx	r3
    3934:	0020      	movs	r0, r4
    3936:	4b03      	ldr	r3, [pc, #12]	; (3944 <platform_delete_timer+0x18>)
    3938:	4798      	blx	r3
    393a:	4b03      	ldr	r3, [pc, #12]	; (3948 <platform_delete_timer+0x1c>)
    393c:	4798      	blx	r3
    393e:	bd10      	pop	{r4, pc}
    3940:	00003645 	.word	0x00003645
    3944:	000037d5 	.word	0x000037d5
    3948:	00003651 	.word	0x00003651

0000394c <platform_start_timer>:
    394c:	b570      	push	{r4, r5, r6, lr}
    394e:	0004      	movs	r4, r0
    3950:	000d      	movs	r5, r1
    3952:	4b04      	ldr	r3, [pc, #16]	; (3964 <platform_start_timer+0x18>)
    3954:	4798      	blx	r3
    3956:	0029      	movs	r1, r5
    3958:	0020      	movs	r0, r4
    395a:	4b03      	ldr	r3, [pc, #12]	; (3968 <platform_start_timer+0x1c>)
    395c:	4798      	blx	r3
    395e:	4b03      	ldr	r3, [pc, #12]	; (396c <platform_start_timer+0x20>)
    3960:	4798      	blx	r3
    3962:	bd70      	pop	{r4, r5, r6, pc}
    3964:	00003645 	.word	0x00003645
    3968:	0000379d 	.word	0x0000379d
    396c:	00003651 	.word	0x00003651

00003970 <platform_stop_timer>:
    3970:	b510      	push	{r4, lr}
    3972:	0004      	movs	r4, r0
    3974:	4b03      	ldr	r3, [pc, #12]	; (3984 <platform_stop_timer+0x14>)
    3976:	4798      	blx	r3
    3978:	0020      	movs	r0, r4
    397a:	4b03      	ldr	r3, [pc, #12]	; (3988 <platform_stop_timer+0x18>)
    397c:	4798      	blx	r3
    397e:	4b03      	ldr	r3, [pc, #12]	; (398c <platform_stop_timer+0x1c>)
    3980:	4798      	blx	r3
    3982:	bd10      	pop	{r4, pc}
    3984:	00003645 	.word	0x00003645
    3988:	00003801 	.word	0x00003801
    398c:	00003651 	.word	0x00003651

00003990 <platform_sleep>:
    3990:	b510      	push	{r4, lr}
    3992:	2800      	cmp	r0, #0
    3994:	d002      	beq.n	399c <platform_sleep+0xc>
    3996:	4b03      	ldr	r3, [pc, #12]	; (39a4 <platform_sleep+0x14>)
    3998:	4798      	blx	r3
    399a:	e002      	b.n	39a2 <platform_sleep+0x12>
    399c:	2001      	movs	r0, #1
    399e:	4b02      	ldr	r3, [pc, #8]	; (39a8 <platform_sleep+0x18>)
    39a0:	4798      	blx	r3
    39a2:	bd10      	pop	{r4, pc}
    39a4:	00000181 	.word	0x00000181
    39a8:	00000155 	.word	0x00000155

000039ac <app_connected_event_handler>:
*/
static at_ble_status_t app_connected_event_handler(void *params)
{
	ALL_UNUSED(params);
	return AT_BLE_SUCCESS;
}
    39ac:	2000      	movs	r0, #0
    39ae:	4770      	bx	lr

000039b0 <app_disconnected_event_handler>:
/**
 * @brief app_connected_state ble manager notifies the application about state
 * @param[in] connected
 */
static at_ble_status_t app_disconnected_event_handler(void *params)
{
    39b0:	b510      	push	{r4, lr}
		/* Started advertisement */
		csc_prf_dev_adv();		
    39b2:	4b02      	ldr	r3, [pc, #8]	; (39bc <app_disconnected_event_handler+0xc>)
    39b4:	4798      	blx	r3
		ALL_UNUSED(params);
		return AT_BLE_SUCCESS;
}
    39b6:	2000      	movs	r0, #0
    39b8:	bd10      	pop	{r4, pc}
    39ba:	46c0      	nop			; (mov r8, r8)
    39bc:	0000225d 	.word	0x0000225d

000039c0 <csc_prf_report_ntf_cb>:
	}
}

/* Callback called for new data from remote device */
static void csc_prf_report_ntf_cb(csc_report_ntf_t *report_info)
{
    39c0:	b570      	push	{r4, r5, r6, lr}
	//DBG_LOG("\r\n");
	csc_app_recv_buf(report_info->recv_buff, report_info->recv_buff_len);
    39c2:	7903      	ldrb	r3, [r0, #4]
/* Function used for receive data */
static void csc_app_recv_buf(uint8_t *recv_data, uint8_t recv_len)
{
	uint16_t ind = 0;
	if (recv_len){
		for (ind = 0; ind < recv_len; ind++){
    39c4:	b29d      	uxth	r5, r3
    39c6:	2b00      	cmp	r3, #0
    39c8:	d00a      	beq.n	39e0 <csc_prf_report_ntf_cb+0x20>

/* Callback called for new data from remote device */
static void csc_prf_report_ntf_cb(csc_report_ntf_t *report_info)
{
	//DBG_LOG("\r\n");
	csc_app_recv_buf(report_info->recv_buff, report_info->recv_buff_len);
    39ca:	6804      	ldr	r4, [r0, #0]
    39cc:	3d01      	subs	r5, #1
    39ce:	b2ad      	uxth	r5, r5
    39d0:	3501      	adds	r5, #1
    39d2:	1965      	adds	r5, r4, r5
static void csc_app_recv_buf(uint8_t *recv_data, uint8_t recv_len)
{
	uint16_t ind = 0;
	if (recv_len){
		for (ind = 0; ind < recv_len; ind++){
			sio2host_putchar(recv_data[ind]);
    39d4:	4e03      	ldr	r6, [pc, #12]	; (39e4 <csc_prf_report_ntf_cb+0x24>)
    39d6:	7820      	ldrb	r0, [r4, #0]
    39d8:	47b0      	blx	r6
    39da:	3401      	adds	r4, #1
/* Function used for receive data */
static void csc_app_recv_buf(uint8_t *recv_data, uint8_t recv_len)
{
	uint16_t ind = 0;
	if (recv_len){
		for (ind = 0; ind < recv_len; ind++){
    39dc:	42ac      	cmp	r4, r5
    39de:	d1fa      	bne.n	39d6 <csc_prf_report_ntf_cb+0x16>
/* Callback called for new data from remote device */
static void csc_prf_report_ntf_cb(csc_report_ntf_t *report_info)
{
	//DBG_LOG("\r\n");
	csc_app_recv_buf(report_info->recv_buff, report_info->recv_buff_len);
}
    39e0:	bd70      	pop	{r4, r5, r6, pc}
    39e2:	46c0      	nop			; (mov r8, r8)
    39e4:	00002041 	.word	0x00002041

000039e8 <main>:
	}*/
}

bool app_exec = true;
int main(void )
{
    39e8:	b5f0      	push	{r4, r5, r6, r7, lr}
    39ea:	b083      	sub	sp, #12
#if SAMG55 || SAM4S
	/* Initialize the SAM system. */
	sysclk_init();
	board_init();
#elif SAM0
	system_init();
    39ec:	4b1d      	ldr	r3, [pc, #116]	; (3a64 <main+0x7c>)
    39ee:	4798      	blx	r3
#endif
	
	/* Initialize serial console */
	sio2host_init();
    39f0:	4b1d      	ldr	r3, [pc, #116]	; (3a68 <main+0x80>)
    39f2:	4798      	blx	r3
	
//	DBG_LOG("Initializing Transparent Uart Application");
	
	/* Initialize the buffer address and buffer length based on user input */
	csc_prf_buf_init(&send_data[0], APP_TX_BUF_SIZE);
    39f4:	2196      	movs	r1, #150	; 0x96
    39f6:	481d      	ldr	r0, [pc, #116]	; (3a6c <main+0x84>)
    39f8:	4b1d      	ldr	r3, [pc, #116]	; (3a70 <main+0x88>)
    39fa:	4798      	blx	r3
	
	/* initialize the ble chip  and Set the device mac address */
	ble_device_init(NULL);
    39fc:	2000      	movs	r0, #0
    39fe:	4b1d      	ldr	r3, [pc, #116]	; (3a74 <main+0x8c>)
    3a00:	4798      	blx	r3
	
	/* Initializing the profile */
	csc_prf_init(NULL);
    3a02:	2000      	movs	r0, #0
    3a04:	4b1c      	ldr	r3, [pc, #112]	; (3a78 <main+0x90>)
    3a06:	4798      	blx	r3
	
	/* Started advertisement */
	csc_prf_dev_adv();
    3a08:	4b1c      	ldr	r3, [pc, #112]	; (3a7c <main+0x94>)
    3a0a:	4798      	blx	r3
	
	ble_mgr_events_callback_handler(REGISTER_CALL_BACK,
    3a0c:	4a1c      	ldr	r2, [pc, #112]	; (3a80 <main+0x98>)
    3a0e:	2100      	movs	r1, #0
    3a10:	2000      	movs	r0, #0
    3a12:	4b1c      	ldr	r3, [pc, #112]	; (3a84 <main+0x9c>)
    3a14:	4798      	blx	r3
	BLE_GAP_EVENT_TYPE,
	app_gap_handle);
	
	/* Register the notification handler */
	notify_recv_ntf_handler(csc_prf_report_ntf_cb);
    3a16:	481c      	ldr	r0, [pc, #112]	; (3a88 <main+0xa0>)
    3a18:	4b1c      	ldr	r3, [pc, #112]	; (3a8c <main+0xa4>)
    3a1a:	4798      	blx	r3
	
	/* Capturing the events  */
	while(app_exec){
    3a1c:	4b1c      	ldr	r3, [pc, #112]	; (3a90 <main+0xa8>)
    3a1e:	781b      	ldrb	r3, [r3, #0]
    3a20:	2b00      	cmp	r3, #0
    3a22:	d01c      	beq.n	3a5e <main+0x76>
		ble_event_task();
    3a24:	4e1b      	ldr	r6, [pc, #108]	; (3a94 <main+0xac>)
static void csc_app_send_buf(void)
{
	//uint16_t ind = 0;
	uint16_t len = 0;
	uint8_t buff = 0;
	len = sio2host_rx(&buff, 1);
    3a26:	4d1c      	ldr	r5, [pc, #112]	; (3a98 <main+0xb0>)
	if (len){
		send_data[0] = buff;
    3a28:	4c10      	ldr	r4, [pc, #64]	; (3a6c <main+0x84>)
	/* Register the notification handler */
	notify_recv_ntf_handler(csc_prf_report_ntf_cb);
	
	/* Capturing the events  */
	while(app_exec){
		ble_event_task();
    3a2a:	47b0      	blx	r6
/* Function used for send data */
static void csc_app_send_buf(void)
{
	//uint16_t ind = 0;
	uint16_t len = 0;
	uint8_t buff = 0;
    3a2c:	466b      	mov	r3, sp
    3a2e:	1dd8      	adds	r0, r3, #7
    3a30:	2300      	movs	r3, #0
    3a32:	7003      	strb	r3, [r0, #0]
	len = sio2host_rx(&buff, 1);
    3a34:	2101      	movs	r1, #1
    3a36:	47a8      	blx	r5
	if (len){
    3a38:	2800      	cmp	r0, #0
    3a3a:	d00c      	beq.n	3a56 <main+0x6e>
		send_data[0] = buff;
    3a3c:	466b      	mov	r3, sp
    3a3e:	3307      	adds	r3, #7
    3a40:	781b      	ldrb	r3, [r3, #0]
    3a42:	7023      	strb	r3, [r4, #0]
		send_length = 1;
    3a44:	4f15      	ldr	r7, [pc, #84]	; (3a9c <main+0xb4>)
    3a46:	2301      	movs	r3, #1
    3a48:	803b      	strh	r3, [r7, #0]
		csc_prf_send_data(&send_data[0], send_length);
    3a4a:	2101      	movs	r1, #1
    3a4c:	0020      	movs	r0, r4
    3a4e:	4b14      	ldr	r3, [pc, #80]	; (3aa0 <main+0xb8>)
    3a50:	4798      	blx	r3
		send_length = 0;
    3a52:	2300      	movs	r3, #0
    3a54:	803b      	strh	r3, [r7, #0]
	
	/* Register the notification handler */
	notify_recv_ntf_handler(csc_prf_report_ntf_cb);
	
	/* Capturing the events  */
	while(app_exec){
    3a56:	4b0e      	ldr	r3, [pc, #56]	; (3a90 <main+0xa8>)
    3a58:	781b      	ldrb	r3, [r3, #0]
    3a5a:	2b00      	cmp	r3, #0
    3a5c:	d1e5      	bne.n	3a2a <main+0x42>
		ble_event_task();
		csc_app_send_buf();	
	}
	return 0;
}
    3a5e:	2000      	movs	r0, #0
    3a60:	b003      	add	sp, #12
    3a62:	bdf0      	pop	{r4, r5, r6, r7, pc}
    3a64:	00001789 	.word	0x00001789
    3a68:	00001e31 	.word	0x00001e31
    3a6c:	200019c4 	.word	0x200019c4
    3a70:	00002159 	.word	0x00002159
    3a74:	00002f89 	.word	0x00002f89
    3a78:	00002165 	.word	0x00002165
    3a7c:	0000225d 	.word	0x0000225d
    3a80:	000099bc 	.word	0x000099bc
    3a84:	00002eb9 	.word	0x00002eb9
    3a88:	000039c1 	.word	0x000039c1
    3a8c:	000022b1 	.word	0x000022b1
    3a90:	200000dc 	.word	0x200000dc
    3a94:	0000330d 	.word	0x0000330d
    3a98:	00001fad 	.word	0x00001fad
    3a9c:	200007b6 	.word	0x200007b6
    3aa0:	000021f9 	.word	0x000021f9

00003aa4 <internal_event_post>:
    3aa4:	b570      	push	{r4, r5, r6, lr}
    3aa6:	4d0c      	ldr	r5, [pc, #48]	; (3ad8 <internal_event_post+0x34>)
    3aa8:	682c      	ldr	r4, [r5, #0]
    3aaa:	2c00      	cmp	r4, #0
    3aac:	d013      	beq.n	3ad6 <internal_event_post+0x32>
    3aae:	6826      	ldr	r6, [r4, #0]
    3ab0:	60e2      	str	r2, [r4, #12]
    3ab2:	602e      	str	r6, [r5, #0]
    3ab4:	2500      	movs	r5, #0
    3ab6:	4a09      	ldr	r2, [pc, #36]	; (3adc <internal_event_post+0x38>)
    3ab8:	8123      	strh	r3, [r4, #8]
    3aba:	6813      	ldr	r3, [r2, #0]
    3abc:	6025      	str	r5, [r4, #0]
    3abe:	80a0      	strh	r0, [r4, #4]
    3ac0:	80e1      	strh	r1, [r4, #6]
    3ac2:	42ab      	cmp	r3, r5
    3ac4:	d101      	bne.n	3aca <internal_event_post+0x26>
    3ac6:	6014      	str	r4, [r2, #0]
    3ac8:	e005      	b.n	3ad6 <internal_event_post+0x32>
    3aca:	681a      	ldr	r2, [r3, #0]
    3acc:	2a00      	cmp	r2, #0
    3ace:	d001      	beq.n	3ad4 <internal_event_post+0x30>
    3ad0:	1c13      	adds	r3, r2, #0
    3ad2:	e7fa      	b.n	3aca <internal_event_post+0x26>
    3ad4:	601c      	str	r4, [r3, #0]
    3ad6:	bd70      	pop	{r4, r5, r6, pc}
    3ad8:	20000860 	.word	0x20000860
    3adc:	20000858 	.word	0x20000858

00003ae0 <internal_event_init>:
    3ae0:	4b0a      	ldr	r3, [pc, #40]	; (3b0c <internal_event_init+0x2c>)
    3ae2:	2200      	movs	r2, #0
    3ae4:	1c19      	adds	r1, r3, #0
    3ae6:	b510      	push	{r4, lr}
    3ae8:	6818      	ldr	r0, [r3, #0]
    3aea:	4b09      	ldr	r3, [pc, #36]	; (3b10 <internal_event_init+0x30>)
    3aec:	189c      	adds	r4, r3, r2
    3aee:	50d0      	str	r0, [r2, r3]
    3af0:	3210      	adds	r2, #16
    3af2:	1c20      	adds	r0, r4, #0
    3af4:	2aa0      	cmp	r2, #160	; 0xa0
    3af6:	d1f8      	bne.n	3aea <internal_event_init+0xa>
    3af8:	3390      	adds	r3, #144	; 0x90
    3afa:	600b      	str	r3, [r1, #0]
    3afc:	4b05      	ldr	r3, [pc, #20]	; (3b14 <internal_event_init+0x34>)
    3afe:	3aa1      	subs	r2, #161	; 0xa1
    3b00:	805a      	strh	r2, [r3, #2]
    3b02:	801a      	strh	r2, [r3, #0]
    3b04:	2200      	movs	r2, #0
    3b06:	609a      	str	r2, [r3, #8]
    3b08:	60da      	str	r2, [r3, #12]
    3b0a:	bd10      	pop	{r4, pc}
    3b0c:	20000860 	.word	0x20000860
    3b10:	200007b8 	.word	0x200007b8
    3b14:	20001a5c 	.word	0x20001a5c

00003b18 <special_events_handler>:
    3b18:	b538      	push	{r3, r4, r5, lr}
    3b1a:	4c20      	ldr	r4, [pc, #128]	; (3b9c <special_events_handler+0x84>)
    3b1c:	1c05      	adds	r5, r0, #0
    3b1e:	1c08      	adds	r0, r1, #0
    3b20:	8821      	ldrh	r1, [r4, #0]
    3b22:	1c23      	adds	r3, r4, #0
    3b24:	42a9      	cmp	r1, r5
    3b26:	d10e      	bne.n	3b46 <special_events_handler+0x2e>
    3b28:	88a1      	ldrh	r1, [r4, #4]
    3b2a:	4281      	cmp	r1, r0
    3b2c:	d10b      	bne.n	3b46 <special_events_handler+0x2e>
    3b2e:	2301      	movs	r3, #1
    3b30:	425b      	negs	r3, r3
    3b32:	8023      	strh	r3, [r4, #0]
    3b34:	60a2      	str	r2, [r4, #8]
    3b36:	4b1a      	ldr	r3, [pc, #104]	; (3ba0 <special_events_handler+0x88>)
    3b38:	8862      	ldrh	r2, [r4, #2]
    3b3a:	2101      	movs	r1, #1
    3b3c:	429a      	cmp	r2, r3
    3b3e:	d12b      	bne.n	3b98 <special_events_handler+0x80>
    3b40:	4b18      	ldr	r3, [pc, #96]	; (3ba4 <special_events_handler+0x8c>)
    3b42:	4798      	blx	r3
    3b44:	e01c      	b.n	3b80 <special_events_handler+0x68>
    3b46:	8859      	ldrh	r1, [r3, #2]
    3b48:	42a9      	cmp	r1, r5
    3b4a:	d10c      	bne.n	3b66 <special_events_handler+0x4e>
    3b4c:	8899      	ldrh	r1, [r3, #4]
    3b4e:	4281      	cmp	r1, r0
    3b50:	d109      	bne.n	3b66 <special_events_handler+0x4e>
    3b52:	2101      	movs	r1, #1
    3b54:	4249      	negs	r1, r1
    3b56:	8059      	strh	r1, [r3, #2]
    3b58:	6899      	ldr	r1, [r3, #8]
    3b5a:	2900      	cmp	r1, #0
    3b5c:	d101      	bne.n	3b62 <special_events_handler+0x4a>
    3b5e:	609a      	str	r2, [r3, #8]
    3b60:	e7ee      	b.n	3b40 <special_events_handler+0x28>
    3b62:	60da      	str	r2, [r3, #12]
    3b64:	e7ec      	b.n	3b40 <special_events_handler+0x28>
    3b66:	4b10      	ldr	r3, [pc, #64]	; (3ba8 <special_events_handler+0x90>)
    3b68:	429d      	cmp	r5, r3
    3b6a:	d00f      	beq.n	3b8c <special_events_handler+0x74>
    3b6c:	4b0f      	ldr	r3, [pc, #60]	; (3bac <special_events_handler+0x94>)
    3b6e:	429d      	cmp	r5, r3
    3b70:	d008      	beq.n	3b84 <special_events_handler+0x6c>
    3b72:	4b0f      	ldr	r3, [pc, #60]	; (3bb0 <special_events_handler+0x98>)
    3b74:	2100      	movs	r1, #0
    3b76:	429d      	cmp	r5, r3
    3b78:	d10e      	bne.n	3b98 <special_events_handler+0x80>
    3b7a:	1c10      	adds	r0, r2, #0
    3b7c:	4b0d      	ldr	r3, [pc, #52]	; (3bb4 <special_events_handler+0x9c>)
    3b7e:	4798      	blx	r3
    3b80:	2101      	movs	r1, #1
    3b82:	e009      	b.n	3b98 <special_events_handler+0x80>
    3b84:	1c11      	adds	r1, r2, #0
    3b86:	4b0c      	ldr	r3, [pc, #48]	; (3bb8 <special_events_handler+0xa0>)
    3b88:	2200      	movs	r2, #0
    3b8a:	e002      	b.n	3b92 <special_events_handler+0x7a>
    3b8c:	1c11      	adds	r1, r2, #0
    3b8e:	2200      	movs	r2, #0
    3b90:	4b0a      	ldr	r3, [pc, #40]	; (3bbc <special_events_handler+0xa4>)
    3b92:	4798      	blx	r3
    3b94:	4241      	negs	r1, r0
    3b96:	4141      	adcs	r1, r0
    3b98:	1c08      	adds	r0, r1, #0
    3b9a:	bd38      	pop	{r3, r4, r5, pc}
    3b9c:	20001a5c 	.word	0x20001a5c
    3ba0:	0000ffff 	.word	0x0000ffff
    3ba4:	000057dd 	.word	0x000057dd
    3ba8:	00000e13 	.word	0x00000e13
    3bac:	00000e15 	.word	0x00000e15
    3bb0:	00000e01 	.word	0x00000e01
    3bb4:	0000629d 	.word	0x0000629d
    3bb8:	0000646d 	.word	0x0000646d
    3bbc:	00006545 	.word	0x00006545

00003bc0 <at_ble_event_get>:
    3bc0:	2300      	movs	r3, #0
    3bc2:	b5f0      	push	{r4, r5, r6, r7, lr}
    3bc4:	1c0d      	adds	r5, r1, #0
    3bc6:	b085      	sub	sp, #20
    3bc8:	9002      	str	r0, [sp, #8]
    3bca:	9203      	str	r2, [sp, #12]
    3bcc:	7003      	strb	r3, [r0, #0]
    3bce:	4bb8      	ldr	r3, [pc, #736]	; (3eb0 <at_ble_event_get+0x2f0>)
    3bd0:	9803      	ldr	r0, [sp, #12]
    3bd2:	4798      	blx	r3
    3bd4:	2300      	movs	r3, #0
    3bd6:	9301      	str	r3, [sp, #4]
    3bd8:	4cb6      	ldr	r4, [pc, #728]	; (3eb4 <at_ble_event_get+0x2f4>)
    3bda:	6823      	ldr	r3, [r4, #0]
    3bdc:	2b00      	cmp	r3, #0
    3bde:	d104      	bne.n	3bea <at_ble_event_get+0x2a>
    3be0:	4bb5      	ldr	r3, [pc, #724]	; (3eb8 <at_ble_event_get+0x2f8>)
    3be2:	4798      	blx	r3
    3be4:	9001      	str	r0, [sp, #4]
    3be6:	28d0      	cmp	r0, #208	; 0xd0
    3be8:	d1f6      	bne.n	3bd8 <at_ble_event_get+0x18>
    3bea:	4bb4      	ldr	r3, [pc, #720]	; (3ebc <at_ble_event_get+0x2fc>)
    3bec:	4798      	blx	r3
    3bee:	9b01      	ldr	r3, [sp, #4]
    3bf0:	2bd0      	cmp	r3, #208	; 0xd0
    3bf2:	d100      	bne.n	3bf6 <at_ble_event_get+0x36>
    3bf4:	e28b      	b.n	410e <at_ble_event_get+0x54e>
    3bf6:	6823      	ldr	r3, [r4, #0]
    3bf8:	681a      	ldr	r2, [r3, #0]
    3bfa:	68d9      	ldr	r1, [r3, #12]
    3bfc:	6022      	str	r2, [r4, #0]
    3bfe:	88da      	ldrh	r2, [r3, #6]
    3c00:	9200      	str	r2, [sp, #0]
    3c02:	4aaf      	ldr	r2, [pc, #700]	; (3ec0 <at_ble_event_get+0x300>)
    3c04:	889c      	ldrh	r4, [r3, #4]
    3c06:	6810      	ldr	r0, [r2, #0]
    3c08:	6013      	str	r3, [r2, #0]
    3c0a:	6018      	str	r0, [r3, #0]
    3c0c:	9b01      	ldr	r3, [sp, #4]
    3c0e:	2b00      	cmp	r3, #0
    3c10:	d000      	beq.n	3c14 <at_ble_event_get+0x54>
    3c12:	e27c      	b.n	410e <at_ble_event_get+0x54e>
    3c14:	4bab      	ldr	r3, [pc, #684]	; (3ec4 <at_ble_event_get+0x304>)
    3c16:	429c      	cmp	r4, r3
    3c18:	d108      	bne.n	3c2c <at_ble_event_get+0x6c>
    3c1a:	9b00      	ldr	r3, [sp, #0]
    3c1c:	42a3      	cmp	r3, r4
    3c1e:	d000      	beq.n	3c22 <at_ble_event_get+0x62>
    3c20:	e265      	b.n	40ee <at_ble_event_get+0x52e>
    3c22:	2338      	movs	r3, #56	; 0x38
    3c24:	9a02      	ldr	r2, [sp, #8]
    3c26:	7013      	strb	r3, [r2, #0]
    3c28:	6029      	str	r1, [r5, #0]
    3c2a:	e270      	b.n	410e <at_ble_event_get+0x54e>
    3c2c:	9b00      	ldr	r3, [sp, #0]
    3c2e:	2bbb      	cmp	r3, #187	; 0xbb
    3c30:	d125      	bne.n	3c7e <at_ble_event_get+0xbe>
    3c32:	2cbb      	cmp	r4, #187	; 0xbb
    3c34:	d123      	bne.n	3c7e <at_ble_event_get+0xbe>
    3c36:	466b      	mov	r3, sp
    3c38:	889b      	ldrh	r3, [r3, #4]
    3c3a:	80ab      	strh	r3, [r5, #4]
    3c3c:	788b      	ldrb	r3, [r1, #2]
    3c3e:	784a      	ldrb	r2, [r1, #1]
    3c40:	021b      	lsls	r3, r3, #8
    3c42:	78cc      	ldrb	r4, [r1, #3]
    3c44:	7908      	ldrb	r0, [r1, #4]
    3c46:	4313      	orrs	r3, r2
    3c48:	794a      	ldrb	r2, [r1, #5]
    3c4a:	499f      	ldr	r1, [pc, #636]	; (3ec8 <at_ble_event_get+0x308>)
    3c4c:	70ac      	strb	r4, [r5, #2]
    3c4e:	802b      	strh	r3, [r5, #0]
    3c50:	428b      	cmp	r3, r1
    3c52:	d806      	bhi.n	3c62 <at_ble_event_get+0xa2>
    3c54:	4a9d      	ldr	r2, [pc, #628]	; (3ecc <at_ble_event_get+0x30c>)
    3c56:	4293      	cmp	r3, r2
    3c58:	d20b      	bcs.n	3c72 <at_ble_event_get+0xb2>
    3c5a:	4a9d      	ldr	r2, [pc, #628]	; (3ed0 <at_ble_event_get+0x310>)
    3c5c:	4293      	cmp	r3, r2
    3c5e:	d008      	beq.n	3c72 <at_ble_event_get+0xb2>
    3c60:	e009      	b.n	3c76 <at_ble_event_get+0xb6>
    3c62:	499c      	ldr	r1, [pc, #624]	; (3ed4 <at_ble_event_get+0x314>)
    3c64:	428b      	cmp	r3, r1
    3c66:	d106      	bne.n	3c76 <at_ble_event_get+0xb6>
    3c68:	0213      	lsls	r3, r2, #8
    3c6a:	4303      	orrs	r3, r0
    3c6c:	80ab      	strh	r3, [r5, #4]
    3c6e:	2337      	movs	r3, #55	; 0x37
    3c70:	e002      	b.n	3c78 <at_ble_event_get+0xb8>
    3c72:	2336      	movs	r3, #54	; 0x36
    3c74:	e000      	b.n	3c78 <at_ble_event_get+0xb8>
    3c76:	2300      	movs	r3, #0
    3c78:	9a02      	ldr	r2, [sp, #8]
    3c7a:	7013      	strb	r3, [r2, #0]
    3c7c:	e247      	b.n	410e <at_ble_event_get+0x54e>
    3c7e:	4b96      	ldr	r3, [pc, #600]	; (3ed8 <at_ble_event_get+0x318>)
    3c80:	429c      	cmp	r4, r3
    3c82:	d100      	bne.n	3c86 <at_ble_event_get+0xc6>
    3c84:	e1a2      	b.n	3fcc <at_ble_event_get+0x40c>
    3c86:	d900      	bls.n	3c8a <at_ble_event_get+0xca>
    3c88:	e083      	b.n	3d92 <at_ble_event_get+0x1d2>
    3c8a:	4b94      	ldr	r3, [pc, #592]	; (3edc <at_ble_event_get+0x31c>)
    3c8c:	429c      	cmp	r4, r3
    3c8e:	d100      	bne.n	3c92 <at_ble_event_get+0xd2>
    3c90:	e1fd      	b.n	408e <at_ble_event_get+0x4ce>
    3c92:	d83c      	bhi.n	3d0e <at_ble_event_get+0x14e>
    3c94:	4b92      	ldr	r3, [pc, #584]	; (3ee0 <at_ble_event_get+0x320>)
    3c96:	429c      	cmp	r4, r3
    3c98:	d100      	bne.n	3c9c <at_ble_event_get+0xdc>
    3c9a:	e1fc      	b.n	4096 <at_ble_event_get+0x4d6>
    3c9c:	d816      	bhi.n	3ccc <at_ble_event_get+0x10c>
    3c9e:	4b91      	ldr	r3, [pc, #580]	; (3ee4 <at_ble_event_get+0x324>)
    3ca0:	429c      	cmp	r4, r3
    3ca2:	d100      	bne.n	3ca6 <at_ble_event_get+0xe6>
    3ca4:	e1d5      	b.n	4052 <at_ble_event_get+0x492>
    3ca6:	d804      	bhi.n	3cb2 <at_ble_event_get+0xf2>
    3ca8:	2638      	movs	r6, #56	; 0x38
    3caa:	42b4      	cmp	r4, r6
    3cac:	d100      	bne.n	3cb0 <at_ble_event_get+0xf0>
    3cae:	e22c      	b.n	410a <at_ble_event_get+0x54a>
    3cb0:	e21d      	b.n	40ee <at_ble_event_get+0x52e>
    3cb2:	4b8d      	ldr	r3, [pc, #564]	; (3ee8 <at_ble_event_get+0x328>)
    3cb4:	429c      	cmp	r4, r3
    3cb6:	d100      	bne.n	3cba <at_ble_event_get+0xfa>
    3cb8:	e1d1      	b.n	405e <at_ble_event_get+0x49e>
    3cba:	33fe      	adds	r3, #254	; 0xfe
    3cbc:	33ff      	adds	r3, #255	; 0xff
    3cbe:	429c      	cmp	r4, r3
    3cc0:	d000      	beq.n	3cc4 <at_ble_event_get+0x104>
    3cc2:	e214      	b.n	40ee <at_ble_event_get+0x52e>
    3cc4:	9800      	ldr	r0, [sp, #0]
    3cc6:	1c2a      	adds	r2, r5, #0
    3cc8:	4b88      	ldr	r3, [pc, #544]	; (3eec <at_ble_event_get+0x32c>)
    3cca:	e194      	b.n	3ff6 <at_ble_event_get+0x436>
    3ccc:	4b88      	ldr	r3, [pc, #544]	; (3ef0 <at_ble_event_get+0x330>)
    3cce:	429c      	cmp	r4, r3
    3cd0:	d100      	bne.n	3cd4 <at_ble_event_get+0x114>
    3cd2:	e1d0      	b.n	4076 <at_ble_event_get+0x4b6>
    3cd4:	d80d      	bhi.n	3cf2 <at_ble_event_get+0x132>
    3cd6:	4b87      	ldr	r3, [pc, #540]	; (3ef4 <at_ble_event_get+0x334>)
    3cd8:	429c      	cmp	r4, r3
    3cda:	d100      	bne.n	3cde <at_ble_event_get+0x11e>
    3cdc:	e1c5      	b.n	406a <at_ble_event_get+0x4aa>
    3cde:	4b86      	ldr	r3, [pc, #536]	; (3ef8 <at_ble_event_get+0x338>)
    3ce0:	429c      	cmp	r4, r3
    3ce2:	d000      	beq.n	3ce6 <at_ble_event_get+0x126>
    3ce4:	e203      	b.n	40ee <at_ble_event_get+0x52e>
    3ce6:	9800      	ldr	r0, [sp, #0]
    3ce8:	1c2a      	adds	r2, r5, #0
    3cea:	4b84      	ldr	r3, [pc, #528]	; (3efc <at_ble_event_get+0x33c>)
    3cec:	4798      	blx	r3
    3cee:	2614      	movs	r6, #20
    3cf0:	e20b      	b.n	410a <at_ble_event_get+0x54a>
    3cf2:	4b83      	ldr	r3, [pc, #524]	; (3f00 <at_ble_event_get+0x340>)
    3cf4:	429c      	cmp	r4, r3
    3cf6:	d100      	bne.n	3cfa <at_ble_event_get+0x13a>
    3cf8:	e1c3      	b.n	4082 <at_ble_event_get+0x4c2>
    3cfa:	4b82      	ldr	r3, [pc, #520]	; (3f04 <at_ble_event_get+0x344>)
    3cfc:	429c      	cmp	r4, r3
    3cfe:	d000      	beq.n	3d02 <at_ble_event_get+0x142>
    3d00:	e1f5      	b.n	40ee <at_ble_event_get+0x52e>
    3d02:	9800      	ldr	r0, [sp, #0]
    3d04:	1c2a      	adds	r2, r5, #0
    3d06:	4b80      	ldr	r3, [pc, #512]	; (3f08 <at_ble_event_get+0x348>)
    3d08:	4798      	blx	r3
    3d0a:	2618      	movs	r6, #24
    3d0c:	e1fd      	b.n	410a <at_ble_event_get+0x54a>
    3d0e:	4b7f      	ldr	r3, [pc, #508]	; (3f0c <at_ble_event_get+0x34c>)
    3d10:	429c      	cmp	r4, r3
    3d12:	d100      	bne.n	3d16 <at_ble_event_get+0x156>
    3d14:	e1cc      	b.n	40b0 <at_ble_event_get+0x4f0>
    3d16:	d81e      	bhi.n	3d56 <at_ble_event_get+0x196>
    3d18:	4b7d      	ldr	r3, [pc, #500]	; (3f10 <at_ble_event_get+0x350>)
    3d1a:	429c      	cmp	r4, r3
    3d1c:	d100      	bne.n	3d20 <at_ble_event_get+0x160>
    3d1e:	e1ce      	b.n	40be <at_ble_event_get+0x4fe>
    3d20:	d80d      	bhi.n	3d3e <at_ble_event_get+0x17e>
    3d22:	4b7c      	ldr	r3, [pc, #496]	; (3f14 <at_ble_event_get+0x354>)
    3d24:	429c      	cmp	r4, r3
    3d26:	d000      	beq.n	3d2a <at_ble_event_get+0x16a>
    3d28:	e1e1      	b.n	40ee <at_ble_event_get+0x52e>
    3d2a:	9800      	ldr	r0, [sp, #0]
    3d2c:	1c2a      	adds	r2, r5, #0
    3d2e:	4b7a      	ldr	r3, [pc, #488]	; (3f18 <at_ble_event_get+0x358>)
    3d30:	4798      	blx	r3
    3d32:	88a9      	ldrh	r1, [r5, #4]
    3d34:	1c06      	adds	r6, r0, #0
    3d36:	4b79      	ldr	r3, [pc, #484]	; (3f1c <at_ble_event_get+0x35c>)
    3d38:	8828      	ldrh	r0, [r5, #0]
    3d3a:	4798      	blx	r3
    3d3c:	e1e5      	b.n	410a <at_ble_event_get+0x54a>
    3d3e:	4b78      	ldr	r3, [pc, #480]	; (3f20 <at_ble_event_get+0x360>)
    3d40:	429c      	cmp	r4, r3
    3d42:	d100      	bne.n	3d46 <at_ble_event_get+0x186>
    3d44:	e1ad      	b.n	40a2 <at_ble_event_get+0x4e2>
    3d46:	4b77      	ldr	r3, [pc, #476]	; (3f24 <at_ble_event_get+0x364>)
    3d48:	429c      	cmp	r4, r3
    3d4a:	d000      	beq.n	3d4e <at_ble_event_get+0x18e>
    3d4c:	e1cf      	b.n	40ee <at_ble_event_get+0x52e>
    3d4e:	9800      	ldr	r0, [sp, #0]
    3d50:	1c2a      	adds	r2, r5, #0
    3d52:	4b75      	ldr	r3, [pc, #468]	; (3f28 <at_ble_event_get+0x368>)
    3d54:	e14f      	b.n	3ff6 <at_ble_event_get+0x436>
    3d56:	4b75      	ldr	r3, [pc, #468]	; (3f2c <at_ble_event_get+0x36c>)
    3d58:	429c      	cmp	r4, r3
    3d5a:	d100      	bne.n	3d5e <at_ble_event_get+0x19e>
    3d5c:	e12a      	b.n	3fb4 <at_ble_event_get+0x3f4>
    3d5e:	d809      	bhi.n	3d74 <at_ble_event_get+0x1b4>
    3d60:	3b08      	subs	r3, #8
    3d62:	429c      	cmp	r4, r3
    3d64:	d100      	bne.n	3d68 <at_ble_event_get+0x1a8>
    3d66:	e09e      	b.n	3ea6 <at_ble_event_get+0x2e6>
    3d68:	4b71      	ldr	r3, [pc, #452]	; (3f30 <at_ble_event_get+0x370>)
    3d6a:	2639      	movs	r6, #57	; 0x39
    3d6c:	429c      	cmp	r4, r3
    3d6e:	d100      	bne.n	3d72 <at_ble_event_get+0x1b2>
    3d70:	e1cb      	b.n	410a <at_ble_event_get+0x54a>
    3d72:	e1bc      	b.n	40ee <at_ble_event_get+0x52e>
    3d74:	23d1      	movs	r3, #209	; 0xd1
    3d76:	011b      	lsls	r3, r3, #4
    3d78:	429c      	cmp	r4, r3
    3d7a:	d100      	bne.n	3d7e <at_ble_event_get+0x1be>
    3d7c:	e120      	b.n	3fc0 <at_ble_event_get+0x400>
    3d7e:	4b6d      	ldr	r3, [pc, #436]	; (3f34 <at_ble_event_get+0x374>)
    3d80:	429c      	cmp	r4, r3
    3d82:	d000      	beq.n	3d86 <at_ble_event_get+0x1c6>
    3d84:	e1b3      	b.n	40ee <at_ble_event_get+0x52e>
    3d86:	1c08      	adds	r0, r1, #0
    3d88:	4b6b      	ldr	r3, [pc, #428]	; (3f38 <at_ble_event_get+0x378>)
    3d8a:	1c29      	adds	r1, r5, #0
    3d8c:	4798      	blx	r3
    3d8e:	260f      	movs	r6, #15
    3d90:	e1bb      	b.n	410a <at_ble_event_get+0x54a>
    3d92:	4b6a      	ldr	r3, [pc, #424]	; (3f3c <at_ble_event_get+0x37c>)
    3d94:	429c      	cmp	r4, r3
    3d96:	d100      	bne.n	3d9a <at_ble_event_get+0x1da>
    3d98:	e135      	b.n	4006 <at_ble_event_get+0x446>
    3d9a:	d83d      	bhi.n	3e18 <at_ble_event_get+0x258>
    3d9c:	4b68      	ldr	r3, [pc, #416]	; (3f40 <at_ble_event_get+0x380>)
    3d9e:	429c      	cmp	r4, r3
    3da0:	d100      	bne.n	3da4 <at_ble_event_get+0x1e4>
    3da2:	e152      	b.n	404a <at_ble_event_get+0x48a>
    3da4:	d819      	bhi.n	3dda <at_ble_event_get+0x21a>
    3da6:	4b67      	ldr	r3, [pc, #412]	; (3f44 <at_ble_event_get+0x384>)
    3da8:	429c      	cmp	r4, r3
    3daa:	d100      	bne.n	3dae <at_ble_event_get+0x1ee>
    3dac:	e11a      	b.n	3fe4 <at_ble_event_get+0x424>
    3dae:	d807      	bhi.n	3dc0 <at_ble_event_get+0x200>
    3db0:	3b03      	subs	r3, #3
    3db2:	429c      	cmp	r4, r3
    3db4:	d000      	beq.n	3db8 <at_ble_event_get+0x1f8>
    3db6:	e19a      	b.n	40ee <at_ble_event_get+0x52e>
    3db8:	9800      	ldr	r0, [sp, #0]
    3dba:	1c2a      	adds	r2, r5, #0
    3dbc:	4b62      	ldr	r3, [pc, #392]	; (3f48 <at_ble_event_get+0x388>)
    3dbe:	e11a      	b.n	3ff6 <at_ble_event_get+0x436>
    3dc0:	4b62      	ldr	r3, [pc, #392]	; (3f4c <at_ble_event_get+0x38c>)
    3dc2:	429c      	cmp	r4, r3
    3dc4:	d100      	bne.n	3dc8 <at_ble_event_get+0x208>
    3dc6:	e107      	b.n	3fd8 <at_ble_event_get+0x418>
    3dc8:	4b61      	ldr	r3, [pc, #388]	; (3f50 <at_ble_event_get+0x390>)
    3dca:	429c      	cmp	r4, r3
    3dcc:	d000      	beq.n	3dd0 <at_ble_event_get+0x210>
    3dce:	e18e      	b.n	40ee <at_ble_event_get+0x52e>
    3dd0:	9800      	ldr	r0, [sp, #0]
    3dd2:	1c2a      	adds	r2, r5, #0
    3dd4:	4b5f      	ldr	r3, [pc, #380]	; (3f54 <at_ble_event_get+0x394>)
    3dd6:	4798      	blx	r3
    3dd8:	e16f      	b.n	40ba <at_ble_event_get+0x4fa>
    3dda:	4b5f      	ldr	r3, [pc, #380]	; (3f58 <at_ble_event_get+0x398>)
    3ddc:	429c      	cmp	r4, r3
    3dde:	d100      	bne.n	3de2 <at_ble_event_get+0x222>
    3de0:	e106      	b.n	3ff0 <at_ble_event_get+0x430>
    3de2:	d80b      	bhi.n	3dfc <at_ble_event_get+0x23c>
    3de4:	4b5d      	ldr	r3, [pc, #372]	; (3f5c <at_ble_event_get+0x39c>)
    3de6:	429c      	cmp	r4, r3
    3de8:	d100      	bne.n	3dec <at_ble_event_get+0x22c>
    3dea:	e12a      	b.n	4042 <at_ble_event_get+0x482>
    3dec:	4b5c      	ldr	r3, [pc, #368]	; (3f60 <at_ble_event_get+0x3a0>)
    3dee:	429c      	cmp	r4, r3
    3df0:	d000      	beq.n	3df4 <at_ble_event_get+0x234>
    3df2:	e17c      	b.n	40ee <at_ble_event_get+0x52e>
    3df4:	9800      	ldr	r0, [sp, #0]
    3df6:	1c2a      	adds	r2, r5, #0
    3df8:	4b5a      	ldr	r3, [pc, #360]	; (3f64 <at_ble_event_get+0x3a4>)
    3dfa:	e0fc      	b.n	3ff6 <at_ble_event_get+0x436>
    3dfc:	4b5a      	ldr	r3, [pc, #360]	; (3f68 <at_ble_event_get+0x3a8>)
    3dfe:	429c      	cmp	r4, r3
    3e00:	d100      	bne.n	3e04 <at_ble_event_get+0x244>
    3e02:	e0fa      	b.n	3ffa <at_ble_event_get+0x43a>
    3e04:	4b59      	ldr	r3, [pc, #356]	; (3f6c <at_ble_event_get+0x3ac>)
    3e06:	429c      	cmp	r4, r3
    3e08:	d000      	beq.n	3e0c <at_ble_event_get+0x24c>
    3e0a:	e170      	b.n	40ee <at_ble_event_get+0x52e>
    3e0c:	9800      	ldr	r0, [sp, #0]
    3e0e:	1c2a      	adds	r2, r5, #0
    3e10:	4b57      	ldr	r3, [pc, #348]	; (3f70 <at_ble_event_get+0x3b0>)
    3e12:	4798      	blx	r3
    3e14:	260e      	movs	r6, #14
    3e16:	e178      	b.n	410a <at_ble_event_get+0x54a>
    3e18:	4b56      	ldr	r3, [pc, #344]	; (3f74 <at_ble_event_get+0x3b4>)
    3e1a:	429c      	cmp	r4, r3
    3e1c:	d100      	bne.n	3e20 <at_ble_event_get+0x260>
    3e1e:	e104      	b.n	402a <at_ble_event_get+0x46a>
    3e20:	d820      	bhi.n	3e64 <at_ble_event_get+0x2a4>
    3e22:	4b55      	ldr	r3, [pc, #340]	; (3f78 <at_ble_event_get+0x3b8>)
    3e24:	429c      	cmp	r4, r3
    3e26:	d100      	bne.n	3e2a <at_ble_event_get+0x26a>
    3e28:	e105      	b.n	4036 <at_ble_event_get+0x476>
    3e2a:	d80d      	bhi.n	3e48 <at_ble_event_get+0x288>
    3e2c:	4b53      	ldr	r3, [pc, #332]	; (3f7c <at_ble_event_get+0x3bc>)
    3e2e:	429c      	cmp	r4, r3
    3e30:	d100      	bne.n	3e34 <at_ble_event_get+0x274>
    3e32:	e0ee      	b.n	4012 <at_ble_event_get+0x452>
    3e34:	4b52      	ldr	r3, [pc, #328]	; (3f80 <at_ble_event_get+0x3c0>)
    3e36:	429c      	cmp	r4, r3
    3e38:	d000      	beq.n	3e3c <at_ble_event_get+0x27c>
    3e3a:	e158      	b.n	40ee <at_ble_event_get+0x52e>
    3e3c:	9800      	ldr	r0, [sp, #0]
    3e3e:	1c2a      	adds	r2, r5, #0
    3e40:	4b50      	ldr	r3, [pc, #320]	; (3f84 <at_ble_event_get+0x3c4>)
    3e42:	4798      	blx	r3
    3e44:	2612      	movs	r6, #18
    3e46:	e160      	b.n	410a <at_ble_event_get+0x54a>
    3e48:	4b4f      	ldr	r3, [pc, #316]	; (3f88 <at_ble_event_get+0x3c8>)
    3e4a:	429c      	cmp	r4, r3
    3e4c:	d100      	bne.n	3e50 <at_ble_event_get+0x290>
    3e4e:	e0e6      	b.n	401e <at_ble_event_get+0x45e>
    3e50:	4b4e      	ldr	r3, [pc, #312]	; (3f8c <at_ble_event_get+0x3cc>)
    3e52:	429c      	cmp	r4, r3
    3e54:	d000      	beq.n	3e58 <at_ble_event_get+0x298>
    3e56:	e14a      	b.n	40ee <at_ble_event_get+0x52e>
    3e58:	1c08      	adds	r0, r1, #0
    3e5a:	4b4d      	ldr	r3, [pc, #308]	; (3f90 <at_ble_event_get+0x3d0>)
    3e5c:	1c29      	adds	r1, r5, #0
    3e5e:	4798      	blx	r3
    3e60:	262a      	movs	r6, #42	; 0x2a
    3e62:	e152      	b.n	410a <at_ble_event_get+0x54a>
    3e64:	4b4b      	ldr	r3, [pc, #300]	; (3f94 <at_ble_event_get+0x3d4>)
    3e66:	429c      	cmp	r4, r3
    3e68:	d100      	bne.n	3e6c <at_ble_event_get+0x2ac>
    3e6a:	e134      	b.n	40d6 <at_ble_event_get+0x516>
    3e6c:	d80d      	bhi.n	3e8a <at_ble_event_get+0x2ca>
    3e6e:	4b4a      	ldr	r3, [pc, #296]	; (3f98 <at_ble_event_get+0x3d8>)
    3e70:	429c      	cmp	r4, r3
    3e72:	d100      	bne.n	3e76 <at_ble_event_get+0x2b6>
    3e74:	e129      	b.n	40ca <at_ble_event_get+0x50a>
    3e76:	4b49      	ldr	r3, [pc, #292]	; (3f9c <at_ble_event_get+0x3dc>)
    3e78:	429c      	cmp	r4, r3
    3e7a:	d000      	beq.n	3e7e <at_ble_event_get+0x2be>
    3e7c:	e137      	b.n	40ee <at_ble_event_get+0x52e>
    3e7e:	9800      	ldr	r0, [sp, #0]
    3e80:	1c2a      	adds	r2, r5, #0
    3e82:	4b47      	ldr	r3, [pc, #284]	; (3fa0 <at_ble_event_get+0x3e0>)
    3e84:	4798      	blx	r3
    3e86:	2630      	movs	r6, #48	; 0x30
    3e88:	e13f      	b.n	410a <at_ble_event_get+0x54a>
    3e8a:	4b46      	ldr	r3, [pc, #280]	; (3fa4 <at_ble_event_get+0x3e4>)
    3e8c:	429c      	cmp	r4, r3
    3e8e:	d100      	bne.n	3e92 <at_ble_event_get+0x2d2>
    3e90:	e127      	b.n	40e2 <at_ble_event_get+0x522>
    3e92:	4b45      	ldr	r3, [pc, #276]	; (3fa8 <at_ble_event_get+0x3e8>)
    3e94:	429c      	cmp	r4, r3
    3e96:	d000      	beq.n	3e9a <at_ble_event_get+0x2da>
    3e98:	e129      	b.n	40ee <at_ble_event_get+0x52e>
    3e9a:	9800      	ldr	r0, [sp, #0]
    3e9c:	1c2a      	adds	r2, r5, #0
    3e9e:	4b43      	ldr	r3, [pc, #268]	; (3fac <at_ble_event_get+0x3ec>)
    3ea0:	4798      	blx	r3
    3ea2:	2632      	movs	r6, #50	; 0x32
    3ea4:	e131      	b.n	410a <at_ble_event_get+0x54a>
    3ea6:	1c08      	adds	r0, r1, #0
    3ea8:	4b41      	ldr	r3, [pc, #260]	; (3fb0 <at_ble_event_get+0x3f0>)
    3eaa:	1c29      	adds	r1, r5, #0
    3eac:	e091      	b.n	3fd2 <at_ble_event_get+0x412>
    3eae:	46c0      	nop			; (mov r8, r8)
    3eb0:	0000576d 	.word	0x0000576d
    3eb4:	20000858 	.word	0x20000858
    3eb8:	000057e9 	.word	0x000057e9
    3ebc:	00005791 	.word	0x00005791
    3ec0:	20000860 	.word	0x20000860
    3ec4:	0000ffff 	.word	0x0000ffff
    3ec8:	0000201e 	.word	0x0000201e
    3ecc:	0000201d 	.word	0x0000201d
    3ed0:	00000c03 	.word	0x00000c03
    3ed4:	0000201f 	.word	0x0000201f
    3ed8:	00000d1c 	.word	0x00000d1c
    3edc:	00000c0c 	.word	0x00000c0c
    3ee0:	00000c02 	.word	0x00000c02
    3ee4:	00000a02 	.word	0x00000a02
    3ee8:	00000a03 	.word	0x00000a03
    3eec:	000075b9 	.word	0x000075b9
    3ef0:	00000c06 	.word	0x00000c06
    3ef4:	00000c04 	.word	0x00000c04
    3ef8:	00000c05 	.word	0x00000c05
    3efc:	000074a5 	.word	0x000074a5
    3f00:	00000c07 	.word	0x00000c07
    3f04:	00000c09 	.word	0x00000c09
    3f08:	00007699 	.word	0x00007699
    3f0c:	00000c17 	.word	0x00000c17
    3f10:	00000c12 	.word	0x00000c12
    3f14:	00000c0d 	.word	0x00000c0d
    3f18:	00007565 	.word	0x00007565
    3f1c:	00007421 	.word	0x00007421
    3f20:	00000c13 	.word	0x00000c13
    3f24:	00000c15 	.word	0x00000c15
    3f28:	00005069 	.word	0x00005069
    3f2c:	00000d08 	.word	0x00000d08
    3f30:	00000d01 	.word	0x00000d01
    3f34:	00000d15 	.word	0x00000d15
    3f38:	00007171 	.word	0x00007171
    3f3c:	00000e1b 	.word	0x00000e1b
    3f40:	00000e0f 	.word	0x00000e0f
    3f44:	00000e03 	.word	0x00000e03
    3f48:	00006071 	.word	0x00006071
    3f4c:	00000e06 	.word	0x00000e06
    3f50:	00000e0a 	.word	0x00000e0a
    3f54:	00006905 	.word	0x00006905
    3f58:	00000e15 	.word	0x00000e15
    3f5c:	00000e11 	.word	0x00000e11
    3f60:	00000e13 	.word	0x00000e13
    3f64:	00006545 	.word	0x00006545
    3f68:	00000e17 	.word	0x00000e17
    3f6c:	00000e19 	.word	0x00000e19
    3f70:	00006849 	.word	0x00006849
    3f74:	00000e27 	.word	0x00000e27
    3f78:	00000e21 	.word	0x00000e21
    3f7c:	00000e1c 	.word	0x00000e1c
    3f80:	00000e1d 	.word	0x00000e1d
    3f84:	00006a25 	.word	0x00006a25
    3f88:	00000e22 	.word	0x00000e22
    3f8c:	00000e25 	.word	0x00000e25
    3f90:	00006aab 	.word	0x00006aab
    3f94:	00001b05 	.word	0x00001b05
    3f98:	00001b01 	.word	0x00001b01
    3f9c:	00001b03 	.word	0x00001b03
    3fa0:	000079a7 	.word	0x000079a7
    3fa4:	00001b06 	.word	0x00001b06
    3fa8:	00001b08 	.word	0x00001b08
    3fac:	000079bf 	.word	0x000079bf
    3fb0:	00006dd9 	.word	0x00006dd9
    3fb4:	1c08      	adds	r0, r1, #0
    3fb6:	4b5b      	ldr	r3, [pc, #364]	; (4124 <at_ble_event_get+0x564>)
    3fb8:	1c29      	adds	r1, r5, #0
    3fba:	4798      	blx	r3
    3fbc:	2604      	movs	r6, #4
    3fbe:	e0a4      	b.n	410a <at_ble_event_get+0x54a>
    3fc0:	1c08      	adds	r0, r1, #0
    3fc2:	4b59      	ldr	r3, [pc, #356]	; (4128 <at_ble_event_get+0x568>)
    3fc4:	1c29      	adds	r1, r5, #0
    3fc6:	4798      	blx	r3
    3fc8:	2601      	movs	r6, #1
    3fca:	e09e      	b.n	410a <at_ble_event_get+0x54a>
    3fcc:	1c08      	adds	r0, r1, #0
    3fce:	1c29      	adds	r1, r5, #0
    3fd0:	4b56      	ldr	r3, [pc, #344]	; (412c <at_ble_event_get+0x56c>)
    3fd2:	4798      	blx	r3
    3fd4:	1c06      	adds	r6, r0, #0
    3fd6:	e098      	b.n	410a <at_ble_event_get+0x54a>
    3fd8:	9800      	ldr	r0, [sp, #0]
    3fda:	1c2a      	adds	r2, r5, #0
    3fdc:	4b54      	ldr	r3, [pc, #336]	; (4130 <at_ble_event_get+0x570>)
    3fde:	4798      	blx	r3
    3fe0:	2611      	movs	r6, #17
    3fe2:	e092      	b.n	410a <at_ble_event_get+0x54a>
    3fe4:	1c08      	adds	r0, r1, #0
    3fe6:	4b53      	ldr	r3, [pc, #332]	; (4134 <at_ble_event_get+0x574>)
    3fe8:	1c29      	adds	r1, r5, #0
    3fea:	4798      	blx	r3
    3fec:	2606      	movs	r6, #6
    3fee:	e08c      	b.n	410a <at_ble_event_get+0x54a>
    3ff0:	1c2a      	adds	r2, r5, #0
    3ff2:	9800      	ldr	r0, [sp, #0]
    3ff4:	4b50      	ldr	r3, [pc, #320]	; (4138 <at_ble_event_get+0x578>)
    3ff6:	4798      	blx	r3
    3ff8:	e7ec      	b.n	3fd4 <at_ble_event_get+0x414>
    3ffa:	9800      	ldr	r0, [sp, #0]
    3ffc:	1c2a      	adds	r2, r5, #0
    3ffe:	4b4f      	ldr	r3, [pc, #316]	; (413c <at_ble_event_get+0x57c>)
    4000:	4798      	blx	r3
    4002:	260d      	movs	r6, #13
    4004:	e081      	b.n	410a <at_ble_event_get+0x54a>
    4006:	9800      	ldr	r0, [sp, #0]
    4008:	1c2a      	adds	r2, r5, #0
    400a:	4b4d      	ldr	r3, [pc, #308]	; (4140 <at_ble_event_get+0x580>)
    400c:	4798      	blx	r3
    400e:	260b      	movs	r6, #11
    4010:	e07b      	b.n	410a <at_ble_event_get+0x54a>
    4012:	9800      	ldr	r0, [sp, #0]
    4014:	1c2a      	adds	r2, r5, #0
    4016:	4b4b      	ldr	r3, [pc, #300]	; (4144 <at_ble_event_get+0x584>)
    4018:	4798      	blx	r3
    401a:	2610      	movs	r6, #16
    401c:	e075      	b.n	410a <at_ble_event_get+0x54a>
    401e:	1c08      	adds	r0, r1, #0
    4020:	4b49      	ldr	r3, [pc, #292]	; (4148 <at_ble_event_get+0x588>)
    4022:	1c29      	adds	r1, r5, #0
    4024:	4798      	blx	r3
    4026:	2628      	movs	r6, #40	; 0x28
    4028:	e06f      	b.n	410a <at_ble_event_get+0x54a>
    402a:	1c08      	adds	r0, r1, #0
    402c:	4b47      	ldr	r3, [pc, #284]	; (414c <at_ble_event_get+0x58c>)
    402e:	1c29      	adds	r1, r5, #0
    4030:	4798      	blx	r3
    4032:	2629      	movs	r6, #41	; 0x29
    4034:	e069      	b.n	410a <at_ble_event_get+0x54a>
    4036:	1c08      	adds	r0, r1, #0
    4038:	4b45      	ldr	r3, [pc, #276]	; (4150 <at_ble_event_get+0x590>)
    403a:	1c29      	adds	r1, r5, #0
    403c:	4798      	blx	r3
    403e:	2627      	movs	r6, #39	; 0x27
    4040:	e063      	b.n	410a <at_ble_event_get+0x54a>
    4042:	9800      	ldr	r0, [sp, #0]
    4044:	1c2a      	adds	r2, r5, #0
    4046:	4b43      	ldr	r3, [pc, #268]	; (4154 <at_ble_event_get+0x594>)
    4048:	e7d5      	b.n	3ff6 <at_ble_event_get+0x436>
    404a:	9800      	ldr	r0, [sp, #0]
    404c:	1c2a      	adds	r2, r5, #0
    404e:	4b42      	ldr	r3, [pc, #264]	; (4158 <at_ble_event_get+0x598>)
    4050:	e7d1      	b.n	3ff6 <at_ble_event_get+0x436>
    4052:	1c08      	adds	r0, r1, #0
    4054:	4b41      	ldr	r3, [pc, #260]	; (415c <at_ble_event_get+0x59c>)
    4056:	1c29      	adds	r1, r5, #0
    4058:	4798      	blx	r3
    405a:	262b      	movs	r6, #43	; 0x2b
    405c:	e055      	b.n	410a <at_ble_event_get+0x54a>
    405e:	1c08      	adds	r0, r1, #0
    4060:	4b3f      	ldr	r3, [pc, #252]	; (4160 <at_ble_event_get+0x5a0>)
    4062:	1c29      	adds	r1, r5, #0
    4064:	4798      	blx	r3
    4066:	262c      	movs	r6, #44	; 0x2c
    4068:	e04f      	b.n	410a <at_ble_event_get+0x54a>
    406a:	9800      	ldr	r0, [sp, #0]
    406c:	1c2a      	adds	r2, r5, #0
    406e:	4b3d      	ldr	r3, [pc, #244]	; (4164 <at_ble_event_get+0x5a4>)
    4070:	4798      	blx	r3
    4072:	2613      	movs	r6, #19
    4074:	e049      	b.n	410a <at_ble_event_get+0x54a>
    4076:	9800      	ldr	r0, [sp, #0]
    4078:	1c2a      	adds	r2, r5, #0
    407a:	4b3b      	ldr	r3, [pc, #236]	; (4168 <at_ble_event_get+0x5a8>)
    407c:	4798      	blx	r3
    407e:	2615      	movs	r6, #21
    4080:	e043      	b.n	410a <at_ble_event_get+0x54a>
    4082:	9800      	ldr	r0, [sp, #0]
    4084:	1c2a      	adds	r2, r5, #0
    4086:	4b39      	ldr	r3, [pc, #228]	; (416c <at_ble_event_get+0x5ac>)
    4088:	4798      	blx	r3
    408a:	2616      	movs	r6, #22
    408c:	e03d      	b.n	410a <at_ble_event_get+0x54a>
    408e:	9800      	ldr	r0, [sp, #0]
    4090:	1c2a      	adds	r2, r5, #0
    4092:	4b37      	ldr	r3, [pc, #220]	; (4170 <at_ble_event_get+0x5b0>)
    4094:	e7af      	b.n	3ff6 <at_ble_event_get+0x436>
    4096:	9800      	ldr	r0, [sp, #0]
    4098:	1c2a      	adds	r2, r5, #0
    409a:	4b36      	ldr	r3, [pc, #216]	; (4174 <at_ble_event_get+0x5b4>)
    409c:	4798      	blx	r3
    409e:	2623      	movs	r6, #35	; 0x23
    40a0:	e033      	b.n	410a <at_ble_event_get+0x54a>
    40a2:	9b00      	ldr	r3, [sp, #0]
    40a4:	1c08      	adds	r0, r1, #0
    40a6:	0a1f      	lsrs	r7, r3, #8
    40a8:	802f      	strh	r7, [r5, #0]
    40aa:	1c29      	adds	r1, r5, #0
    40ac:	4b32      	ldr	r3, [pc, #200]	; (4178 <at_ble_event_get+0x5b8>)
    40ae:	e790      	b.n	3fd2 <at_ble_event_get+0x412>
    40b0:	1c08      	adds	r0, r1, #0
    40b2:	9a00      	ldr	r2, [sp, #0]
    40b4:	1c29      	adds	r1, r5, #0
    40b6:	4b31      	ldr	r3, [pc, #196]	; (417c <at_ble_event_get+0x5bc>)
    40b8:	4798      	blx	r3
    40ba:	263a      	movs	r6, #58	; 0x3a
    40bc:	e025      	b.n	410a <at_ble_event_get+0x54a>
    40be:	9800      	ldr	r0, [sp, #0]
    40c0:	1c2a      	adds	r2, r5, #0
    40c2:	4b2f      	ldr	r3, [pc, #188]	; (4180 <at_ble_event_get+0x5c0>)
    40c4:	4798      	blx	r3
    40c6:	2620      	movs	r6, #32
    40c8:	e01f      	b.n	410a <at_ble_event_get+0x54a>
    40ca:	9800      	ldr	r0, [sp, #0]
    40cc:	1c2a      	adds	r2, r5, #0
    40ce:	4b2d      	ldr	r3, [pc, #180]	; (4184 <at_ble_event_get+0x5c4>)
    40d0:	4798      	blx	r3
    40d2:	2633      	movs	r6, #51	; 0x33
    40d4:	e019      	b.n	410a <at_ble_event_get+0x54a>
    40d6:	9800      	ldr	r0, [sp, #0]
    40d8:	1c2a      	adds	r2, r5, #0
    40da:	4b2b      	ldr	r3, [pc, #172]	; (4188 <at_ble_event_get+0x5c8>)
    40dc:	4798      	blx	r3
    40de:	2634      	movs	r6, #52	; 0x34
    40e0:	e013      	b.n	410a <at_ble_event_get+0x54a>
    40e2:	9800      	ldr	r0, [sp, #0]
    40e4:	1c2a      	adds	r2, r5, #0
    40e6:	4b29      	ldr	r3, [pc, #164]	; (418c <at_ble_event_get+0x5cc>)
    40e8:	4798      	blx	r3
    40ea:	2635      	movs	r6, #53	; 0x35
    40ec:	e00d      	b.n	410a <at_ble_event_get+0x54a>
    40ee:	22c5      	movs	r2, #197	; 0xc5
    40f0:	4e27      	ldr	r6, [pc, #156]	; (4190 <at_ble_event_get+0x5d0>)
    40f2:	4928      	ldr	r1, [pc, #160]	; (4194 <at_ble_event_get+0x5d4>)
    40f4:	0052      	lsls	r2, r2, #1
    40f6:	4b28      	ldr	r3, [pc, #160]	; (4198 <at_ble_event_get+0x5d8>)
    40f8:	6837      	ldr	r7, [r6, #0]
    40fa:	4828      	ldr	r0, [pc, #160]	; (419c <at_ble_event_get+0x5dc>)
    40fc:	47b8      	blx	r7
    40fe:	6833      	ldr	r3, [r6, #0]
    4100:	4827      	ldr	r0, [pc, #156]	; (41a0 <at_ble_event_get+0x5e0>)
    4102:	9900      	ldr	r1, [sp, #0]
    4104:	1c22      	adds	r2, r4, #0
    4106:	4798      	blx	r3
    4108:	2600      	movs	r6, #0
    410a:	9b02      	ldr	r3, [sp, #8]
    410c:	701e      	strb	r6, [r3, #0]
    410e:	9b02      	ldr	r3, [sp, #8]
    4110:	781b      	ldrb	r3, [r3, #0]
    4112:	2b3a      	cmp	r3, #58	; 0x3a
    4114:	d103      	bne.n	411e <at_ble_event_get+0x55e>
    4116:	9b01      	ldr	r3, [sp, #4]
    4118:	2b00      	cmp	r3, #0
    411a:	d100      	bne.n	411e <at_ble_event_get+0x55e>
    411c:	e557      	b.n	3bce <at_ble_event_get+0xe>
    411e:	9801      	ldr	r0, [sp, #4]
    4120:	b005      	add	sp, #20
    4122:	bdf0      	pop	{r4, r5, r6, r7, pc}
    4124:	00006dbd 	.word	0x00006dbd
    4128:	00007079 	.word	0x00007079
    412c:	00007195 	.word	0x00007195
    4130:	000069a9 	.word	0x000069a9
    4134:	000063c5 	.word	0x000063c5
    4138:	0000646d 	.word	0x0000646d
    413c:	000067a5 	.word	0x000067a5
    4140:	0000695d 	.word	0x0000695d
    4144:	00006973 	.word	0x00006973
    4148:	00006a3d 	.word	0x00006a3d
    414c:	00006a6b 	.word	0x00006a6b
    4150:	00006a81 	.word	0x00006a81
    4154:	000068a9 	.word	0x000068a9
    4158:	000068d3 	.word	0x000068d3
    415c:	00005875 	.word	0x00005875
    4160:	000058a1 	.word	0x000058a1
    4164:	00007469 	.word	0x00007469
    4168:	000074ed 	.word	0x000074ed
    416c:	00007531 	.word	0x00007531
    4170:	00007565 	.word	0x00007565
    4174:	00007689 	.word	0x00007689
    4178:	00004ffd 	.word	0x00004ffd
    417c:	0000502d 	.word	0x0000502d
    4180:	000076d9 	.word	0x000076d9
    4184:	0000799d 	.word	0x0000799d
    4188:	000079ad 	.word	0x000079ad
    418c:	000079b3 	.word	0x000079b3
    4190:	200000ec 	.word	0x200000ec
    4194:	00009a36 	.word	0x00009a36
    4198:	00009a08 	.word	0x00009a08
    419c:	00009a19 	.word	0x00009a19
    41a0:	00009a5d 	.word	0x00009a5d

000041a4 <internal_event_flush>:
    41a4:	b5f7      	push	{r0, r1, r2, r4, r5, r6, r7, lr}
    41a6:	490e      	ldr	r1, [pc, #56]	; (41e0 <internal_event_flush+0x3c>)
    41a8:	2400      	movs	r4, #0
    41aa:	680b      	ldr	r3, [r1, #0]
    41ac:	1c0f      	adds	r7, r1, #0
    41ae:	1c1e      	adds	r6, r3, #0
    41b0:	4a0c      	ldr	r2, [pc, #48]	; (41e4 <internal_event_flush+0x40>)
    41b2:	6815      	ldr	r5, [r2, #0]
    41b4:	9201      	str	r2, [sp, #4]
    41b6:	2b00      	cmp	r3, #0
    41b8:	d00e      	beq.n	41d8 <internal_event_flush+0x34>
    41ba:	889a      	ldrh	r2, [r3, #4]
    41bc:	6819      	ldr	r1, [r3, #0]
    41be:	4282      	cmp	r2, r0
    41c0:	d107      	bne.n	41d2 <internal_event_flush+0x2e>
    41c2:	2c00      	cmp	r4, #0
    41c4:	d001      	beq.n	41ca <internal_event_flush+0x26>
    41c6:	6021      	str	r1, [r4, #0]
    41c8:	e000      	b.n	41cc <internal_event_flush+0x28>
    41ca:	1c0e      	adds	r6, r1, #0
    41cc:	601d      	str	r5, [r3, #0]
    41ce:	1c1d      	adds	r5, r3, #0
    41d0:	1c23      	adds	r3, r4, #0
    41d2:	1c1c      	adds	r4, r3, #0
    41d4:	1c0b      	adds	r3, r1, #0
    41d6:	e7ee      	b.n	41b6 <internal_event_flush+0x12>
    41d8:	9b01      	ldr	r3, [sp, #4]
    41da:	603e      	str	r6, [r7, #0]
    41dc:	601d      	str	r5, [r3, #0]
    41de:	bdf7      	pop	{r0, r1, r2, r4, r5, r6, r7, pc}
    41e0:	20000858 	.word	0x20000858
    41e4:	20000860 	.word	0x20000860

000041e8 <internal_conn_flush>:
    41e8:	b5f7      	push	{r0, r1, r2, r4, r5, r6, r7, lr}
    41ea:	4a12      	ldr	r2, [pc, #72]	; (4234 <internal_conn_flush+0x4c>)
    41ec:	9000      	str	r0, [sp, #0]
    41ee:	6813      	ldr	r3, [r2, #0]
    41f0:	4811      	ldr	r0, [pc, #68]	; (4238 <internal_conn_flush+0x50>)
    41f2:	1c1f      	adds	r7, r3, #0
    41f4:	2100      	movs	r1, #0
    41f6:	4684      	mov	ip, r0
    41f8:	6804      	ldr	r4, [r0, #0]
    41fa:	9201      	str	r2, [sp, #4]
    41fc:	2b00      	cmp	r3, #0
    41fe:	d014      	beq.n	422a <internal_conn_flush+0x42>
    4200:	88d8      	ldrh	r0, [r3, #6]
    4202:	9a00      	ldr	r2, [sp, #0]
    4204:	681d      	ldr	r5, [r3, #0]
    4206:	0a06      	lsrs	r6, r0, #8
    4208:	4296      	cmp	r6, r2
    420a:	d10b      	bne.n	4224 <internal_conn_flush+0x3c>
    420c:	26fd      	movs	r6, #253	; 0xfd
    420e:	4006      	ands	r6, r0
    4210:	2e0c      	cmp	r6, #12
    4212:	d107      	bne.n	4224 <internal_conn_flush+0x3c>
    4214:	2900      	cmp	r1, #0
    4216:	d001      	beq.n	421c <internal_conn_flush+0x34>
    4218:	600d      	str	r5, [r1, #0]
    421a:	e000      	b.n	421e <internal_conn_flush+0x36>
    421c:	1c2f      	adds	r7, r5, #0
    421e:	601c      	str	r4, [r3, #0]
    4220:	1c1c      	adds	r4, r3, #0
    4222:	1c0b      	adds	r3, r1, #0
    4224:	1c19      	adds	r1, r3, #0
    4226:	1c2b      	adds	r3, r5, #0
    4228:	e7e8      	b.n	41fc <internal_conn_flush+0x14>
    422a:	9b01      	ldr	r3, [sp, #4]
    422c:	601f      	str	r7, [r3, #0]
    422e:	4663      	mov	r3, ip
    4230:	601c      	str	r4, [r3, #0]
    4232:	bdf7      	pop	{r0, r1, r2, r4, r5, r6, r7, pc}
    4234:	20000858 	.word	0x20000858
    4238:	20000860 	.word	0x20000860

0000423c <at_ble_device_name_set>:
    423c:	b538      	push	{r3, r4, r5, lr}
    423e:	2800      	cmp	r0, #0
    4240:	d002      	beq.n	4248 <at_ble_device_name_set+0xc>
    4242:	1e4b      	subs	r3, r1, #1
    4244:	2b1f      	cmp	r3, #31
    4246:	d90b      	bls.n	4260 <at_ble_device_name_set+0x24>
    4248:	4c0d      	ldr	r4, [pc, #52]	; (4280 <at_ble_device_name_set+0x44>)
    424a:	490e      	ldr	r1, [pc, #56]	; (4284 <at_ble_device_name_set+0x48>)
    424c:	22f7      	movs	r2, #247	; 0xf7
    424e:	4b0e      	ldr	r3, [pc, #56]	; (4288 <at_ble_device_name_set+0x4c>)
    4250:	480e      	ldr	r0, [pc, #56]	; (428c <at_ble_device_name_set+0x50>)
    4252:	6825      	ldr	r5, [r4, #0]
    4254:	47a8      	blx	r5
    4256:	6823      	ldr	r3, [r4, #0]
    4258:	480d      	ldr	r0, [pc, #52]	; (4290 <at_ble_device_name_set+0x54>)
    425a:	4798      	blx	r3
    425c:	20cf      	movs	r0, #207	; 0xcf
    425e:	e00d      	b.n	427c <at_ble_device_name_set+0x40>
    4260:	4a0c      	ldr	r2, [pc, #48]	; (4294 <at_ble_device_name_set+0x58>)
    4262:	1c13      	adds	r3, r2, #0
    4264:	33aa      	adds	r3, #170	; 0xaa
    4266:	8019      	strh	r1, [r3, #0]
    4268:	2300      	movs	r3, #0
    426a:	1c1c      	adds	r4, r3, #0
    426c:	5cc5      	ldrb	r5, [r0, r3]
    426e:	34ac      	adds	r4, #172	; 0xac
    4270:	3301      	adds	r3, #1
    4272:	5515      	strb	r5, [r2, r4]
    4274:	b2dc      	uxtb	r4, r3
    4276:	428c      	cmp	r4, r1
    4278:	d3f7      	bcc.n	426a <at_ble_device_name_set+0x2e>
    427a:	2000      	movs	r0, #0
    427c:	bd38      	pop	{r3, r4, r5, pc}
    427e:	46c0      	nop			; (mov r8, r8)
    4280:	200000ec 	.word	0x200000ec
    4284:	00009ad0 	.word	0x00009ad0
    4288:	00009d21 	.word	0x00009d21
    428c:	00009a19 	.word	0x00009a19
    4290:	00009b1f 	.word	0x00009b1f
    4294:	20001afc 	.word	0x20001afc

00004298 <at_ble_addr_get>:
    4298:	b510      	push	{r4, lr}
    429a:	1c04      	adds	r4, r0, #0
    429c:	20cf      	movs	r0, #207	; 0xcf
    429e:	2c00      	cmp	r4, #0
    42a0:	d006      	beq.n	42b0 <at_ble_addr_get+0x18>
    42a2:	4b04      	ldr	r3, [pc, #16]	; (42b4 <at_ble_addr_get+0x1c>)
    42a4:	38ce      	subs	r0, #206	; 0xce
    42a6:	1c21      	adds	r1, r4, #0
    42a8:	4798      	blx	r3
    42aa:	4b03      	ldr	r3, [pc, #12]	; (42b8 <at_ble_addr_get+0x20>)
    42ac:	791b      	ldrb	r3, [r3, #4]
    42ae:	7023      	strb	r3, [r4, #0]
    42b0:	bd10      	pop	{r4, pc}
    42b2:	46c0      	nop			; (mov r8, r8)
    42b4:	00006c81 	.word	0x00006c81
    42b8:	20001afc 	.word	0x20001afc

000042bc <at_ble_set_dev_config>:
    42bc:	b5f0      	push	{r4, r5, r6, r7, lr}
    42be:	7906      	ldrb	r6, [r0, #4]
    42c0:	b089      	sub	sp, #36	; 0x24
    42c2:	1c04      	adds	r4, r0, #0
    42c4:	2e03      	cmp	r6, #3
    42c6:	d90c      	bls.n	42e2 <at_ble_set_dev_config+0x26>
    42c8:	22a7      	movs	r2, #167	; 0xa7
    42ca:	4d33      	ldr	r5, [pc, #204]	; (4398 <at_ble_set_dev_config+0xdc>)
    42cc:	4933      	ldr	r1, [pc, #204]	; (439c <at_ble_set_dev_config+0xe0>)
    42ce:	0052      	lsls	r2, r2, #1
    42d0:	4b33      	ldr	r3, [pc, #204]	; (43a0 <at_ble_set_dev_config+0xe4>)
    42d2:	682e      	ldr	r6, [r5, #0]
    42d4:	4833      	ldr	r0, [pc, #204]	; (43a4 <at_ble_set_dev_config+0xe8>)
    42d6:	47b0      	blx	r6
    42d8:	7921      	ldrb	r1, [r4, #4]
    42da:	682b      	ldr	r3, [r5, #0]
    42dc:	4832      	ldr	r0, [pc, #200]	; (43a8 <at_ble_set_dev_config+0xec>)
    42de:	4798      	blx	r3
    42e0:	e020      	b.n	4324 <at_ble_set_dev_config+0x68>
    42e2:	7803      	ldrb	r3, [r0, #0]
    42e4:	2b0f      	cmp	r3, #15
    42e6:	d90d      	bls.n	4304 <at_ble_set_dev_config+0x48>
    42e8:	2254      	movs	r2, #84	; 0x54
    42ea:	4d2b      	ldr	r5, [pc, #172]	; (4398 <at_ble_set_dev_config+0xdc>)
    42ec:	492b      	ldr	r1, [pc, #172]	; (439c <at_ble_set_dev_config+0xe0>)
    42ee:	32ff      	adds	r2, #255	; 0xff
    42f0:	4b2b      	ldr	r3, [pc, #172]	; (43a0 <at_ble_set_dev_config+0xe4>)
    42f2:	682e      	ldr	r6, [r5, #0]
    42f4:	482b      	ldr	r0, [pc, #172]	; (43a4 <at_ble_set_dev_config+0xe8>)
    42f6:	47b0      	blx	r6
    42f8:	682b      	ldr	r3, [r5, #0]
    42fa:	7821      	ldrb	r1, [r4, #0]
    42fc:	482b      	ldr	r0, [pc, #172]	; (43ac <at_ble_set_dev_config+0xf0>)
    42fe:	4798      	blx	r3
    4300:	25e0      	movs	r5, #224	; 0xe0
    4302:	e046      	b.n	4392 <at_ble_set_dev_config+0xd6>
    4304:	2380      	movs	r3, #128	; 0x80
    4306:	8c87      	ldrh	r7, [r0, #36]	; 0x24
    4308:	009b      	lsls	r3, r3, #2
    430a:	429f      	cmp	r7, r3
    430c:	d90c      	bls.n	4328 <at_ble_set_dev_config+0x6c>
    430e:	225a      	movs	r2, #90	; 0x5a
    4310:	4c21      	ldr	r4, [pc, #132]	; (4398 <at_ble_set_dev_config+0xdc>)
    4312:	4b23      	ldr	r3, [pc, #140]	; (43a0 <at_ble_set_dev_config+0xe4>)
    4314:	4823      	ldr	r0, [pc, #140]	; (43a4 <at_ble_set_dev_config+0xe8>)
    4316:	4921      	ldr	r1, [pc, #132]	; (439c <at_ble_set_dev_config+0xe0>)
    4318:	32ff      	adds	r2, #255	; 0xff
    431a:	6825      	ldr	r5, [r4, #0]
    431c:	47a8      	blx	r5
    431e:	6823      	ldr	r3, [r4, #0]
    4320:	4823      	ldr	r0, [pc, #140]	; (43b0 <at_ble_set_dev_config+0xf4>)
    4322:	4798      	blx	r3
    4324:	25cf      	movs	r5, #207	; 0xcf
    4326:	e034      	b.n	4392 <at_ble_set_dev_config+0xd6>
    4328:	7fc5      	ldrb	r5, [r0, #31]
    432a:	7f83      	ldrb	r3, [r0, #30]
    432c:	01ad      	lsls	r5, r5, #6
    432e:	015b      	lsls	r3, r3, #5
    4330:	431d      	orrs	r5, r3
    4332:	7ec3      	ldrb	r3, [r0, #27]
    4334:	431d      	orrs	r5, r3
    4336:	7f43      	ldrb	r3, [r0, #29]
    4338:	011b      	lsls	r3, r3, #4
    433a:	431d      	orrs	r5, r3
    433c:	7f03      	ldrb	r3, [r0, #28]
    433e:	009b      	lsls	r3, r3, #2
    4340:	431d      	orrs	r5, r3
    4342:	4b1c      	ldr	r3, [pc, #112]	; (43b4 <at_ble_set_dev_config+0xf8>)
    4344:	b2ed      	uxtb	r5, r5
    4346:	711e      	strb	r6, [r3, #4]
    4348:	7900      	ldrb	r0, [r0, #4]
    434a:	2803      	cmp	r0, #3
    434c:	d809      	bhi.n	4362 <at_ble_set_dev_config+0xa6>
    434e:	f003 fc3f 	bl	7bd0 <__gnu_thumb1_case_uqi>
    4352:	0402      	.short	0x0402
    4354:	0606      	.short	0x0606
    4356:	2300      	movs	r3, #0
    4358:	e002      	b.n	4360 <at_ble_set_dev_config+0xa4>
    435a:	2301      	movs	r3, #1
    435c:	e000      	b.n	4360 <at_ble_set_dev_config+0xa4>
    435e:	2302      	movs	r3, #2
    4360:	7123      	strb	r3, [r4, #4]
    4362:	1c23      	adds	r3, r4, #0
    4364:	330b      	adds	r3, #11
    4366:	8861      	ldrh	r1, [r4, #2]
    4368:	9307      	str	r3, [sp, #28]
    436a:	7923      	ldrb	r3, [r4, #4]
    436c:	7820      	ldrb	r0, [r4, #0]
    436e:	9300      	str	r3, [sp, #0]
    4370:	9501      	str	r5, [sp, #4]
    4372:	8c25      	ldrh	r5, [r4, #32]
    4374:	1d62      	adds	r2, r4, #5
    4376:	9502      	str	r5, [sp, #8]
    4378:	8c65      	ldrh	r5, [r4, #34]	; 0x22
    437a:	9b07      	ldr	r3, [sp, #28]
    437c:	9503      	str	r5, [sp, #12]
    437e:	9704      	str	r7, [sp, #16]
    4380:	4d0d      	ldr	r5, [pc, #52]	; (43b8 <at_ble_set_dev_config+0xfc>)
    4382:	47a8      	blx	r5
    4384:	7126      	strb	r6, [r4, #4]
    4386:	1c05      	adds	r5, r0, #0
    4388:	1c21      	adds	r1, r4, #0
    438a:	480a      	ldr	r0, [pc, #40]	; (43b4 <at_ble_set_dev_config+0xf8>)
    438c:	2226      	movs	r2, #38	; 0x26
    438e:	4b0b      	ldr	r3, [pc, #44]	; (43bc <at_ble_set_dev_config+0x100>)
    4390:	4798      	blx	r3
    4392:	1c28      	adds	r0, r5, #0
    4394:	b009      	add	sp, #36	; 0x24
    4396:	bdf0      	pop	{r4, r5, r6, r7, pc}
    4398:	200000ec 	.word	0x200000ec
    439c:	00009ad0 	.word	0x00009ad0
    43a0:	00009a92 	.word	0x00009a92
    43a4:	00009a19 	.word	0x00009a19
    43a8:	00009b32 	.word	0x00009b32
    43ac:	00009b50 	.word	0x00009b50
    43b0:	00009b6d 	.word	0x00009b6d
    43b4:	20001afc 	.word	0x20001afc
    43b8:	00006b5d 	.word	0x00006b5d
    43bc:	00007dbf 	.word	0x00007dbf

000043c0 <at_ble_init>:
    43c0:	b57f      	push	{r0, r1, r2, r3, r4, r5, r6, lr}
    43c2:	1c04      	adds	r4, r0, #0
    43c4:	4946      	ldr	r1, [pc, #280]	; (44e0 <at_ble_init+0x120>)
    43c6:	220b      	movs	r2, #11
    43c8:	4b46      	ldr	r3, [pc, #280]	; (44e4 <at_ble_init+0x124>)
    43ca:	a801      	add	r0, sp, #4
    43cc:	4798      	blx	r3
    43ce:	1c20      	adds	r0, r4, #0
    43d0:	4b45      	ldr	r3, [pc, #276]	; (44e8 <at_ble_init+0x128>)
    43d2:	4798      	blx	r3
    43d4:	1c05      	adds	r5, r0, #0
    43d6:	1e04      	subs	r4, r0, #0
    43d8:	d009      	beq.n	43ee <at_ble_init+0x2e>
    43da:	4c44      	ldr	r4, [pc, #272]	; (44ec <at_ble_init+0x12c>)
    43dc:	4b44      	ldr	r3, [pc, #272]	; (44f0 <at_ble_init+0x130>)
    43de:	4845      	ldr	r0, [pc, #276]	; (44f4 <at_ble_init+0x134>)
    43e0:	4945      	ldr	r1, [pc, #276]	; (44f8 <at_ble_init+0x138>)
    43e2:	222d      	movs	r2, #45	; 0x2d
    43e4:	6826      	ldr	r6, [r4, #0]
    43e6:	47b0      	blx	r6
    43e8:	6823      	ldr	r3, [r4, #0]
    43ea:	4844      	ldr	r0, [pc, #272]	; (44fc <at_ble_init+0x13c>)
    43ec:	e072      	b.n	44d4 <at_ble_init+0x114>
    43ee:	4b44      	ldr	r3, [pc, #272]	; (4500 <at_ble_init+0x140>)
    43f0:	4798      	blx	r3
    43f2:	1c23      	adds	r3, r4, #0
    43f4:	1e05      	subs	r5, r0, #0
    43f6:	d009      	beq.n	440c <at_ble_init+0x4c>
    43f8:	4c3c      	ldr	r4, [pc, #240]	; (44ec <at_ble_init+0x12c>)
    43fa:	4b3d      	ldr	r3, [pc, #244]	; (44f0 <at_ble_init+0x130>)
    43fc:	483d      	ldr	r0, [pc, #244]	; (44f4 <at_ble_init+0x134>)
    43fe:	493e      	ldr	r1, [pc, #248]	; (44f8 <at_ble_init+0x138>)
    4400:	2233      	movs	r2, #51	; 0x33
    4402:	6826      	ldr	r6, [r4, #0]
    4404:	47b0      	blx	r6
    4406:	6823      	ldr	r3, [r4, #0]
    4408:	483e      	ldr	r0, [pc, #248]	; (4504 <at_ble_init+0x144>)
    440a:	e063      	b.n	44d4 <at_ble_init+0x114>
    440c:	2101      	movs	r1, #1
    440e:	4a3e      	ldr	r2, [pc, #248]	; (4508 <at_ble_init+0x148>)
    4410:	4249      	negs	r1, r1
    4412:	189a      	adds	r2, r3, r2
    4414:	3312      	adds	r3, #18
    4416:	8151      	strh	r1, [r2, #10]
    4418:	2b90      	cmp	r3, #144	; 0x90
    441a:	d1f7      	bne.n	440c <at_ble_init+0x4c>
    441c:	4c3b      	ldr	r4, [pc, #236]	; (450c <at_ble_init+0x14c>)
    441e:	3b81      	subs	r3, #129	; 0x81
    4420:	7023      	strb	r3, [r4, #0]
    4422:	4b3b      	ldr	r3, [pc, #236]	; (4510 <at_ble_init+0x150>)
    4424:	4a3b      	ldr	r2, [pc, #236]	; (4514 <at_ble_init+0x154>)
    4426:	8063      	strh	r3, [r4, #2]
    4428:	2300      	movs	r3, #0
    442a:	7123      	strb	r3, [r4, #4]
    442c:	3301      	adds	r3, #1
    442e:	1e58      	subs	r0, r3, #1
    4430:	0119      	lsls	r1, r3, #4
    4432:	4301      	orrs	r1, r0
    4434:	3302      	adds	r3, #2
    4436:	7011      	strb	r1, [r2, #0]
    4438:	3201      	adds	r2, #1
    443a:	2b21      	cmp	r3, #33	; 0x21
    443c:	d1f7      	bne.n	442e <at_ble_init+0x6e>
    443e:	2280      	movs	r2, #128	; 0x80
    4440:	0092      	lsls	r2, r2, #2
    4442:	84a2      	strh	r2, [r4, #36]	; 0x24
    4444:	1c22      	adds	r2, r4, #0
    4446:	2300      	movs	r3, #0
    4448:	3273      	adds	r2, #115	; 0x73
    444a:	7013      	strb	r3, [r2, #0]
    444c:	1c22      	adds	r2, r4, #0
    444e:	3272      	adds	r2, #114	; 0x72
    4450:	7013      	strb	r3, [r2, #0]
    4452:	1c22      	adds	r2, r4, #0
    4454:	3276      	adds	r2, #118	; 0x76
    4456:	7013      	strb	r3, [r2, #0]
    4458:	1c22      	adds	r2, r4, #0
    445a:	32cc      	adds	r2, #204	; 0xcc
    445c:	8013      	strh	r3, [r2, #0]
    445e:	1c21      	adds	r1, r4, #0
    4460:	22a0      	movs	r2, #160	; 0xa0
    4462:	31d0      	adds	r1, #208	; 0xd0
    4464:	0052      	lsls	r2, r2, #1
    4466:	800a      	strh	r2, [r1, #0]
    4468:	1c21      	adds	r1, r4, #0
    446a:	31ce      	adds	r1, #206	; 0xce
    446c:	800a      	strh	r2, [r1, #0]
    446e:	1c22      	adds	r2, r4, #0
    4470:	32d2      	adds	r2, #210	; 0xd2
    4472:	8013      	strh	r3, [r2, #0]
    4474:	21fa      	movs	r1, #250	; 0xfa
    4476:	1c22      	adds	r2, r4, #0
    4478:	0049      	lsls	r1, r1, #1
    447a:	32d4      	adds	r2, #212	; 0xd4
    447c:	8011      	strh	r1, [r2, #0]
    447e:	1c22      	adds	r2, r4, #0
    4480:	32d6      	adds	r2, #214	; 0xd6
    4482:	76e3      	strb	r3, [r4, #27]
    4484:	7723      	strb	r3, [r4, #28]
    4486:	7763      	strb	r3, [r4, #29]
    4488:	77a3      	strb	r3, [r4, #30]
    448a:	77e3      	strb	r3, [r4, #31]
    448c:	8423      	strh	r3, [r4, #32]
    448e:	8463      	strh	r3, [r4, #34]	; 0x22
    4490:	7013      	strb	r3, [r2, #0]
    4492:	1c20      	adds	r0, r4, #0
    4494:	4b20      	ldr	r3, [pc, #128]	; (4518 <at_ble_init+0x158>)
    4496:	4798      	blx	r3
    4498:	1e05      	subs	r5, r0, #0
    449a:	d009      	beq.n	44b0 <at_ble_init+0xf0>
    449c:	4c13      	ldr	r4, [pc, #76]	; (44ec <at_ble_init+0x12c>)
    449e:	4b14      	ldr	r3, [pc, #80]	; (44f0 <at_ble_init+0x130>)
    44a0:	4814      	ldr	r0, [pc, #80]	; (44f4 <at_ble_init+0x134>)
    44a2:	4915      	ldr	r1, [pc, #84]	; (44f8 <at_ble_init+0x138>)
    44a4:	225d      	movs	r2, #93	; 0x5d
    44a6:	6826      	ldr	r6, [r4, #0]
    44a8:	47b0      	blx	r6
    44aa:	6823      	ldr	r3, [r4, #0]
    44ac:	481b      	ldr	r0, [pc, #108]	; (451c <at_ble_init+0x15c>)
    44ae:	e011      	b.n	44d4 <at_ble_init+0x114>
    44b0:	2307      	movs	r3, #7
    44b2:	3474      	adds	r4, #116	; 0x74
    44b4:	7023      	strb	r3, [r4, #0]
    44b6:	a801      	add	r0, sp, #4
    44b8:	210b      	movs	r1, #11
    44ba:	4b19      	ldr	r3, [pc, #100]	; (4520 <at_ble_init+0x160>)
    44bc:	4798      	blx	r3
    44be:	1e05      	subs	r5, r0, #0
    44c0:	d00a      	beq.n	44d8 <at_ble_init+0x118>
    44c2:	4c0a      	ldr	r4, [pc, #40]	; (44ec <at_ble_init+0x12c>)
    44c4:	4b0a      	ldr	r3, [pc, #40]	; (44f0 <at_ble_init+0x130>)
    44c6:	480b      	ldr	r0, [pc, #44]	; (44f4 <at_ble_init+0x134>)
    44c8:	490b      	ldr	r1, [pc, #44]	; (44f8 <at_ble_init+0x138>)
    44ca:	2266      	movs	r2, #102	; 0x66
    44cc:	6826      	ldr	r6, [r4, #0]
    44ce:	47b0      	blx	r6
    44d0:	6823      	ldr	r3, [r4, #0]
    44d2:	4814      	ldr	r0, [pc, #80]	; (4524 <at_ble_init+0x164>)
    44d4:	1c29      	adds	r1, r5, #0
    44d6:	4798      	blx	r3
    44d8:	1c28      	adds	r0, r5, #0
    44da:	b004      	add	sp, #16
    44dc:	bd70      	pop	{r4, r5, r6, pc}
    44de:	46c0      	nop			; (mov r8, r8)
    44e0:	00009a87 	.word	0x00009a87
    44e4:	00007dbf 	.word	0x00007dbf
    44e8:	00005619 	.word	0x00005619
    44ec:	200000ec 	.word	0x200000ec
    44f0:	00009d38 	.word	0x00009d38
    44f4:	00009a19 	.word	0x00009a19
    44f8:	00009ad0 	.word	0x00009ad0
    44fc:	00009b97 	.word	0x00009b97
    4500:	00006acd 	.word	0x00006acd
    4504:	00009bb3 	.word	0x00009bb3
    4508:	20001a6c 	.word	0x20001a6c
    450c:	20001afc 	.word	0x20001afc
    4510:	00003a98 	.word	0x00003a98
    4514:	20001b07 	.word	0x20001b07
    4518:	000042bd 	.word	0x000042bd
    451c:	00009bcc 	.word	0x00009bcc
    4520:	0000423d 	.word	0x0000423d
    4524:	00009bef 	.word	0x00009bef

00004528 <at_ble_addr_set>:
    4528:	b538      	push	{r3, r4, r5, lr}
    452a:	1c45      	adds	r5, r0, #1
    452c:	1c03      	adds	r3, r0, #0
    452e:	20cf      	movs	r0, #207	; 0xcf
    4530:	2d00      	cmp	r5, #0
    4532:	d018      	beq.n	4566 <at_ble_addr_set+0x3e>
    4534:	781a      	ldrb	r2, [r3, #0]
    4536:	2a03      	cmp	r2, #3
    4538:	d815      	bhi.n	4566 <at_ble_addr_set+0x3e>
    453a:	2a01      	cmp	r2, #1
    453c:	d102      	bne.n	4544 <at_ble_addr_set+0x1c>
    453e:	785a      	ldrb	r2, [r3, #1]
    4540:	2a00      	cmp	r2, #0
    4542:	d010      	beq.n	4566 <at_ble_addr_set+0x3e>
    4544:	1c1c      	adds	r4, r3, #0
    4546:	1c29      	adds	r1, r5, #0
    4548:	2206      	movs	r2, #6
    454a:	4b07      	ldr	r3, [pc, #28]	; (4568 <at_ble_addr_set+0x40>)
    454c:	4807      	ldr	r0, [pc, #28]	; (456c <at_ble_addr_set+0x44>)
    454e:	4798      	blx	r3
    4550:	7823      	ldrb	r3, [r4, #0]
    4552:	4807      	ldr	r0, [pc, #28]	; (4570 <at_ble_addr_set+0x48>)
    4554:	7103      	strb	r3, [r0, #4]
    4556:	4b07      	ldr	r3, [pc, #28]	; (4574 <at_ble_addr_set+0x4c>)
    4558:	4798      	blx	r3
    455a:	7823      	ldrb	r3, [r4, #0]
    455c:	2b00      	cmp	r3, #0
    455e:	d102      	bne.n	4566 <at_ble_addr_set+0x3e>
    4560:	1c28      	adds	r0, r5, #0
    4562:	4b05      	ldr	r3, [pc, #20]	; (4578 <at_ble_addr_set+0x50>)
    4564:	4798      	blx	r3
    4566:	bd38      	pop	{r3, r4, r5, pc}
    4568:	00007dbf 	.word	0x00007dbf
    456c:	20001b01 	.word	0x20001b01
    4570:	20001afc 	.word	0x20001afc
    4574:	000042bd 	.word	0x000042bd
    4578:	00005ec9 	.word	0x00005ec9

0000457c <at_ble_adv_data_set>:
    457c:	b5f8      	push	{r3, r4, r5, r6, r7, lr}
    457e:	4684      	mov	ip, r0
    4580:	1c0f      	adds	r7, r1, #0
    4582:	1c16      	adds	r6, r2, #0
    4584:	1c1c      	adds	r4, r3, #0
    4586:	2800      	cmp	r0, #0
    4588:	d102      	bne.n	4590 <at_ble_adv_data_set+0x14>
    458a:	20e2      	movs	r0, #226	; 0xe2
    458c:	2a00      	cmp	r2, #0
    458e:	d02b      	beq.n	45e8 <at_ble_adv_data_set+0x6c>
    4590:	20cf      	movs	r0, #207	; 0xcf
    4592:	2f1f      	cmp	r7, #31
    4594:	d828      	bhi.n	45e8 <at_ble_adv_data_set+0x6c>
    4596:	2c1f      	cmp	r4, #31
    4598:	d826      	bhi.n	45e8 <at_ble_adv_data_set+0x6c>
    459a:	4663      	mov	r3, ip
    459c:	2b00      	cmp	r3, #0
    459e:	d00e      	beq.n	45be <at_ble_adv_data_set+0x42>
    45a0:	4812      	ldr	r0, [pc, #72]	; (45ec <at_ble_adv_data_set+0x70>)
    45a2:	4d13      	ldr	r5, [pc, #76]	; (45f0 <at_ble_adv_data_set+0x74>)
    45a4:	2f00      	cmp	r7, #0
    45a6:	d104      	bne.n	45b2 <at_ble_adv_data_set+0x36>
    45a8:	1c39      	adds	r1, r7, #0
    45aa:	221f      	movs	r2, #31
    45ac:	4b11      	ldr	r3, [pc, #68]	; (45f4 <at_ble_adv_data_set+0x78>)
    45ae:	4798      	blx	r3
    45b0:	e003      	b.n	45ba <at_ble_adv_data_set+0x3e>
    45b2:	4661      	mov	r1, ip
    45b4:	1c3a      	adds	r2, r7, #0
    45b6:	4b10      	ldr	r3, [pc, #64]	; (45f8 <at_ble_adv_data_set+0x7c>)
    45b8:	4798      	blx	r3
    45ba:	3572      	adds	r5, #114	; 0x72
    45bc:	702f      	strb	r7, [r5, #0]
    45be:	1e30      	subs	r0, r6, #0
    45c0:	d012      	beq.n	45e8 <at_ble_adv_data_set+0x6c>
    45c2:	4d0b      	ldr	r5, [pc, #44]	; (45f0 <at_ble_adv_data_set+0x74>)
    45c4:	480d      	ldr	r0, [pc, #52]	; (45fc <at_ble_adv_data_set+0x80>)
    45c6:	2c00      	cmp	r4, #0
    45c8:	d107      	bne.n	45da <at_ble_adv_data_set+0x5e>
    45ca:	1c21      	adds	r1, r4, #0
    45cc:	221f      	movs	r2, #31
    45ce:	4b09      	ldr	r3, [pc, #36]	; (45f4 <at_ble_adv_data_set+0x78>)
    45d0:	3573      	adds	r5, #115	; 0x73
    45d2:	4798      	blx	r3
    45d4:	702c      	strb	r4, [r5, #0]
    45d6:	1c20      	adds	r0, r4, #0
    45d8:	e006      	b.n	45e8 <at_ble_adv_data_set+0x6c>
    45da:	1c31      	adds	r1, r6, #0
    45dc:	1c22      	adds	r2, r4, #0
    45de:	4b06      	ldr	r3, [pc, #24]	; (45f8 <at_ble_adv_data_set+0x7c>)
    45e0:	4798      	blx	r3
    45e2:	2000      	movs	r0, #0
    45e4:	3573      	adds	r5, #115	; 0x73
    45e6:	702c      	strb	r4, [r5, #0]
    45e8:	bdf8      	pop	{r3, r4, r5, r6, r7, pc}
    45ea:	46c0      	nop			; (mov r8, r8)
    45ec:	20001b30 	.word	0x20001b30
    45f0:	20001afc 	.word	0x20001afc
    45f4:	00007dd1 	.word	0x00007dd1
    45f8:	00007dbf 	.word	0x00007dbf
    45fc:	20001b4f 	.word	0x20001b4f

00004600 <at_ble_adv_start>:
    4600:	b5f0      	push	{r4, r5, r6, r7, lr}
    4602:	b091      	sub	sp, #68	; 0x44
    4604:	1c1f      	adds	r7, r3, #0
    4606:	ab16      	add	r3, sp, #88	; 0x58
    4608:	881d      	ldrh	r5, [r3, #0]
    460a:	ab17      	add	r3, sp, #92	; 0x5c
    460c:	881b      	ldrh	r3, [r3, #0]
    460e:	910d      	str	r1, [sp, #52]	; 0x34
    4610:	930e      	str	r3, [sp, #56]	; 0x38
    4612:	ab18      	add	r3, sp, #96	; 0x60
    4614:	781b      	ldrb	r3, [r3, #0]
    4616:	1c04      	adds	r4, r0, #0
    4618:	930f      	str	r3, [sp, #60]	; 0x3c
    461a:	4b42      	ldr	r3, [pc, #264]	; (4724 <at_ble_adv_start+0x124>)
    461c:	1c16      	adds	r6, r2, #0
    461e:	3373      	adds	r3, #115	; 0x73
    4620:	781b      	ldrb	r3, [r3, #0]
    4622:	20cf      	movs	r0, #207	; 0xcf
    4624:	930c      	str	r3, [sp, #48]	; 0x30
    4626:	2c01      	cmp	r4, #1
    4628:	d103      	bne.n	4632 <at_ble_adv_start+0x32>
    462a:	9b0e      	ldr	r3, [sp, #56]	; 0x38
    462c:	2b00      	cmp	r3, #0
    462e:	d176      	bne.n	471e <at_ble_adv_start+0x11e>
    4630:	e024      	b.n	467c <at_ble_adv_start+0x7c>
    4632:	2c04      	cmp	r4, #4
    4634:	d873      	bhi.n	471e <at_ble_adv_start+0x11e>
    4636:	2380      	movs	r3, #128	; 0x80
    4638:	01db      	lsls	r3, r3, #7
    463a:	429d      	cmp	r5, r3
    463c:	d86f      	bhi.n	471e <at_ble_adv_start+0x11e>
    463e:	2c00      	cmp	r4, #0
    4640:	d102      	bne.n	4648 <at_ble_adv_start+0x48>
    4642:	2d1f      	cmp	r5, #31
    4644:	d96b      	bls.n	471e <at_ble_adv_start+0x11e>
    4646:	e003      	b.n	4650 <at_ble_adv_start+0x50>
    4648:	2d9f      	cmp	r5, #159	; 0x9f
    464a:	d801      	bhi.n	4650 <at_ble_adv_start+0x50>
    464c:	2c01      	cmp	r4, #1
    464e:	d166      	bne.n	471e <at_ble_adv_start+0x11e>
    4650:	2f00      	cmp	r7, #0
    4652:	d009      	beq.n	4668 <at_ble_adv_start+0x68>
    4654:	9b0d      	ldr	r3, [sp, #52]	; 0x34
    4656:	20cf      	movs	r0, #207	; 0xcf
    4658:	3b01      	subs	r3, #1
    465a:	2b01      	cmp	r3, #1
    465c:	d95f      	bls.n	471e <at_ble_adv_start+0x11e>
    465e:	2c01      	cmp	r4, #1
    4660:	d102      	bne.n	4668 <at_ble_adv_start+0x68>
    4662:	2d00      	cmp	r5, #0
    4664:	d100      	bne.n	4668 <at_ble_adv_start+0x68>
    4666:	3520      	adds	r5, #32
    4668:	4b2f      	ldr	r3, [pc, #188]	; (4728 <at_ble_adv_start+0x128>)
    466a:	4798      	blx	r3
    466c:	1c01      	adds	r1, r0, #0
    466e:	2e00      	cmp	r6, #0
    4670:	d043      	beq.n	46fa <at_ble_adv_start+0xfa>
    4672:	7833      	ldrb	r3, [r6, #0]
    4674:	1e60      	subs	r0, r4, #1
    4676:	2b00      	cmp	r3, #0
    4678:	d109      	bne.n	468e <at_ble_adv_start+0x8e>
    467a:	e03b      	b.n	46f4 <at_ble_adv_start+0xf4>
    467c:	2380      	movs	r3, #128	; 0x80
    467e:	01db      	lsls	r3, r3, #7
    4680:	429d      	cmp	r5, r3
    4682:	d84c      	bhi.n	471e <at_ble_adv_start+0x11e>
    4684:	2e00      	cmp	r6, #0
    4686:	d04a      	beq.n	471e <at_ble_adv_start+0x11e>
    4688:	2f00      	cmp	r7, #0
    468a:	d1e3      	bne.n	4654 <at_ble_adv_start+0x54>
    468c:	e02b      	b.n	46e6 <at_ble_adv_start+0xe6>
    468e:	2301      	movs	r3, #1
    4690:	2803      	cmp	r0, #3
    4692:	d93a      	bls.n	470a <at_ble_adv_start+0x10a>
    4694:	200d      	movs	r0, #13
    4696:	1c72      	adds	r2, r6, #1
    4698:	e002      	b.n	46a0 <at_ble_adv_start+0xa0>
    469a:	200e      	movs	r0, #14
    469c:	1e32      	subs	r2, r6, #0
    469e:	d1fa      	bne.n	4696 <at_ble_adv_start+0x96>
    46a0:	4c20      	ldr	r4, [pc, #128]	; (4724 <at_ble_adv_start+0x124>)
    46a2:	3474      	adds	r4, #116	; 0x74
    46a4:	7826      	ldrb	r6, [r4, #0]
    46a6:	2407      	movs	r4, #7
    46a8:	2e00      	cmp	r6, #0
    46aa:	d000      	beq.n	46ae <at_ble_adv_start+0xae>
    46ac:	1c34      	adds	r4, r6, #0
    46ae:	9200      	str	r2, [sp, #0]
    46b0:	9a0d      	ldr	r2, [sp, #52]	; 0x34
    46b2:	9403      	str	r4, [sp, #12]
    46b4:	9204      	str	r2, [sp, #16]
    46b6:	4a1b      	ldr	r2, [pc, #108]	; (4724 <at_ble_adv_start+0x124>)
    46b8:	9501      	str	r5, [sp, #4]
    46ba:	9502      	str	r5, [sp, #8]
    46bc:	9705      	str	r7, [sp, #20]
    46be:	3272      	adds	r2, #114	; 0x72
    46c0:	7812      	ldrb	r2, [r2, #0]
    46c2:	9c0e      	ldr	r4, [sp, #56]	; 0x38
    46c4:	9206      	str	r2, [sp, #24]
    46c6:	4a19      	ldr	r2, [pc, #100]	; (472c <at_ble_adv_start+0x12c>)
    46c8:	9207      	str	r2, [sp, #28]
    46ca:	9a0c      	ldr	r2, [sp, #48]	; 0x30
    46cc:	9208      	str	r2, [sp, #32]
    46ce:	4a18      	ldr	r2, [pc, #96]	; (4730 <at_ble_adv_start+0x130>)
    46d0:	9209      	str	r2, [sp, #36]	; 0x24
    46d2:	2264      	movs	r2, #100	; 0x64
    46d4:	4362      	muls	r2, r4
    46d6:	b292      	uxth	r2, r2
    46d8:	920a      	str	r2, [sp, #40]	; 0x28
    46da:	9a0f      	ldr	r2, [sp, #60]	; 0x3c
    46dc:	4c15      	ldr	r4, [pc, #84]	; (4734 <at_ble_adv_start+0x134>)
    46de:	920b      	str	r2, [sp, #44]	; 0x2c
    46e0:	4a15      	ldr	r2, [pc, #84]	; (4738 <at_ble_adv_start+0x138>)
    46e2:	47a0      	blx	r4
    46e4:	e01b      	b.n	471e <at_ble_adv_start+0x11e>
    46e6:	2d00      	cmp	r5, #0
    46e8:	d1be      	bne.n	4668 <at_ble_adv_start+0x68>
    46ea:	4b0f      	ldr	r3, [pc, #60]	; (4728 <at_ble_adv_start+0x128>)
    46ec:	4798      	blx	r3
    46ee:	2520      	movs	r5, #32
    46f0:	1c01      	adds	r1, r0, #0
    46f2:	e7be      	b.n	4672 <at_ble_adv_start+0x72>
    46f4:	2803      	cmp	r0, #3
    46f6:	d8cd      	bhi.n	4694 <at_ble_adv_start+0x94>
    46f8:	e006      	b.n	4708 <at_ble_adv_start+0x108>
    46fa:	1e60      	subs	r0, r4, #1
    46fc:	2803      	cmp	r0, #3
    46fe:	d903      	bls.n	4708 <at_ble_adv_start+0x108>
    4700:	1c33      	adds	r3, r6, #0
    4702:	200d      	movs	r0, #13
    4704:	1c32      	adds	r2, r6, #0
    4706:	e7cb      	b.n	46a0 <at_ble_adv_start+0xa0>
    4708:	2300      	movs	r3, #0
    470a:	f003 fa57 	bl	7bbc <__gnu_thumb1_case_sqi>
    470e:	06c6      	.short	0x06c6
    4710:	0204      	.short	0x0204
    4712:	200f      	movs	r0, #15
    4714:	e7c2      	b.n	469c <at_ble_adv_start+0x9c>
    4716:	2200      	movs	r2, #0
    4718:	920c      	str	r2, [sp, #48]	; 0x30
    471a:	200c      	movs	r0, #12
    471c:	e7be      	b.n	469c <at_ble_adv_start+0x9c>
    471e:	b011      	add	sp, #68	; 0x44
    4720:	bdf0      	pop	{r4, r5, r6, r7, pc}
    4722:	46c0      	nop			; (mov r8, r8)
    4724:	20001afc 	.word	0x20001afc
    4728:	00007061 	.word	0x00007061
    472c:	20001b30 	.word	0x20001b30
    4730:	20001b4f 	.word	0x20001b4f
    4734:	00006f4d 	.word	0x00006f4d
    4738:	00003a98 	.word	0x00003a98

0000473c <at_ble_scan_stop>:
    473c:	b510      	push	{r4, lr}
    473e:	4b05      	ldr	r3, [pc, #20]	; (4754 <at_ble_scan_stop+0x18>)
    4740:	4798      	blx	r3
    4742:	1e04      	subs	r4, r0, #0
    4744:	d103      	bne.n	474e <at_ble_scan_stop+0x12>
    4746:	20d1      	movs	r0, #209	; 0xd1
    4748:	4b03      	ldr	r3, [pc, #12]	; (4758 <at_ble_scan_stop+0x1c>)
    474a:	0100      	lsls	r0, r0, #4
    474c:	4798      	blx	r3
    474e:	1c20      	adds	r0, r4, #0
    4750:	bd10      	pop	{r4, pc}
    4752:	46c0      	nop			; (mov r8, r8)
    4754:	00006d59 	.word	0x00006d59
    4758:	000041a5 	.word	0x000041a5

0000475c <at_ble_disconnect>:
    475c:	b538      	push	{r3, r4, r5, lr}
    475e:	1c04      	adds	r4, r0, #0
    4760:	4b04      	ldr	r3, [pc, #16]	; (4774 <at_ble_disconnect+0x18>)
    4762:	1c08      	adds	r0, r1, #0
    4764:	1c21      	adds	r1, r4, #0
    4766:	4798      	blx	r3
    4768:	1c05      	adds	r5, r0, #0
    476a:	4b03      	ldr	r3, [pc, #12]	; (4778 <at_ble_disconnect+0x1c>)
    476c:	1c20      	adds	r0, r4, #0
    476e:	4798      	blx	r3
    4770:	1c28      	adds	r0, r5, #0
    4772:	bd38      	pop	{r3, r4, r5, pc}
    4774:	0000637d 	.word	0x0000637d
    4778:	000041e9 	.word	0x000041e9

0000477c <at_ble_conn_update_reply>:
    477c:	b570      	push	{r4, r5, r6, lr}
    477e:	4c09      	ldr	r4, [pc, #36]	; (47a4 <at_ble_conn_update_reply+0x28>)
    4780:	47a0      	blx	r4
    4782:	1e04      	subs	r4, r0, #0
    4784:	d00b      	beq.n	479e <at_ble_conn_update_reply+0x22>
    4786:	22d0      	movs	r2, #208	; 0xd0
    4788:	4d07      	ldr	r5, [pc, #28]	; (47a8 <at_ble_conn_update_reply+0x2c>)
    478a:	4908      	ldr	r1, [pc, #32]	; (47ac <at_ble_conn_update_reply+0x30>)
    478c:	4b08      	ldr	r3, [pc, #32]	; (47b0 <at_ble_conn_update_reply+0x34>)
    478e:	4809      	ldr	r0, [pc, #36]	; (47b4 <at_ble_conn_update_reply+0x38>)
    4790:	0092      	lsls	r2, r2, #2
    4792:	682e      	ldr	r6, [r5, #0]
    4794:	47b0      	blx	r6
    4796:	682b      	ldr	r3, [r5, #0]
    4798:	4807      	ldr	r0, [pc, #28]	; (47b8 <at_ble_conn_update_reply+0x3c>)
    479a:	1c21      	adds	r1, r4, #0
    479c:	4798      	blx	r3
    479e:	1c20      	adds	r0, r4, #0
    47a0:	bd70      	pop	{r4, r5, r6, pc}
    47a2:	46c0      	nop			; (mov r8, r8)
    47a4:	00006859 	.word	0x00006859
    47a8:	200000ec 	.word	0x200000ec
    47ac:	00009ad0 	.word	0x00009ad0
    47b0:	00009aa8 	.word	0x00009aa8
    47b4:	00009a19 	.word	0x00009a19
    47b8:	00009b0e 	.word	0x00009b0e

000047bc <at_ble_random_address_resolve>:
    47bc:	b510      	push	{r4, lr}
    47be:	23cf      	movs	r3, #207	; 0xcf
    47c0:	2800      	cmp	r0, #0
    47c2:	d00a      	beq.n	47da <at_ble_random_address_resolve+0x1e>
    47c4:	2900      	cmp	r1, #0
    47c6:	d008      	beq.n	47da <at_ble_random_address_resolve+0x1e>
    47c8:	2a00      	cmp	r2, #0
    47ca:	d006      	beq.n	47da <at_ble_random_address_resolve+0x1e>
    47cc:	780c      	ldrb	r4, [r1, #0]
    47ce:	2c02      	cmp	r4, #2
    47d0:	d103      	bne.n	47da <at_ble_random_address_resolve+0x1e>
    47d2:	4b03      	ldr	r3, [pc, #12]	; (47e0 <at_ble_random_address_resolve+0x24>)
    47d4:	3101      	adds	r1, #1
    47d6:	4798      	blx	r3
    47d8:	2300      	movs	r3, #0
    47da:	1c18      	adds	r0, r3, #0
    47dc:	bd10      	pop	{r4, pc}
    47de:	46c0      	nop			; (mov r8, r8)
    47e0:	00007101 	.word	0x00007101

000047e4 <at_ble_uuid_type2len>:
    47e4:	23cf      	movs	r3, #207	; 0xcf
    47e6:	2802      	cmp	r0, #2
    47e8:	d801      	bhi.n	47ee <at_ble_uuid_type2len+0xa>
    47ea:	4b02      	ldr	r3, [pc, #8]	; (47f4 <at_ble_uuid_type2len+0x10>)
    47ec:	5c1b      	ldrb	r3, [r3, r0]
    47ee:	1c18      	adds	r0, r3, #0
    47f0:	4770      	bx	lr
    47f2:	46c0      	nop			; (mov r8, r8)
    47f4:	00009d44 	.word	0x00009d44

000047f8 <at_ble_uuid_len2type>:
    47f8:	1e83      	subs	r3, r0, #2
    47fa:	b2db      	uxtb	r3, r3
    47fc:	2003      	movs	r0, #3
    47fe:	2b0e      	cmp	r3, #14
    4800:	d801      	bhi.n	4806 <at_ble_uuid_len2type+0xe>
    4802:	4a01      	ldr	r2, [pc, #4]	; (4808 <at_ble_uuid_len2type+0x10>)
    4804:	5cd0      	ldrb	r0, [r2, r3]
    4806:	4770      	bx	lr
    4808:	00009ac1 	.word	0x00009ac1

0000480c <at_ble_characteristic_write>:
    480c:	b57f      	push	{r0, r1, r2, r3, r4, r5, r6, lr}
    480e:	1c14      	adds	r4, r2, #0
    4810:	aa08      	add	r2, sp, #32
    4812:	1c0d      	adds	r5, r1, #0
    4814:	ca02      	ldmia	r2!, {r1}
    4816:	1c06      	adds	r6, r0, #0
    4818:	a80a      	add	r0, sp, #40	; 0x28
    481a:	7812      	ldrb	r2, [r2, #0]
    481c:	7800      	ldrb	r0, [r0, #0]
    481e:	2900      	cmp	r1, #0
    4820:	d109      	bne.n	4836 <at_ble_characteristic_write+0x2a>
    4822:	4c1b      	ldr	r4, [pc, #108]	; (4890 <at_ble_characteristic_write+0x84>)
    4824:	4b1b      	ldr	r3, [pc, #108]	; (4894 <at_ble_characteristic_write+0x88>)
    4826:	481c      	ldr	r0, [pc, #112]	; (4898 <at_ble_characteristic_write+0x8c>)
    4828:	491c      	ldr	r1, [pc, #112]	; (489c <at_ble_characteristic_write+0x90>)
    482a:	22df      	movs	r2, #223	; 0xdf
    482c:	6825      	ldr	r5, [r4, #0]
    482e:	47a8      	blx	r5
    4830:	6823      	ldr	r3, [r4, #0]
    4832:	481b      	ldr	r0, [pc, #108]	; (48a0 <at_ble_characteristic_write+0x94>)
    4834:	e00a      	b.n	484c <at_ble_characteristic_write+0x40>
    4836:	2b00      	cmp	r3, #0
    4838:	d10b      	bne.n	4852 <at_ble_characteristic_write+0x46>
    483a:	4c15      	ldr	r4, [pc, #84]	; (4890 <at_ble_characteristic_write+0x84>)
    483c:	4b15      	ldr	r3, [pc, #84]	; (4894 <at_ble_characteristic_write+0x88>)
    483e:	4816      	ldr	r0, [pc, #88]	; (4898 <at_ble_characteristic_write+0x8c>)
    4840:	4916      	ldr	r1, [pc, #88]	; (489c <at_ble_characteristic_write+0x90>)
    4842:	22e5      	movs	r2, #229	; 0xe5
    4844:	6825      	ldr	r5, [r4, #0]
    4846:	47a8      	blx	r5
    4848:	6823      	ldr	r3, [r4, #0]
    484a:	4816      	ldr	r0, [pc, #88]	; (48a4 <at_ble_characteristic_write+0x98>)
    484c:	4798      	blx	r3
    484e:	20cf      	movs	r0, #207	; 0xcf
    4850:	e01b      	b.n	488a <at_ble_characteristic_write+0x7e>
    4852:	2800      	cmp	r0, #0
    4854:	d00c      	beq.n	4870 <at_ble_characteristic_write+0x64>
    4856:	200c      	movs	r0, #12
    4858:	2a00      	cmp	r2, #0
    485a:	d00d      	beq.n	4878 <at_ble_characteristic_write+0x6c>
    485c:	4c0c      	ldr	r4, [pc, #48]	; (4890 <at_ble_characteristic_write+0x84>)
    485e:	4b0d      	ldr	r3, [pc, #52]	; (4894 <at_ble_characteristic_write+0x88>)
    4860:	480d      	ldr	r0, [pc, #52]	; (4898 <at_ble_characteristic_write+0x8c>)
    4862:	490e      	ldr	r1, [pc, #56]	; (489c <at_ble_characteristic_write+0x90>)
    4864:	22ea      	movs	r2, #234	; 0xea
    4866:	6825      	ldr	r5, [r4, #0]
    4868:	47a8      	blx	r5
    486a:	6823      	ldr	r3, [r4, #0]
    486c:	480e      	ldr	r0, [pc, #56]	; (48a8 <at_ble_characteristic_write+0x9c>)
    486e:	e7ed      	b.n	484c <at_ble_characteristic_write+0x40>
    4870:	1e50      	subs	r0, r2, #1
    4872:	4182      	sbcs	r2, r0
    4874:	320d      	adds	r2, #13
    4876:	1c10      	adds	r0, r2, #0
    4878:	9300      	str	r3, [sp, #0]
    487a:	9101      	str	r1, [sp, #4]
    487c:	1c23      	adds	r3, r4, #0
    487e:	9602      	str	r6, [sp, #8]
    4880:	2101      	movs	r1, #1
    4882:	1c2a      	adds	r2, r5, #0
    4884:	4c09      	ldr	r4, [pc, #36]	; (48ac <at_ble_characteristic_write+0xa0>)
    4886:	47a0      	blx	r4
    4888:	2000      	movs	r0, #0
    488a:	b004      	add	sp, #16
    488c:	bd70      	pop	{r4, r5, r6, pc}
    488e:	46c0      	nop			; (mov r8, r8)
    4890:	200000ec 	.word	0x200000ec
    4894:	00009e10 	.word	0x00009e10
    4898:	00009a19 	.word	0x00009a19
    489c:	00009d47 	.word	0x00009d47
    48a0:	00009c38 	.word	0x00009c38
    48a4:	00009d74 	.word	0x00009d74
    48a8:	00009d89 	.word	0x00009d89
    48ac:	0000738d 	.word	0x0000738d

000048b0 <db_searchATT>:
    48b0:	b570      	push	{r4, r5, r6, lr}
    48b2:	1c05      	adds	r5, r0, #0
    48b4:	2400      	movs	r4, #0
    48b6:	4b0c      	ldr	r3, [pc, #48]	; (48e8 <db_searchATT+0x38>)
    48b8:	6819      	ldr	r1, [r3, #0]
    48ba:	4b0c      	ldr	r3, [pc, #48]	; (48ec <db_searchATT+0x3c>)
    48bc:	681e      	ldr	r6, [r3, #0]
    48be:	428c      	cmp	r4, r1
    48c0:	dc10      	bgt.n	48e4 <db_searchATT+0x34>
    48c2:	200c      	movs	r0, #12
    48c4:	1863      	adds	r3, r4, r1
    48c6:	0fda      	lsrs	r2, r3, #31
    48c8:	18d3      	adds	r3, r2, r3
    48ca:	1c02      	adds	r2, r0, #0
    48cc:	105b      	asrs	r3, r3, #1
    48ce:	435a      	muls	r2, r3
    48d0:	18b0      	adds	r0, r6, r2
    48d2:	8802      	ldrh	r2, [r0, #0]
    48d4:	42aa      	cmp	r2, r5
    48d6:	d201      	bcs.n	48dc <db_searchATT+0x2c>
    48d8:	1e59      	subs	r1, r3, #1
    48da:	e7f0      	b.n	48be <db_searchATT+0xe>
    48dc:	42aa      	cmp	r2, r5
    48de:	d902      	bls.n	48e6 <db_searchATT+0x36>
    48e0:	1c5c      	adds	r4, r3, #1
    48e2:	e7ec      	b.n	48be <db_searchATT+0xe>
    48e4:	2000      	movs	r0, #0
    48e6:	bd70      	pop	{r4, r5, r6, pc}
    48e8:	20000878 	.word	0x20000878
    48ec:	20000870 	.word	0x20000870

000048f0 <att_permissions>:
    48f0:	b510      	push	{r4, lr}
    48f2:	2403      	movs	r4, #3
    48f4:	0683      	lsls	r3, r0, #26
    48f6:	4004      	ands	r4, r0
    48f8:	0640      	lsls	r0, r0, #25
    48fa:	0f9b      	lsrs	r3, r3, #30
    48fc:	0fc0      	lsrs	r0, r0, #31
    48fe:	2c00      	cmp	r4, #0
    4900:	d001      	beq.n	4906 <att_permissions+0x16>
    4902:	b2a1      	uxth	r1, r4
    4904:	e002      	b.n	490c <att_permissions+0x1c>
    4906:	1e4c      	subs	r4, r1, #1
    4908:	41a1      	sbcs	r1, r4
    490a:	b289      	uxth	r1, r1
    490c:	2b00      	cmp	r3, #0
    490e:	d001      	beq.n	4914 <att_permissions+0x24>
    4910:	009b      	lsls	r3, r3, #2
    4912:	e002      	b.n	491a <att_permissions+0x2a>
    4914:	2a00      	cmp	r2, #0
    4916:	d001      	beq.n	491c <att_permissions+0x2c>
    4918:	2304      	movs	r3, #4
    491a:	4319      	orrs	r1, r3
    491c:	2800      	cmp	r0, #0
    491e:	d101      	bne.n	4924 <att_permissions+0x34>
    4920:	2080      	movs	r0, #128	; 0x80
    4922:	e000      	b.n	4926 <att_permissions+0x36>
    4924:	2090      	movs	r0, #144	; 0x90
    4926:	0180      	lsls	r0, r0, #6
    4928:	4308      	orrs	r0, r1
    492a:	bd10      	pop	{r4, pc}

0000492c <char_permissions>:
    492c:	b570      	push	{r4, r5, r6, lr}
    492e:	2503      	movs	r5, #3
    4930:	068c      	lsls	r4, r1, #26
    4932:	400d      	ands	r5, r1
    4934:	0649      	lsls	r1, r1, #25
    4936:	0fa4      	lsrs	r4, r4, #30
    4938:	0fc9      	lsrs	r1, r1, #31
    493a:	2300      	movs	r3, #0
    493c:	0786      	lsls	r6, r0, #30
    493e:	d500      	bpl.n	4942 <char_permissions+0x16>
    4940:	b2ab      	uxth	r3, r5
    4942:	0706      	lsls	r6, r0, #28
    4944:	d504      	bpl.n	4950 <char_permissions+0x24>
    4946:	00a6      	lsls	r6, r4, #2
    4948:	4333      	orrs	r3, r6
    494a:	2680      	movs	r6, #128	; 0x80
    494c:	01b6      	lsls	r6, r6, #6
    494e:	4333      	orrs	r3, r6
    4950:	0686      	lsls	r6, r0, #26
    4952:	d501      	bpl.n	4958 <char_permissions+0x2c>
    4954:	012e      	lsls	r6, r5, #4
    4956:	4333      	orrs	r3, r6
    4958:	06c6      	lsls	r6, r0, #27
    495a:	d501      	bpl.n	4960 <char_permissions+0x34>
    495c:	01ad      	lsls	r5, r5, #6
    495e:	432b      	orrs	r3, r5
    4960:	2580      	movs	r5, #128	; 0x80
    4962:	006d      	lsls	r5, r5, #1
    4964:	4228      	tst	r0, r5
    4966:	d000      	beq.n	496a <char_permissions+0x3e>
    4968:	432b      	orrs	r3, r5
    496a:	07c5      	lsls	r5, r0, #31
    496c:	d502      	bpl.n	4974 <char_permissions+0x48>
    496e:	2580      	movs	r5, #128	; 0x80
    4970:	00ad      	lsls	r5, r5, #2
    4972:	432b      	orrs	r3, r5
    4974:	2900      	cmp	r1, #0
    4976:	d002      	beq.n	497e <char_permissions+0x52>
    4978:	2180      	movs	r1, #128	; 0x80
    497a:	00c9      	lsls	r1, r1, #3
    497c:	430b      	orrs	r3, r1
    497e:	0741      	lsls	r1, r0, #29
    4980:	d504      	bpl.n	498c <char_permissions+0x60>
    4982:	00a1      	lsls	r1, r4, #2
    4984:	430b      	orrs	r3, r1
    4986:	2180      	movs	r1, #128	; 0x80
    4988:	0109      	lsls	r1, r1, #4
    498a:	430b      	orrs	r3, r1
    498c:	0641      	lsls	r1, r0, #25
    498e:	d502      	bpl.n	4996 <char_permissions+0x6a>
    4990:	4907      	ldr	r1, [pc, #28]	; (49b0 <char_permissions+0x84>)
    4992:	430b      	orrs	r3, r1
    4994:	b29b      	uxth	r3, r3
    4996:	0601      	lsls	r1, r0, #24
    4998:	d505      	bpl.n	49a6 <char_permissions+0x7a>
    499a:	00a4      	lsls	r4, r4, #2
    499c:	4323      	orrs	r3, r4
    499e:	b29c      	uxth	r4, r3
    49a0:	2384      	movs	r3, #132	; 0x84
    49a2:	019b      	lsls	r3, r3, #6
    49a4:	4323      	orrs	r3, r4
    49a6:	0390      	lsls	r0, r2, #14
    49a8:	4303      	orrs	r3, r0
    49aa:	b298      	uxth	r0, r3
    49ac:	bd70      	pop	{r4, r5, r6, pc}
    49ae:	46c0      	nop			; (mov r8, r8)
    49b0:	00001004 	.word	0x00001004

000049b4 <presentation_format_define>:
    49b4:	b507      	push	{r0, r1, r2, lr}
    49b6:	466a      	mov	r2, sp
    49b8:	780b      	ldrb	r3, [r1, #0]
    49ba:	7013      	strb	r3, [r2, #0]
    49bc:	784b      	ldrb	r3, [r1, #1]
    49be:	7053      	strb	r3, [r2, #1]
    49c0:	884b      	ldrh	r3, [r1, #2]
    49c2:	7093      	strb	r3, [r2, #2]
    49c4:	0a1b      	lsrs	r3, r3, #8
    49c6:	70d3      	strb	r3, [r2, #3]
    49c8:	790b      	ldrb	r3, [r1, #4]
    49ca:	7113      	strb	r3, [r2, #4]
    49cc:	88cb      	ldrh	r3, [r1, #6]
    49ce:	2107      	movs	r1, #7
    49d0:	7153      	strb	r3, [r2, #5]
    49d2:	0a1b      	lsrs	r3, r3, #8
    49d4:	7193      	strb	r3, [r2, #6]
    49d6:	4b01      	ldr	r3, [pc, #4]	; (49dc <presentation_format_define+0x28>)
    49d8:	4798      	blx	r3
    49da:	bd0e      	pop	{r1, r2, r3, pc}
    49dc:	00007889 	.word	0x00007889

000049e0 <db_addATT>:
    49e0:	b5f7      	push	{r0, r1, r2, r4, r5, r6, r7, lr}
    49e2:	4c25      	ldr	r4, [pc, #148]	; (4a78 <db_addATT+0x98>)
    49e4:	1c1d      	adds	r5, r3, #0
    49e6:	6823      	ldr	r3, [r4, #0]
    49e8:	9001      	str	r0, [sp, #4]
    49ea:	26d3      	movs	r6, #211	; 0xd3
    49ec:	2b00      	cmp	r3, #0
    49ee:	d040      	beq.n	4a72 <db_addATT+0x92>
    49f0:	1c1e      	adds	r6, r3, #0
    49f2:	3e0c      	subs	r6, #12
    49f4:	6026      	str	r6, [r4, #0]
    49f6:	2900      	cmp	r1, #0
    49f8:	d005      	beq.n	4a06 <db_addATT+0x26>
    49fa:	4f20      	ldr	r7, [pc, #128]	; (4a7c <db_addATT+0x9c>)
    49fc:	46bc      	mov	ip, r7
    49fe:	4660      	mov	r0, ip
    4a00:	683f      	ldr	r7, [r7, #0]
    4a02:	18bf      	adds	r7, r7, r2
    4a04:	6007      	str	r7, [r0, #0]
    4a06:	481d      	ldr	r0, [pc, #116]	; (4a7c <db_addATT+0x9c>)
    4a08:	6807      	ldr	r7, [r0, #0]
    4a0a:	4684      	mov	ip, r0
    4a0c:	42be      	cmp	r6, r7
    4a0e:	d92a      	bls.n	4a66 <db_addATT+0x86>
    4a10:	4668      	mov	r0, sp
    4a12:	8880      	ldrh	r0, [r0, #4]
    4a14:	3b0c      	subs	r3, #12
    4a16:	8018      	strh	r0, [r3, #0]
    4a18:	6823      	ldr	r3, [r4, #0]
    4a1a:	2900      	cmp	r1, #0
    4a1c:	d009      	beq.n	4a32 <db_addATT+0x52>
    4a1e:	2a00      	cmp	r2, #0
    4a20:	d007      	beq.n	4a32 <db_addATT+0x52>
    4a22:	4660      	mov	r0, ip
    4a24:	6800      	ldr	r0, [r0, #0]
    4a26:	809a      	strh	r2, [r3, #4]
    4a28:	1a80      	subs	r0, r0, r2
    4a2a:	6098      	str	r0, [r3, #8]
    4a2c:	4b14      	ldr	r3, [pc, #80]	; (4a80 <db_addATT+0xa0>)
    4a2e:	4798      	blx	r3
    4a30:	e002      	b.n	4a38 <db_addATT+0x58>
    4a32:	2100      	movs	r1, #0
    4a34:	809a      	strh	r2, [r3, #4]
    4a36:	6099      	str	r1, [r3, #8]
    4a38:	2300      	movs	r3, #0
    4a3a:	6822      	ldr	r2, [r4, #0]
    4a3c:	7093      	strb	r3, [r2, #2]
    4a3e:	072b      	lsls	r3, r5, #28
    4a40:	d504      	bpl.n	4a4c <db_addATT+0x6c>
    4a42:	2101      	movs	r1, #1
    4a44:	6822      	ldr	r2, [r4, #0]
    4a46:	7893      	ldrb	r3, [r2, #2]
    4a48:	430b      	orrs	r3, r1
    4a4a:	7093      	strb	r3, [r2, #2]
    4a4c:	09ed      	lsrs	r5, r5, #7
    4a4e:	d004      	beq.n	4a5a <db_addATT+0x7a>
    4a50:	2102      	movs	r1, #2
    4a52:	6822      	ldr	r2, [r4, #0]
    4a54:	7893      	ldrb	r3, [r2, #2]
    4a56:	430b      	orrs	r3, r1
    4a58:	7093      	strb	r3, [r2, #2]
    4a5a:	4a0a      	ldr	r2, [pc, #40]	; (4a84 <db_addATT+0xa4>)
    4a5c:	2600      	movs	r6, #0
    4a5e:	6813      	ldr	r3, [r2, #0]
    4a60:	3301      	adds	r3, #1
    4a62:	6013      	str	r3, [r2, #0]
    4a64:	e005      	b.n	4a72 <db_addATT+0x92>
    4a66:	6023      	str	r3, [r4, #0]
    4a68:	2611      	movs	r6, #17
    4a6a:	2900      	cmp	r1, #0
    4a6c:	d001      	beq.n	4a72 <db_addATT+0x92>
    4a6e:	1aba      	subs	r2, r7, r2
    4a70:	6002      	str	r2, [r0, #0]
    4a72:	1c30      	adds	r0, r6, #0
    4a74:	bdfe      	pop	{r1, r2, r3, r4, r5, r6, r7, pc}
    4a76:	46c0      	nop			; (mov r8, r8)
    4a78:	20000870 	.word	0x20000870
    4a7c:	20000874 	.word	0x20000874
    4a80:	00007dbf 	.word	0x00007dbf
    4a84:	20000878 	.word	0x20000878

00004a88 <user_description_define>:
    4a88:	b5f8      	push	{r3, r4, r5, r6, r7, lr}
    4a8a:	1c05      	adds	r5, r0, #0
    4a8c:	1c0e      	adds	r6, r1, #0
    4a8e:	1c14      	adds	r4, r2, #0
    4a90:	1c1f      	adds	r7, r3, #0
    4a92:	2a00      	cmp	r2, #0
    4a94:	d015      	beq.n	4ac2 <user_description_define+0x3a>
    4a96:	070a      	lsls	r2, r1, #28
    4a98:	4b10      	ldr	r3, [pc, #64]	; (4adc <user_description_define+0x54>)
    4a9a:	0fd2      	lsrs	r2, r2, #31
    4a9c:	03d2      	lsls	r2, r2, #15
    4a9e:	469c      	mov	ip, r3
    4aa0:	d004      	beq.n	4aac <user_description_define+0x24>
    4aa2:	1c21      	adds	r1, r4, #0
    4aa4:	1c3a      	adds	r2, r7, #0
    4aa6:	1c33      	adds	r3, r6, #0
    4aa8:	47e0      	blx	ip
    4aaa:	e015      	b.n	4ad8 <user_description_define+0x50>
    4aac:	1c11      	adds	r1, r2, #0
    4aae:	1c33      	adds	r3, r6, #0
    4ab0:	47e0      	blx	ip
    4ab2:	2800      	cmp	r0, #0
    4ab4:	d110      	bne.n	4ad8 <user_description_define+0x50>
    4ab6:	1c28      	adds	r0, r5, #0
    4ab8:	1c39      	adds	r1, r7, #0
    4aba:	1c22      	adds	r2, r4, #0
    4abc:	4b08      	ldr	r3, [pc, #32]	; (4ae0 <user_description_define+0x58>)
    4abe:	4798      	blx	r3
    4ac0:	e00a      	b.n	4ad8 <user_description_define+0x50>
    4ac2:	4c08      	ldr	r4, [pc, #32]	; (4ae4 <user_description_define+0x5c>)
    4ac4:	4908      	ldr	r1, [pc, #32]	; (4ae8 <user_description_define+0x60>)
    4ac6:	22fb      	movs	r2, #251	; 0xfb
    4ac8:	4b08      	ldr	r3, [pc, #32]	; (4aec <user_description_define+0x64>)
    4aca:	4809      	ldr	r0, [pc, #36]	; (4af0 <user_description_define+0x68>)
    4acc:	6825      	ldr	r5, [r4, #0]
    4ace:	47a8      	blx	r5
    4ad0:	6823      	ldr	r3, [r4, #0]
    4ad2:	4808      	ldr	r0, [pc, #32]	; (4af4 <user_description_define+0x6c>)
    4ad4:	4798      	blx	r3
    4ad6:	20cf      	movs	r0, #207	; 0xcf
    4ad8:	bdf8      	pop	{r3, r4, r5, r6, r7, pc}
    4ada:	46c0      	nop			; (mov r8, r8)
    4adc:	000049e1 	.word	0x000049e1
    4ae0:	00007889 	.word	0x00007889
    4ae4:	200000ec 	.word	0x200000ec
    4ae8:	00009e44 	.word	0x00009e44
    4aec:	00009e2c 	.word	0x00009e2c
    4af0:	00009a19 	.word	0x00009a19
    4af4:	00009b95 	.word	0x00009b95

00004af8 <at_ble_read_authorize_reply.part.2>:
    4af8:	b537      	push	{r0, r1, r2, r4, r5, lr}
    4afa:	4b09      	ldr	r3, [pc, #36]	; (4b20 <at_ble_read_authorize_reply.part.2+0x28>)
    4afc:	1c05      	adds	r5, r0, #0
    4afe:	1c08      	adds	r0, r1, #0
    4b00:	1c0c      	adds	r4, r1, #0
    4b02:	4798      	blx	r3
    4b04:	2800      	cmp	r0, #0
    4b06:	d009      	beq.n	4b1c <at_ble_read_authorize_reply.part.2+0x24>
    4b08:	6882      	ldr	r2, [r0, #8]
    4b0a:	2a00      	cmp	r2, #0
    4b0c:	d006      	beq.n	4b1c <at_ble_read_authorize_reply.part.2+0x24>
    4b0e:	8883      	ldrh	r3, [r0, #4]
    4b10:	1c29      	adds	r1, r5, #0
    4b12:	9200      	str	r2, [sp, #0]
    4b14:	1c20      	adds	r0, r4, #0
    4b16:	2200      	movs	r2, #0
    4b18:	4c02      	ldr	r4, [pc, #8]	; (4b24 <at_ble_read_authorize_reply.part.2+0x2c>)
    4b1a:	47a0      	blx	r4
    4b1c:	bd3e      	pop	{r1, r2, r3, r4, r5, pc}
    4b1e:	46c0      	nop			; (mov r8, r8)
    4b20:	000048b1 	.word	0x000048b1
    4b24:	00007205 	.word	0x00007205

00004b28 <internal_at_ble_service_define.part.1>:
    4b28:	b5f0      	push	{r4, r5, r6, r7, lr}
    4b2a:	b08b      	sub	sp, #44	; 0x2c
    4b2c:	9304      	str	r3, [sp, #16]
    4b2e:	ab10      	add	r3, sp, #64	; 0x40
    4b30:	2400      	movs	r4, #0
    4b32:	9202      	str	r2, [sp, #8]
    4b34:	cb04      	ldmia	r3!, {r2}
    4b36:	2210      	movs	r2, #16
    4b38:	1c05      	adds	r5, r0, #0
    4b3a:	881b      	ldrh	r3, [r3, #0]
    4b3c:	9106      	str	r1, [sp, #24]
    4b3e:	9305      	str	r3, [sp, #20]
    4b40:	ab12      	add	r3, sp, #72	; 0x48
    4b42:	781b      	ldrb	r3, [r3, #0]
    4b44:	1c21      	adds	r1, r4, #0
    4b46:	9303      	str	r3, [sp, #12]
    4b48:	4bbb      	ldr	r3, [pc, #748]	; (4e38 <internal_at_ble_service_define.part.1+0x310>)
    4b4a:	681e      	ldr	r6, [r3, #0]
    4b4c:	4bbb      	ldr	r3, [pc, #748]	; (4e3c <internal_at_ble_service_define.part.1+0x314>)
    4b4e:	1db7      	adds	r7, r6, #6
    4b50:	8072      	strh	r2, [r6, #2]
    4b52:	8034      	strh	r4, [r6, #0]
    4b54:	1c38      	adds	r0, r7, #0
    4b56:	4798      	blx	r3
    4b58:	4bb9      	ldr	r3, [pc, #740]	; (4e40 <internal_at_ble_service_define.part.1+0x318>)
    4b5a:	7828      	ldrb	r0, [r5, #0]
    4b5c:	4798      	blx	r3
    4b5e:	4bb9      	ldr	r3, [pc, #740]	; (4e44 <internal_at_ble_service_define.part.1+0x31c>)
    4b60:	1c02      	adds	r2, r0, #0
    4b62:	1c69      	adds	r1, r5, #1
    4b64:	1c38      	adds	r0, r7, #0
    4b66:	4798      	blx	r3
    4b68:	2204      	movs	r2, #4
    4b6a:	782b      	ldrb	r3, [r5, #0]
    4b6c:	7174      	strb	r4, [r6, #5]
    4b6e:	011b      	lsls	r3, r3, #4
    4b70:	4313      	orrs	r3, r2
    4b72:	9a03      	ldr	r2, [sp, #12]
    4b74:	9c02      	ldr	r4, [sp, #8]
    4b76:	0192      	lsls	r2, r2, #6
    4b78:	4313      	orrs	r3, r2
    4b7a:	7133      	strb	r3, [r6, #4]
    4b7c:	2316      	movs	r3, #22
    4b7e:	9a04      	ldr	r2, [sp, #16]
    4b80:	3412      	adds	r4, #18
    4b82:	4353      	muls	r3, r2
    4b84:	9a02      	ldr	r2, [sp, #8]
    4b86:	3312      	adds	r3, #18
    4b88:	18d7      	adds	r7, r2, r3
    4b8a:	42bc      	cmp	r4, r7
    4b8c:	d00f      	beq.n	4bae <internal_at_ble_service_define.part.1+0x86>
    4b8e:	4bae      	ldr	r3, [pc, #696]	; (4e48 <internal_at_ble_service_define.part.1+0x320>)
    4b90:	8821      	ldrh	r1, [r4, #0]
    4b92:	9300      	str	r3, [sp, #0]
    4b94:	230e      	movs	r3, #14
    4b96:	aa06      	add	r2, sp, #24
    4b98:	189b      	adds	r3, r3, r2
    4b9a:	9301      	str	r3, [sp, #4]
    4b9c:	4dab      	ldr	r5, [pc, #684]	; (4e4c <internal_at_ble_service_define.part.1+0x324>)
    4b9e:	1c30      	adds	r0, r6, #0
    4ba0:	2201      	movs	r2, #1
    4ba2:	2302      	movs	r3, #2
    4ba4:	47a8      	blx	r5
    4ba6:	3416      	adds	r4, #22
    4ba8:	1e05      	subs	r5, r0, #0
    4baa:	d0ee      	beq.n	4b8a <internal_at_ble_service_define.part.1+0x62>
    4bac:	e140      	b.n	4e30 <internal_at_ble_service_define.part.1+0x308>
    4bae:	9f10      	ldr	r7, [sp, #64]	; 0x40
    4bb0:	2300      	movs	r3, #0
    4bb2:	3714      	adds	r7, #20
    4bb4:	1c3c      	adds	r4, r7, #0
    4bb6:	9302      	str	r3, [sp, #8]
    4bb8:	9b02      	ldr	r3, [sp, #8]
    4bba:	9a05      	ldr	r2, [sp, #20]
    4bbc:	4293      	cmp	r3, r2
    4bbe:	db00      	blt.n	4bc2 <internal_at_ble_service_define.part.1+0x9a>
    4bc0:	e0b0      	b.n	4d24 <internal_at_ble_service_define.part.1+0x1fc>
    4bc2:	4ba3      	ldr	r3, [pc, #652]	; (4e50 <internal_at_ble_service_define.part.1+0x328>)
    4bc4:	aa06      	add	r2, sp, #24
    4bc6:	9300      	str	r3, [sp, #0]
    4bc8:	230e      	movs	r3, #14
    4bca:	189b      	adds	r3, r3, r2
    4bcc:	9301      	str	r3, [sp, #4]
    4bce:	4d9f      	ldr	r5, [pc, #636]	; (4e4c <internal_at_ble_service_define.part.1+0x324>)
    4bd0:	1c30      	adds	r0, r6, #0
    4bd2:	2104      	movs	r1, #4
    4bd4:	2201      	movs	r2, #1
    4bd6:	2302      	movs	r3, #2
    4bd8:	47a8      	blx	r5
    4bda:	1e05      	subs	r5, r0, #0
    4bdc:	d000      	beq.n	4be0 <internal_at_ble_service_define.part.1+0xb8>
    4bde:	e127      	b.n	4e30 <internal_at_ble_service_define.part.1+0x308>
    4be0:	1c23      	adds	r3, r4, #0
    4be2:	3b12      	subs	r3, #18
    4be4:	781b      	ldrb	r3, [r3, #0]
    4be6:	7b25      	ldrb	r5, [r4, #12]
    4be8:	1c1a      	adds	r2, r3, #0
    4bea:	1c29      	adds	r1, r5, #0
    4bec:	9303      	str	r3, [sp, #12]
    4bee:	8820      	ldrh	r0, [r4, #0]
    4bf0:	4b98      	ldr	r3, [pc, #608]	; (4e54 <internal_at_ble_service_define.part.1+0x32c>)
    4bf2:	4798      	blx	r3
    4bf4:	072d      	lsls	r5, r5, #28
    4bf6:	8963      	ldrh	r3, [r4, #10]
    4bf8:	0fed      	lsrs	r5, r5, #31
    4bfa:	03ed      	lsls	r5, r5, #15
    4bfc:	431d      	orrs	r5, r3
    4bfe:	9007      	str	r0, [sp, #28]
    4c00:	4b8f      	ldr	r3, [pc, #572]	; (4e40 <internal_at_ble_service_define.part.1+0x318>)
    4c02:	9803      	ldr	r0, [sp, #12]
    4c04:	4798      	blx	r3
    4c06:	1c22      	adds	r2, r4, #0
    4c08:	3a11      	subs	r2, #17
    4c0a:	9200      	str	r2, [sp, #0]
    4c0c:	3a03      	subs	r2, #3
    4c0e:	1c03      	adds	r3, r0, #0
    4c10:	9201      	str	r2, [sp, #4]
    4c12:	1c29      	adds	r1, r5, #0
    4c14:	1c30      	adds	r0, r6, #0
    4c16:	4d8d      	ldr	r5, [pc, #564]	; (4e4c <internal_at_ble_service_define.part.1+0x324>)
    4c18:	9a07      	ldr	r2, [sp, #28]
    4c1a:	47a8      	blx	r5
    4c1c:	1e05      	subs	r5, r0, #0
    4c1e:	d000      	beq.n	4c22 <internal_at_ble_service_define.part.1+0xfa>
    4c20:	e106      	b.n	4e30 <internal_at_ble_service_define.part.1+0x308>
    4c22:	22c0      	movs	r2, #192	; 0xc0
    4c24:	8823      	ldrh	r3, [r4, #0]
    4c26:	0052      	lsls	r2, r2, #1
    4c28:	4213      	tst	r3, r2
    4c2a:	d104      	bne.n	4c36 <internal_at_ble_service_define.part.1+0x10e>
    4c2c:	8aa3      	ldrh	r3, [r4, #20]
    4c2e:	9303      	str	r3, [sp, #12]
    4c30:	2b00      	cmp	r3, #0
    4c32:	d115      	bne.n	4c60 <internal_at_ble_service_define.part.1+0x138>
    4c34:	e032      	b.n	4c9c <internal_at_ble_service_define.part.1+0x174>
    4c36:	0619      	lsls	r1, r3, #24
    4c38:	0fc9      	lsrs	r1, r1, #31
    4c3a:	05db      	lsls	r3, r3, #23
    4c3c:	d501      	bpl.n	4c42 <internal_at_ble_service_define.part.1+0x11a>
    4c3e:	2302      	movs	r3, #2
    4c40:	4319      	orrs	r1, r3
    4c42:	4b85      	ldr	r3, [pc, #532]	; (4e58 <internal_at_ble_service_define.part.1+0x330>)
    4c44:	aa06      	add	r2, sp, #24
    4c46:	9300      	str	r3, [sp, #0]
    4c48:	230e      	movs	r3, #14
    4c4a:	189b      	adds	r3, r3, r2
    4c4c:	9301      	str	r3, [sp, #4]
    4c4e:	4d7f      	ldr	r5, [pc, #508]	; (4e4c <internal_at_ble_service_define.part.1+0x324>)
    4c50:	0209      	lsls	r1, r1, #8
    4c52:	1c30      	adds	r0, r6, #0
    4c54:	2201      	movs	r2, #1
    4c56:	2302      	movs	r3, #2
    4c58:	47a8      	blx	r5
    4c5a:	1e05      	subs	r5, r0, #0
    4c5c:	d0e6      	beq.n	4c2c <internal_at_ble_service_define.part.1+0x104>
    4c5e:	e0e7      	b.n	4e30 <internal_at_ble_service_define.part.1+0x308>
    4c60:	2380      	movs	r3, #128	; 0x80
    4c62:	8822      	ldrh	r2, [r4, #0]
    4c64:	7f25      	ldrb	r5, [r4, #28]
    4c66:	005b      	lsls	r3, r3, #1
    4c68:	401a      	ands	r2, r3
    4c6a:	1c28      	adds	r0, r5, #0
    4c6c:	2101      	movs	r1, #1
    4c6e:	2a00      	cmp	r2, #0
    4c70:	d000      	beq.n	4c74 <internal_at_ble_service_define.part.1+0x14c>
    4c72:	1c0a      	adds	r2, r1, #0
    4c74:	4b79      	ldr	r3, [pc, #484]	; (4e5c <internal_at_ble_service_define.part.1+0x334>)
    4c76:	4798      	blx	r3
    4c78:	4b79      	ldr	r3, [pc, #484]	; (4e60 <internal_at_ble_service_define.part.1+0x338>)
    4c7a:	072d      	lsls	r5, r5, #28
    4c7c:	9300      	str	r3, [sp, #0]
    4c7e:	1c23      	adds	r3, r4, #0
    4c80:	0fed      	lsrs	r5, r5, #31
    4c82:	03ed      	lsls	r5, r5, #15
    4c84:	4328      	orrs	r0, r5
    4c86:	3320      	adds	r3, #32
    4c88:	b282      	uxth	r2, r0
    4c8a:	9301      	str	r3, [sp, #4]
    4c8c:	4d6f      	ldr	r5, [pc, #444]	; (4e4c <internal_at_ble_service_define.part.1+0x324>)
    4c8e:	1c30      	adds	r0, r6, #0
    4c90:	9903      	ldr	r1, [sp, #12]
    4c92:	2302      	movs	r3, #2
    4c94:	47a8      	blx	r5
    4c96:	1e05      	subs	r5, r0, #0
    4c98:	d000      	beq.n	4c9c <internal_at_ble_service_define.part.1+0x174>
    4c9a:	e0c9      	b.n	4e30 <internal_at_ble_service_define.part.1+0x308>
    4c9c:	2101      	movs	r1, #1
    4c9e:	8823      	ldrh	r3, [r4, #0]
    4ca0:	420b      	tst	r3, r1
    4ca2:	d011      	beq.n	4cc8 <internal_at_ble_service_define.part.1+0x1a0>
    4ca4:	7fa0      	ldrb	r0, [r4, #30]
    4ca6:	4b6d      	ldr	r3, [pc, #436]	; (4e5c <internal_at_ble_service_define.part.1+0x334>)
    4ca8:	2200      	movs	r2, #0
    4caa:	4798      	blx	r3
    4cac:	4b6d      	ldr	r3, [pc, #436]	; (4e64 <internal_at_ble_service_define.part.1+0x33c>)
    4cae:	1c02      	adds	r2, r0, #0
    4cb0:	9300      	str	r3, [sp, #0]
    4cb2:	1c23      	adds	r3, r4, #0
    4cb4:	3324      	adds	r3, #36	; 0x24
    4cb6:	9301      	str	r3, [sp, #4]
    4cb8:	4d64      	ldr	r5, [pc, #400]	; (4e4c <internal_at_ble_service_define.part.1+0x324>)
    4cba:	1c30      	adds	r0, r6, #0
    4cbc:	496a      	ldr	r1, [pc, #424]	; (4e68 <internal_at_ble_service_define.part.1+0x340>)
    4cbe:	2302      	movs	r3, #2
    4cc0:	47a8      	blx	r5
    4cc2:	1e05      	subs	r5, r0, #0
    4cc4:	d000      	beq.n	4cc8 <internal_at_ble_service_define.part.1+0x1a0>
    4cc6:	e0b3      	b.n	4e30 <internal_at_ble_service_define.part.1+0x308>
    4cc8:	2330      	movs	r3, #48	; 0x30
    4cca:	8822      	ldrh	r2, [r4, #0]
    4ccc:	421a      	tst	r2, r3
    4cce:	d012      	beq.n	4cf6 <internal_at_ble_service_define.part.1+0x1ce>
    4cd0:	2101      	movs	r1, #1
    4cd2:	7f60      	ldrb	r0, [r4, #29]
    4cd4:	1c0a      	adds	r2, r1, #0
    4cd6:	4b61      	ldr	r3, [pc, #388]	; (4e5c <internal_at_ble_service_define.part.1+0x334>)
    4cd8:	4798      	blx	r3
    4cda:	4b64      	ldr	r3, [pc, #400]	; (4e6c <internal_at_ble_service_define.part.1+0x344>)
    4cdc:	1c02      	adds	r2, r0, #0
    4cde:	9300      	str	r3, [sp, #0]
    4ce0:	1c23      	adds	r3, r4, #0
    4ce2:	3322      	adds	r3, #34	; 0x22
    4ce4:	9301      	str	r3, [sp, #4]
    4ce6:	4d59      	ldr	r5, [pc, #356]	; (4e4c <internal_at_ble_service_define.part.1+0x324>)
    4ce8:	1c30      	adds	r0, r6, #0
    4cea:	495f      	ldr	r1, [pc, #380]	; (4e68 <internal_at_ble_service_define.part.1+0x340>)
    4cec:	2302      	movs	r3, #2
    4cee:	47a8      	blx	r5
    4cf0:	1e05      	subs	r5, r0, #0
    4cf2:	d000      	beq.n	4cf6 <internal_at_ble_service_define.part.1+0x1ce>
    4cf4:	e09c      	b.n	4e30 <internal_at_ble_service_define.part.1+0x308>
    4cf6:	69a3      	ldr	r3, [r4, #24]
    4cf8:	2b00      	cmp	r3, #0
    4cfa:	d00e      	beq.n	4d1a <internal_at_ble_service_define.part.1+0x1f2>
    4cfc:	4b5c      	ldr	r3, [pc, #368]	; (4e70 <internal_at_ble_service_define.part.1+0x348>)
    4cfe:	aa06      	add	r2, sp, #24
    4d00:	9300      	str	r3, [sp, #0]
    4d02:	230e      	movs	r3, #14
    4d04:	189b      	adds	r3, r3, r2
    4d06:	9301      	str	r3, [sp, #4]
    4d08:	4d50      	ldr	r5, [pc, #320]	; (4e4c <internal_at_ble_service_define.part.1+0x324>)
    4d0a:	1c30      	adds	r0, r6, #0
    4d0c:	2107      	movs	r1, #7
    4d0e:	2201      	movs	r2, #1
    4d10:	2302      	movs	r3, #2
    4d12:	47a8      	blx	r5
    4d14:	1e05      	subs	r5, r0, #0
    4d16:	d000      	beq.n	4d1a <internal_at_ble_service_define.part.1+0x1f2>
    4d18:	e08a      	b.n	4e30 <internal_at_ble_service_define.part.1+0x308>
    4d1a:	9b02      	ldr	r3, [sp, #8]
    4d1c:	343c      	adds	r4, #60	; 0x3c
    4d1e:	3301      	adds	r3, #1
    4d20:	9302      	str	r3, [sp, #8]
    4d22:	e749      	b.n	4bb8 <internal_at_ble_service_define.part.1+0x90>
    4d24:	1c30      	adds	r0, r6, #0
    4d26:	4b53      	ldr	r3, [pc, #332]	; (4e74 <internal_at_ble_service_define.part.1+0x34c>)
    4d28:	4798      	blx	r3
    4d2a:	1e05      	subs	r5, r0, #0
    4d2c:	d000      	beq.n	4d30 <internal_at_ble_service_define.part.1+0x208>
    4d2e:	e07f      	b.n	4e30 <internal_at_ble_service_define.part.1+0x308>
    4d30:	8833      	ldrh	r3, [r6, #0]
    4d32:	9a06      	ldr	r2, [sp, #24]
    4d34:	8013      	strh	r3, [r2, #0]
    4d36:	8836      	ldrh	r6, [r6, #0]
    4d38:	9b04      	ldr	r3, [sp, #16]
    4d3a:	9a05      	ldr	r2, [sp, #20]
    4d3c:	18f6      	adds	r6, r6, r3
    4d3e:	b2b3      	uxth	r3, r6
    4d40:	9302      	str	r3, [sp, #8]
    4d42:	233c      	movs	r3, #60	; 0x3c
    4d44:	4353      	muls	r3, r2
    4d46:	9a10      	ldr	r2, [sp, #64]	; 0x40
    4d48:	3314      	adds	r3, #20
    4d4a:	18d3      	adds	r3, r2, r3
    4d4c:	9304      	str	r3, [sp, #16]
    4d4e:	9b04      	ldr	r3, [sp, #16]
    4d50:	429f      	cmp	r7, r3
    4d52:	d06d      	beq.n	4e30 <internal_at_ble_service_define.part.1+0x308>
    4d54:	9b02      	ldr	r3, [sp, #8]
    4d56:	1c9c      	adds	r4, r3, #2
    4d58:	1c3b      	adds	r3, r7, #0
    4d5a:	b2a4      	uxth	r4, r4
    4d5c:	3b14      	subs	r3, #20
    4d5e:	801c      	strh	r4, [r3, #0]
    4d60:	9303      	str	r3, [sp, #12]
    4d62:	893b      	ldrh	r3, [r7, #8]
    4d64:	2b00      	cmp	r3, #0
    4d66:	d108      	bne.n	4d7a <internal_at_ble_service_define.part.1+0x252>
    4d68:	23c0      	movs	r3, #192	; 0xc0
    4d6a:	883a      	ldrh	r2, [r7, #0]
    4d6c:	005b      	lsls	r3, r3, #1
    4d6e:	421a      	tst	r2, r3
    4d70:	d01f      	beq.n	4db2 <internal_at_ble_service_define.part.1+0x28a>
    4d72:	9e02      	ldr	r6, [sp, #8]
    4d74:	3603      	adds	r6, #3
    4d76:	b2b4      	uxth	r4, r6
    4d78:	e01b      	b.n	4db2 <internal_at_ble_service_define.part.1+0x28a>
    4d7a:	7b3b      	ldrb	r3, [r7, #12]
    4d7c:	897a      	ldrh	r2, [r7, #10]
    4d7e:	0719      	lsls	r1, r3, #28
    4d80:	0fc9      	lsrs	r1, r1, #31
    4d82:	03c9      	lsls	r1, r1, #15
    4d84:	d007      	beq.n	4d96 <internal_at_ble_service_define.part.1+0x26e>
    4d86:	6879      	ldr	r1, [r7, #4]
    4d88:	2900      	cmp	r1, #0
    4d8a:	d100      	bne.n	4d8e <internal_at_ble_service_define.part.1+0x266>
    4d8c:	493a      	ldr	r1, [pc, #232]	; (4e78 <internal_at_ble_service_define.part.1+0x350>)
    4d8e:	1c20      	adds	r0, r4, #0
    4d90:	4e3a      	ldr	r6, [pc, #232]	; (4e7c <internal_at_ble_service_define.part.1+0x354>)
    4d92:	47b0      	blx	r6
    4d94:	e00a      	b.n	4dac <internal_at_ble_service_define.part.1+0x284>
    4d96:	1c20      	adds	r0, r4, #0
    4d98:	4e38      	ldr	r6, [pc, #224]	; (4e7c <internal_at_ble_service_define.part.1+0x354>)
    4d9a:	47b0      	blx	r6
    4d9c:	2800      	cmp	r0, #0
    4d9e:	d146      	bne.n	4e2e <internal_at_ble_service_define.part.1+0x306>
    4da0:	9b03      	ldr	r3, [sp, #12]
    4da2:	8939      	ldrh	r1, [r7, #8]
    4da4:	8818      	ldrh	r0, [r3, #0]
    4da6:	687a      	ldr	r2, [r7, #4]
    4da8:	4b35      	ldr	r3, [pc, #212]	; (4e80 <internal_at_ble_service_define.part.1+0x358>)
    4daa:	4798      	blx	r3
    4dac:	2800      	cmp	r0, #0
    4dae:	d0db      	beq.n	4d68 <internal_at_ble_service_define.part.1+0x240>
    4db0:	e03d      	b.n	4e2e <internal_at_ble_service_define.part.1+0x306>
    4db2:	8abb      	ldrh	r3, [r7, #20]
    4db4:	2b00      	cmp	r3, #0
    4db6:	d00a      	beq.n	4dce <internal_at_ble_service_define.part.1+0x2a6>
    4db8:	3401      	adds	r4, #1
    4dba:	b2a4      	uxth	r4, r4
    4dbc:	843c      	strh	r4, [r7, #32]
    4dbe:	7f39      	ldrb	r1, [r7, #28]
    4dc0:	8afb      	ldrh	r3, [r7, #22]
    4dc2:	1c20      	adds	r0, r4, #0
    4dc4:	693a      	ldr	r2, [r7, #16]
    4dc6:	4e2f      	ldr	r6, [pc, #188]	; (4e84 <internal_at_ble_service_define.part.1+0x35c>)
    4dc8:	47b0      	blx	r6
    4dca:	2800      	cmp	r0, #0
    4dcc:	d12f      	bne.n	4e2e <internal_at_ble_service_define.part.1+0x306>
    4dce:	883b      	ldrh	r3, [r7, #0]
    4dd0:	07db      	lsls	r3, r3, #31
    4dd2:	d50d      	bpl.n	4df0 <internal_at_ble_service_define.part.1+0x2c8>
    4dd4:	2200      	movs	r2, #0
    4dd6:	3401      	adds	r4, #1
    4dd8:	b2a4      	uxth	r4, r4
    4dda:	a909      	add	r1, sp, #36	; 0x24
    4ddc:	84bc      	strh	r4, [r7, #36]	; 0x24
    4dde:	7fbb      	ldrb	r3, [r7, #30]
    4de0:	1c20      	adds	r0, r4, #0
    4de2:	700a      	strb	r2, [r1, #0]
    4de4:	704a      	strb	r2, [r1, #1]
    4de6:	4e25      	ldr	r6, [pc, #148]	; (4e7c <internal_at_ble_service_define.part.1+0x354>)
    4de8:	3202      	adds	r2, #2
    4dea:	47b0      	blx	r6
    4dec:	2800      	cmp	r0, #0
    4dee:	d11e      	bne.n	4e2e <internal_at_ble_service_define.part.1+0x306>
    4df0:	2330      	movs	r3, #48	; 0x30
    4df2:	883a      	ldrh	r2, [r7, #0]
    4df4:	421a      	tst	r2, r3
    4df6:	d00d      	beq.n	4e14 <internal_at_ble_service_define.part.1+0x2ec>
    4df8:	2200      	movs	r2, #0
    4dfa:	3401      	adds	r4, #1
    4dfc:	b2a4      	uxth	r4, r4
    4dfe:	a909      	add	r1, sp, #36	; 0x24
    4e00:	847c      	strh	r4, [r7, #34]	; 0x22
    4e02:	7f7b      	ldrb	r3, [r7, #29]
    4e04:	1c20      	adds	r0, r4, #0
    4e06:	700a      	strb	r2, [r1, #0]
    4e08:	704a      	strb	r2, [r1, #1]
    4e0a:	4e1c      	ldr	r6, [pc, #112]	; (4e7c <internal_at_ble_service_define.part.1+0x354>)
    4e0c:	3202      	adds	r2, #2
    4e0e:	47b0      	blx	r6
    4e10:	2800      	cmp	r0, #0
    4e12:	d10c      	bne.n	4e2e <internal_at_ble_service_define.part.1+0x306>
    4e14:	69b9      	ldr	r1, [r7, #24]
    4e16:	2900      	cmp	r1, #0
    4e18:	d006      	beq.n	4e28 <internal_at_ble_service_define.part.1+0x300>
    4e1a:	3401      	adds	r4, #1
    4e1c:	b2a4      	uxth	r4, r4
    4e1e:	1c20      	adds	r0, r4, #0
    4e20:	4b19      	ldr	r3, [pc, #100]	; (4e88 <internal_at_ble_service_define.part.1+0x360>)
    4e22:	4798      	blx	r3
    4e24:	2800      	cmp	r0, #0
    4e26:	d102      	bne.n	4e2e <internal_at_ble_service_define.part.1+0x306>
    4e28:	373c      	adds	r7, #60	; 0x3c
    4e2a:	9402      	str	r4, [sp, #8]
    4e2c:	e78f      	b.n	4d4e <internal_at_ble_service_define.part.1+0x226>
    4e2e:	1c05      	adds	r5, r0, #0
    4e30:	1c28      	adds	r0, r5, #0
    4e32:	b00b      	add	sp, #44	; 0x2c
    4e34:	bdf0      	pop	{r4, r5, r6, r7, pc}
    4e36:	46c0      	nop			; (mov r8, r8)
    4e38:	2000087c 	.word	0x2000087c
    4e3c:	00007dd1 	.word	0x00007dd1
    4e40:	000047e5 	.word	0x000047e5
    4e44:	00007dbf 	.word	0x00007dbf
    4e48:	200000dd 	.word	0x200000dd
    4e4c:	000077f1 	.word	0x000077f1
    4e50:	200000df 	.word	0x200000df
    4e54:	0000492d 	.word	0x0000492d
    4e58:	200000e9 	.word	0x200000e9
    4e5c:	000048f1 	.word	0x000048f1
    4e60:	200000e7 	.word	0x200000e7
    4e64:	200000e5 	.word	0x200000e5
    4e68:	00008002 	.word	0x00008002
    4e6c:	200000e1 	.word	0x200000e1
    4e70:	200000e3 	.word	0x200000e3
    4e74:	000076e9 	.word	0x000076e9
    4e78:	2000086c 	.word	0x2000086c
    4e7c:	000049e1 	.word	0x000049e1
    4e80:	00007889 	.word	0x00007889
    4e84:	00004a89 	.word	0x00004a89
    4e88:	000049b5 	.word	0x000049b5

00004e8c <db_init>:
    4e8c:	4b08      	ldr	r3, [pc, #32]	; (4eb0 <db_init+0x24>)
    4e8e:	4a09      	ldr	r2, [pc, #36]	; (4eb4 <db_init+0x28>)
    4e90:	6018      	str	r0, [r3, #0]
    4e92:	084b      	lsrs	r3, r1, #1
    4e94:	6013      	str	r3, [r2, #0]
    4e96:	4a08      	ldr	r2, [pc, #32]	; (4eb8 <db_init+0x2c>)
    4e98:	18c3      	adds	r3, r0, r3
    4e9a:	6013      	str	r3, [r2, #0]
    4e9c:	4a07      	ldr	r2, [pc, #28]	; (4ebc <db_init+0x30>)
    4e9e:	1841      	adds	r1, r0, r1
    4ea0:	6013      	str	r3, [r2, #0]
    4ea2:	2303      	movs	r3, #3
    4ea4:	3103      	adds	r1, #3
    4ea6:	4399      	bics	r1, r3
    4ea8:	4b05      	ldr	r3, [pc, #20]	; (4ec0 <db_init+0x34>)
    4eaa:	3904      	subs	r1, #4
    4eac:	6019      	str	r1, [r3, #0]
    4eae:	4770      	bx	lr
    4eb0:	2000087c 	.word	0x2000087c
    4eb4:	20000864 	.word	0x20000864
    4eb8:	20000868 	.word	0x20000868
    4ebc:	20000874 	.word	0x20000874
    4ec0:	20000870 	.word	0x20000870

00004ec4 <at_ble_primary_service_define>:
    4ec4:	b57f      	push	{r0, r1, r2, r3, r4, r5, r6, lr}
    4ec6:	ac08      	add	r4, sp, #32
    4ec8:	cc40      	ldmia	r4!, {r6}
    4eca:	1c05      	adds	r5, r0, #0
    4ecc:	8824      	ldrh	r4, [r4, #0]
    4ece:	20cf      	movs	r0, #207	; 0xcf
    4ed0:	2d00      	cmp	r5, #0
    4ed2:	d00c      	beq.n	4eee <at_ble_primary_service_define+0x2a>
    4ed4:	2900      	cmp	r1, #0
    4ed6:	d00a      	beq.n	4eee <at_ble_primary_service_define+0x2a>
    4ed8:	2e00      	cmp	r6, #0
    4eda:	d008      	beq.n	4eee <at_ble_primary_service_define+0x2a>
    4edc:	2c00      	cmp	r4, #0
    4ede:	d006      	beq.n	4eee <at_ble_primary_service_define+0x2a>
    4ee0:	38ce      	subs	r0, #206	; 0xce
    4ee2:	9401      	str	r4, [sp, #4]
    4ee4:	9002      	str	r0, [sp, #8]
    4ee6:	9600      	str	r6, [sp, #0]
    4ee8:	1c28      	adds	r0, r5, #0
    4eea:	4c02      	ldr	r4, [pc, #8]	; (4ef4 <at_ble_primary_service_define+0x30>)
    4eec:	47a0      	blx	r4
    4eee:	b004      	add	sp, #16
    4ef0:	bd70      	pop	{r4, r5, r6, pc}
    4ef2:	46c0      	nop			; (mov r8, r8)
    4ef4:	00004b29 	.word	0x00004b29

00004ef8 <at_ble_characteristic_value_set>:
    4ef8:	b570      	push	{r4, r5, r6, lr}
    4efa:	4b0b      	ldr	r3, [pc, #44]	; (4f28 <at_ble_characteristic_value_set+0x30>)
    4efc:	1c06      	adds	r6, r0, #0
    4efe:	1c0c      	adds	r4, r1, #0
    4f00:	1c15      	adds	r5, r2, #0
    4f02:	4798      	blx	r3
    4f04:	2800      	cmp	r0, #0
    4f06:	d008      	beq.n	4f1a <at_ble_characteristic_value_set+0x22>
    4f08:	6880      	ldr	r0, [r0, #8]
    4f0a:	2800      	cmp	r0, #0
    4f0c:	d005      	beq.n	4f1a <at_ble_characteristic_value_set+0x22>
    4f0e:	1c21      	adds	r1, r4, #0
    4f10:	1c2a      	adds	r2, r5, #0
    4f12:	4b06      	ldr	r3, [pc, #24]	; (4f2c <at_ble_characteristic_value_set+0x34>)
    4f14:	4798      	blx	r3
    4f16:	2000      	movs	r0, #0
    4f18:	e004      	b.n	4f24 <at_ble_characteristic_value_set+0x2c>
    4f1a:	1c30      	adds	r0, r6, #0
    4f1c:	1c29      	adds	r1, r5, #0
    4f1e:	1c22      	adds	r2, r4, #0
    4f20:	4b03      	ldr	r3, [pc, #12]	; (4f30 <at_ble_characteristic_value_set+0x38>)
    4f22:	4798      	blx	r3
    4f24:	bd70      	pop	{r4, r5, r6, pc}
    4f26:	46c0      	nop			; (mov r8, r8)
    4f28:	000048b1 	.word	0x000048b1
    4f2c:	00007dbf 	.word	0x00007dbf
    4f30:	00007889 	.word	0x00007889

00004f34 <at_ble_characteristic_value_get>:
    4f34:	b570      	push	{r4, r5, r6, lr}
    4f36:	4b0c      	ldr	r3, [pc, #48]	; (4f68 <at_ble_characteristic_value_get+0x34>)
    4f38:	1c06      	adds	r6, r0, #0
    4f3a:	1c0c      	adds	r4, r1, #0
    4f3c:	1c15      	adds	r5, r2, #0
    4f3e:	4798      	blx	r3
    4f40:	2800      	cmp	r0, #0
    4f42:	d00b      	beq.n	4f5c <at_ble_characteristic_value_get+0x28>
    4f44:	6883      	ldr	r3, [r0, #8]
    4f46:	2b00      	cmp	r3, #0
    4f48:	d008      	beq.n	4f5c <at_ble_characteristic_value_get+0x28>
    4f4a:	8883      	ldrh	r3, [r0, #4]
    4f4c:	802b      	strh	r3, [r5, #0]
    4f4e:	8882      	ldrh	r2, [r0, #4]
    4f50:	6881      	ldr	r1, [r0, #8]
    4f52:	4b06      	ldr	r3, [pc, #24]	; (4f6c <at_ble_characteristic_value_get+0x38>)
    4f54:	1c20      	adds	r0, r4, #0
    4f56:	4798      	blx	r3
    4f58:	2000      	movs	r0, #0
    4f5a:	e004      	b.n	4f66 <at_ble_characteristic_value_get+0x32>
    4f5c:	1c30      	adds	r0, r6, #0
    4f5e:	1c29      	adds	r1, r5, #0
    4f60:	1c22      	adds	r2, r4, #0
    4f62:	4b03      	ldr	r3, [pc, #12]	; (4f70 <at_ble_characteristic_value_get+0x3c>)
    4f64:	4798      	blx	r3
    4f66:	bd70      	pop	{r4, r5, r6, pc}
    4f68:	000048b1 	.word	0x000048b1
    4f6c:	00007dbf 	.word	0x00007dbf
    4f70:	00007911 	.word	0x00007911

00004f74 <at_ble_write_authorize_reply>:
    4f74:	b5f0      	push	{r4, r5, r6, r7, lr}
    4f76:	b085      	sub	sp, #20
    4f78:	1c04      	adds	r4, r0, #0
    4f7a:	9101      	str	r1, [sp, #4]
    4f7c:	2900      	cmp	r1, #0
    4f7e:	d129      	bne.n	4fd4 <at_ble_write_authorize_reply+0x60>
    4f80:	8847      	ldrh	r7, [r0, #2]
    4f82:	4b18      	ldr	r3, [pc, #96]	; (4fe4 <at_ble_write_authorize_reply+0x70>)
    4f84:	1c38      	adds	r0, r7, #0
    4f86:	1c26      	adds	r6, r4, #0
    4f88:	4798      	blx	r3
    4f8a:	3608      	adds	r6, #8
    4f8c:	2800      	cmp	r0, #0
    4f8e:	d009      	beq.n	4fa4 <at_ble_write_authorize_reply+0x30>
    4f90:	6880      	ldr	r0, [r0, #8]
    4f92:	2800      	cmp	r0, #0
    4f94:	d006      	beq.n	4fa4 <at_ble_write_authorize_reply+0x30>
    4f96:	88a3      	ldrh	r3, [r4, #4]
    4f98:	88e2      	ldrh	r2, [r4, #6]
    4f9a:	18c0      	adds	r0, r0, r3
    4f9c:	1c31      	adds	r1, r6, #0
    4f9e:	4b12      	ldr	r3, [pc, #72]	; (4fe8 <at_ble_write_authorize_reply+0x74>)
    4fa0:	4798      	blx	r3
    4fa2:	e017      	b.n	4fd4 <at_ble_write_authorize_reply+0x60>
    4fa4:	ab02      	add	r3, sp, #8
    4fa6:	1d9d      	adds	r5, r3, #6
    4fa8:	2300      	movs	r3, #0
    4faa:	802b      	strh	r3, [r5, #0]
    4fac:	4b0f      	ldr	r3, [pc, #60]	; (4fec <at_ble_write_authorize_reply+0x78>)
    4fae:	1c2a      	adds	r2, r5, #0
    4fb0:	681b      	ldr	r3, [r3, #0]
    4fb2:	1c38      	adds	r0, r7, #0
    4fb4:	1c19      	adds	r1, r3, #0
    4fb6:	9300      	str	r3, [sp, #0]
    4fb8:	4b0d      	ldr	r3, [pc, #52]	; (4ff0 <at_ble_write_authorize_reply+0x7c>)
    4fba:	4798      	blx	r3
    4fbc:	9b00      	ldr	r3, [sp, #0]
    4fbe:	88a0      	ldrh	r0, [r4, #4]
    4fc0:	88e2      	ldrh	r2, [r4, #6]
    4fc2:	1818      	adds	r0, r3, r0
    4fc4:	1c31      	adds	r1, r6, #0
    4fc6:	4b08      	ldr	r3, [pc, #32]	; (4fe8 <at_ble_write_authorize_reply+0x74>)
    4fc8:	4798      	blx	r3
    4fca:	8860      	ldrh	r0, [r4, #2]
    4fcc:	882a      	ldrh	r2, [r5, #0]
    4fce:	9900      	ldr	r1, [sp, #0]
    4fd0:	4b08      	ldr	r3, [pc, #32]	; (4ff4 <at_ble_write_authorize_reply+0x80>)
    4fd2:	4798      	blx	r3
    4fd4:	8860      	ldrh	r0, [r4, #2]
    4fd6:	8821      	ldrh	r1, [r4, #0]
    4fd8:	9a01      	ldr	r2, [sp, #4]
    4fda:	4b07      	ldr	r3, [pc, #28]	; (4ff8 <at_ble_write_authorize_reply+0x84>)
    4fdc:	4798      	blx	r3
    4fde:	2000      	movs	r0, #0
    4fe0:	b005      	add	sp, #20
    4fe2:	bdf0      	pop	{r4, r5, r6, r7, pc}
    4fe4:	000048b1 	.word	0x000048b1
    4fe8:	00007dbf 	.word	0x00007dbf
    4fec:	00009e7c 	.word	0x00009e7c
    4ff0:	00004f35 	.word	0x00004f35
    4ff4:	00004ef9 	.word	0x00004ef9
    4ff8:	00007279 	.word	0x00007279

00004ffc <gatts_handle_read_req>:
    4ffc:	b538      	push	{r3, r4, r5, lr}
    4ffe:	1c0c      	adds	r4, r1, #0
    5000:	4b07      	ldr	r3, [pc, #28]	; (5020 <gatts_handle_read_req+0x24>)
    5002:	4798      	blx	r3
    5004:	8865      	ldrh	r5, [r4, #2]
    5006:	4b07      	ldr	r3, [pc, #28]	; (5024 <gatts_handle_read_req+0x28>)
    5008:	1c28      	adds	r0, r5, #0
    500a:	4798      	blx	r3
    500c:	7883      	ldrb	r3, [r0, #2]
    500e:	2026      	movs	r0, #38	; 0x26
    5010:	07db      	lsls	r3, r3, #31
    5012:	d404      	bmi.n	501e <gatts_handle_read_req+0x22>
    5014:	8820      	ldrh	r0, [r4, #0]
    5016:	1c29      	adds	r1, r5, #0
    5018:	4b03      	ldr	r3, [pc, #12]	; (5028 <gatts_handle_read_req+0x2c>)
    501a:	4798      	blx	r3
    501c:	203a      	movs	r0, #58	; 0x3a
    501e:	bd38      	pop	{r3, r4, r5, pc}
    5020:	000071b5 	.word	0x000071b5
    5024:	000048b1 	.word	0x000048b1
    5028:	00004af9 	.word	0x00004af9

0000502c <gatts_handle_att_info_req>:
    502c:	b538      	push	{r3, r4, r5, lr}
    502e:	1c0d      	adds	r5, r1, #0
    5030:	4b0a      	ldr	r3, [pc, #40]	; (505c <gatts_handle_att_info_req+0x30>)
    5032:	1c14      	adds	r4, r2, #0
    5034:	4798      	blx	r3
    5036:	882d      	ldrh	r5, [r5, #0]
    5038:	4b09      	ldr	r3, [pc, #36]	; (5060 <gatts_handle_att_info_req+0x34>)
    503a:	1c28      	adds	r0, r5, #0
    503c:	4798      	blx	r3
    503e:	0a22      	lsrs	r2, r4, #8
    5040:	1c03      	adds	r3, r0, #0
    5042:	4c08      	ldr	r4, [pc, #32]	; (5064 <gatts_handle_att_info_req+0x38>)
    5044:	b291      	uxth	r1, r2
    5046:	2800      	cmp	r0, #0
    5048:	d003      	beq.n	5052 <gatts_handle_att_info_req+0x26>
    504a:	8882      	ldrh	r2, [r0, #4]
    504c:	2300      	movs	r3, #0
    504e:	1c28      	adds	r0, r5, #0
    5050:	e001      	b.n	5056 <gatts_handle_att_info_req+0x2a>
    5052:	1c28      	adds	r0, r5, #0
    5054:	2201      	movs	r2, #1
    5056:	47a0      	blx	r4
    5058:	203a      	movs	r0, #58	; 0x3a
    505a:	bd38      	pop	{r3, r4, r5, pc}
    505c:	000071f9 	.word	0x000071f9
    5060:	000048b1 	.word	0x000048b1
    5064:	000072c1 	.word	0x000072c1

00005068 <gatts_handle_write_req>:
    5068:	b510      	push	{r4, lr}
    506a:	1c14      	adds	r4, r2, #0
    506c:	4b07      	ldr	r3, [pc, #28]	; (508c <gatts_handle_write_req+0x24>)
    506e:	4798      	blx	r3
    5070:	4b07      	ldr	r3, [pc, #28]	; (5090 <gatts_handle_write_req+0x28>)
    5072:	8860      	ldrh	r0, [r4, #2]
    5074:	4798      	blx	r3
    5076:	2302      	movs	r3, #2
    5078:	7881      	ldrb	r1, [r0, #2]
    507a:	2022      	movs	r0, #34	; 0x22
    507c:	4019      	ands	r1, r3
    507e:	d103      	bne.n	5088 <gatts_handle_write_req+0x20>
    5080:	1c20      	adds	r0, r4, #0
    5082:	4b04      	ldr	r3, [pc, #16]	; (5094 <gatts_handle_write_req+0x2c>)
    5084:	4798      	blx	r3
    5086:	201f      	movs	r0, #31
    5088:	bd10      	pop	{r4, pc}
    508a:	46c0      	nop			; (mov r8, r8)
    508c:	000071c1 	.word	0x000071c1
    5090:	000048b1 	.word	0x000048b1
    5094:	00004f75 	.word	0x00004f75

00005098 <at_ble_notification_send>:
    5098:	b5f0      	push	{r4, r5, r6, r7, lr}
    509a:	4d17      	ldr	r5, [pc, #92]	; (50f8 <at_ble_notification_send+0x60>)
    509c:	4c17      	ldr	r4, [pc, #92]	; (50fc <at_ble_notification_send+0x64>)
    509e:	682a      	ldr	r2, [r5, #0]
    50a0:	44a5      	add	sp, r4
    50a2:	23d2      	movs	r3, #210	; 0xd2
    50a4:	2a04      	cmp	r2, #4
    50a6:	d822      	bhi.n	50ee <at_ble_notification_send+0x56>
    50a8:	1c06      	adds	r6, r0, #0
    50aa:	4b15      	ldr	r3, [pc, #84]	; (5100 <at_ble_notification_send+0x68>)
    50ac:	1c08      	adds	r0, r1, #0
    50ae:	1c0c      	adds	r4, r1, #0
    50b0:	4798      	blx	r3
    50b2:	2800      	cmp	r0, #0
    50b4:	d008      	beq.n	50c8 <at_ble_notification_send+0x30>
    50b6:	6883      	ldr	r3, [r0, #8]
    50b8:	2b00      	cmp	r3, #0
    50ba:	d005      	beq.n	50c8 <at_ble_notification_send+0x30>
    50bc:	8882      	ldrh	r2, [r0, #4]
    50be:	1c21      	adds	r1, r4, #0
    50c0:	9200      	str	r2, [sp, #0]
    50c2:	2012      	movs	r0, #18
    50c4:	1c32      	adds	r2, r6, #0
    50c6:	e00c      	b.n	50e2 <at_ble_notification_send+0x4a>
    50c8:	270e      	movs	r7, #14
    50ca:	446f      	add	r7, sp
    50cc:	1c39      	adds	r1, r7, #0
    50ce:	aa04      	add	r2, sp, #16
    50d0:	4b0c      	ldr	r3, [pc, #48]	; (5104 <at_ble_notification_send+0x6c>)
    50d2:	1c20      	adds	r0, r4, #0
    50d4:	4798      	blx	r3
    50d6:	2012      	movs	r0, #18
    50d8:	1c21      	adds	r1, r4, #0
    50da:	1c32      	adds	r2, r6, #0
    50dc:	883b      	ldrh	r3, [r7, #0]
    50de:	9300      	str	r3, [sp, #0]
    50e0:	ab04      	add	r3, sp, #16
    50e2:	4c09      	ldr	r4, [pc, #36]	; (5108 <at_ble_notification_send+0x70>)
    50e4:	47a0      	blx	r4
    50e6:	682b      	ldr	r3, [r5, #0]
    50e8:	3301      	adds	r3, #1
    50ea:	602b      	str	r3, [r5, #0]
    50ec:	2300      	movs	r3, #0
    50ee:	1c18      	adds	r0, r3, #0
    50f0:	2385      	movs	r3, #133	; 0x85
    50f2:	009b      	lsls	r3, r3, #2
    50f4:	449d      	add	sp, r3
    50f6:	bdf0      	pop	{r4, r5, r6, r7, pc}
    50f8:	20000f80 	.word	0x20000f80
    50fc:	fffffdec 	.word	0xfffffdec
    5100:	000048b1 	.word	0x000048b1
    5104:	00007911 	.word	0x00007911
    5108:	0000730d 	.word	0x0000730d

0000510c <interface_event_timeout_timer_callback>:
    510c:	2201      	movs	r2, #1
    510e:	4b01      	ldr	r3, [pc, #4]	; (5114 <interface_event_timeout_timer_callback+0x8>)
    5110:	701a      	strb	r2, [r3, #0]
    5112:	4770      	bx	lr
    5114:	2000088e 	.word	0x2000088e

00005118 <interface_create_timer>:
    5118:	2200      	movs	r2, #0
    511a:	b510      	push	{r4, lr}
    511c:	230c      	movs	r3, #12
    511e:	4353      	muls	r3, r2
    5120:	4907      	ldr	r1, [pc, #28]	; (5140 <interface_create_timer+0x28>)
    5122:	585c      	ldr	r4, [r3, r1]
    5124:	2c00      	cmp	r4, #0
    5126:	d106      	bne.n	5136 <interface_create_timer+0x1e>
    5128:	2201      	movs	r2, #1
    512a:	505a      	str	r2, [r3, r1]
    512c:	18cb      	adds	r3, r1, r3
    512e:	6098      	str	r0, [r3, #8]
    5130:	605c      	str	r4, [r3, #4]
    5132:	1c18      	adds	r0, r3, #0
    5134:	e003      	b.n	513e <interface_create_timer+0x26>
    5136:	3201      	adds	r2, #1
    5138:	2a04      	cmp	r2, #4
    513a:	d1ef      	bne.n	511c <interface_create_timer+0x4>
    513c:	2000      	movs	r0, #0
    513e:	bd10      	pop	{r4, pc}
    5140:	20000890 	.word	0x20000890

00005144 <interface_timer_callback>:
    5144:	b5f7      	push	{r0, r1, r2, r4, r5, r6, r7, lr}
    5146:	4f17      	ldr	r7, [pc, #92]	; (51a4 <interface_timer_callback+0x60>)
    5148:	4e17      	ldr	r6, [pc, #92]	; (51a8 <interface_timer_callback+0x64>)
    514a:	683b      	ldr	r3, [r7, #0]
    514c:	6830      	ldr	r0, [r6, #0]
    514e:	689b      	ldr	r3, [r3, #8]
    5150:	2101      	movs	r1, #1
    5152:	4798      	blx	r3
    5154:	2300      	movs	r3, #0
    5156:	4d15      	ldr	r5, [pc, #84]	; (51ac <interface_timer_callback+0x68>)
    5158:	702b      	strb	r3, [r5, #0]
    515a:	4b15      	ldr	r3, [pc, #84]	; (51b0 <interface_timer_callback+0x6c>)
    515c:	1d1c      	adds	r4, r3, #4
    515e:	3334      	adds	r3, #52	; 0x34
    5160:	9301      	str	r3, [sp, #4]
    5162:	1f23      	subs	r3, r4, #4
    5164:	681b      	ldr	r3, [r3, #0]
    5166:	2b01      	cmp	r3, #1
    5168:	d10f      	bne.n	518a <interface_timer_callback+0x46>
    516a:	6823      	ldr	r3, [r4, #0]
    516c:	2b00      	cmp	r3, #0
    516e:	d00c      	beq.n	518a <interface_timer_callback+0x46>
    5170:	3b01      	subs	r3, #1
    5172:	6023      	str	r3, [r4, #0]
    5174:	2b00      	cmp	r3, #0
    5176:	d103      	bne.n	5180 <interface_timer_callback+0x3c>
    5178:	6863      	ldr	r3, [r4, #4]
    517a:	2b00      	cmp	r3, #0
    517c:	d000      	beq.n	5180 <interface_timer_callback+0x3c>
    517e:	4798      	blx	r3
    5180:	6823      	ldr	r3, [r4, #0]
    5182:	2b00      	cmp	r3, #0
    5184:	d001      	beq.n	518a <interface_timer_callback+0x46>
    5186:	2301      	movs	r3, #1
    5188:	702b      	strb	r3, [r5, #0]
    518a:	9b01      	ldr	r3, [sp, #4]
    518c:	340c      	adds	r4, #12
    518e:	429c      	cmp	r4, r3
    5190:	d1e7      	bne.n	5162 <interface_timer_callback+0x1e>
    5192:	782b      	ldrb	r3, [r5, #0]
    5194:	2b00      	cmp	r3, #0
    5196:	d103      	bne.n	51a0 <interface_timer_callback+0x5c>
    5198:	683b      	ldr	r3, [r7, #0]
    519a:	6830      	ldr	r0, [r6, #0]
    519c:	68db      	ldr	r3, [r3, #12]
    519e:	4798      	blx	r3
    51a0:	bdf7      	pop	{r0, r1, r2, r4, r5, r6, r7, pc}
    51a2:	46c0      	nop			; (mov r8, r8)
    51a4:	200008ec 	.word	0x200008ec
    51a8:	20000afc 	.word	0x20000afc
    51ac:	20000af2 	.word	0x20000af2
    51b0:	20000890 	.word	0x20000890

000051b4 <interface_start_timer.part.1>:
    51b4:	b508      	push	{r3, lr}
    51b6:	4b05      	ldr	r3, [pc, #20]	; (51cc <interface_start_timer.part.1+0x18>)
    51b8:	4a05      	ldr	r2, [pc, #20]	; (51d0 <interface_start_timer.part.1+0x1c>)
    51ba:	681b      	ldr	r3, [r3, #0]
    51bc:	6810      	ldr	r0, [r2, #0]
    51be:	689b      	ldr	r3, [r3, #8]
    51c0:	2101      	movs	r1, #1
    51c2:	4798      	blx	r3
    51c4:	2201      	movs	r2, #1
    51c6:	4b03      	ldr	r3, [pc, #12]	; (51d4 <interface_start_timer.part.1+0x20>)
    51c8:	701a      	strb	r2, [r3, #0]
    51ca:	bd08      	pop	{r3, pc}
    51cc:	200008ec 	.word	0x200008ec
    51d0:	20000afc 	.word	0x20000afc
    51d4:	20000af2 	.word	0x20000af2

000051d8 <interface_stop_timer>:
    51d8:	b508      	push	{r3, lr}
    51da:	2300      	movs	r3, #0
    51dc:	4a0c      	ldr	r2, [pc, #48]	; (5210 <interface_stop_timer+0x38>)
    51de:	6043      	str	r3, [r0, #4]
    51e0:	7013      	strb	r3, [r2, #0]
    51e2:	490c      	ldr	r1, [pc, #48]	; (5214 <interface_stop_timer+0x3c>)
    51e4:	5858      	ldr	r0, [r3, r1]
    51e6:	2801      	cmp	r0, #1
    51e8:	d105      	bne.n	51f6 <interface_stop_timer+0x1e>
    51ea:	18c9      	adds	r1, r1, r3
    51ec:	6849      	ldr	r1, [r1, #4]
    51ee:	2900      	cmp	r1, #0
    51f0:	d001      	beq.n	51f6 <interface_stop_timer+0x1e>
    51f2:	7010      	strb	r0, [r2, #0]
    51f4:	e002      	b.n	51fc <interface_stop_timer+0x24>
    51f6:	330c      	adds	r3, #12
    51f8:	2b30      	cmp	r3, #48	; 0x30
    51fa:	d1f2      	bne.n	51e2 <interface_stop_timer+0xa>
    51fc:	7813      	ldrb	r3, [r2, #0]
    51fe:	2b00      	cmp	r3, #0
    5200:	d105      	bne.n	520e <interface_stop_timer+0x36>
    5202:	4b05      	ldr	r3, [pc, #20]	; (5218 <interface_stop_timer+0x40>)
    5204:	4a05      	ldr	r2, [pc, #20]	; (521c <interface_stop_timer+0x44>)
    5206:	681b      	ldr	r3, [r3, #0]
    5208:	6810      	ldr	r0, [r2, #0]
    520a:	68db      	ldr	r3, [r3, #12]
    520c:	4798      	blx	r3
    520e:	bd08      	pop	{r3, pc}
    5210:	20000af2 	.word	0x20000af2
    5214:	20000890 	.word	0x20000890
    5218:	200008ec 	.word	0x200008ec
    521c:	20000afc 	.word	0x20000afc

00005220 <interface_check_and_assert_ext_wakeup>:
    5220:	b5f8      	push	{r3, r4, r5, r6, r7, lr}
    5222:	4e11      	ldr	r6, [pc, #68]	; (5268 <interface_check_and_assert_ext_wakeup+0x48>)
    5224:	1c07      	adds	r7, r0, #0
    5226:	7833      	ldrb	r3, [r6, #0]
    5228:	4c10      	ldr	r4, [pc, #64]	; (526c <interface_check_and_assert_ext_wakeup+0x4c>)
    522a:	2b00      	cmp	r3, #0
    522c:	d10e      	bne.n	524c <interface_check_and_assert_ext_wakeup+0x2c>
    522e:	2001      	movs	r0, #1
    5230:	4d0f      	ldr	r5, [pc, #60]	; (5270 <interface_check_and_assert_ext_wakeup+0x50>)
    5232:	1c01      	adds	r1, r0, #0
    5234:	682b      	ldr	r3, [r5, #0]
    5236:	695b      	ldr	r3, [r3, #20]
    5238:	4798      	blx	r3
    523a:	2301      	movs	r3, #1
    523c:	7033      	strb	r3, [r6, #0]
    523e:	429f      	cmp	r7, r3
    5240:	d107      	bne.n	5252 <interface_check_and_assert_ext_wakeup+0x32>
    5242:	682b      	ldr	r3, [r5, #0]
    5244:	2005      	movs	r0, #5
    5246:	691b      	ldr	r3, [r3, #16]
    5248:	4798      	blx	r3
    524a:	e002      	b.n	5252 <interface_check_and_assert_ext_wakeup+0x32>
    524c:	6820      	ldr	r0, [r4, #0]
    524e:	4b09      	ldr	r3, [pc, #36]	; (5274 <interface_check_and_assert_ext_wakeup+0x54>)
    5250:	4798      	blx	r3
    5252:	2205      	movs	r2, #5
    5254:	6823      	ldr	r3, [r4, #0]
    5256:	605a      	str	r2, [r3, #4]
    5258:	4b07      	ldr	r3, [pc, #28]	; (5278 <interface_check_and_assert_ext_wakeup+0x58>)
    525a:	781b      	ldrb	r3, [r3, #0]
    525c:	2b00      	cmp	r3, #0
    525e:	d101      	bne.n	5264 <interface_check_and_assert_ext_wakeup+0x44>
    5260:	4b06      	ldr	r3, [pc, #24]	; (527c <interface_check_and_assert_ext_wakeup+0x5c>)
    5262:	4798      	blx	r3
    5264:	bdf8      	pop	{r3, r4, r5, r6, r7, pc}
    5266:	46c0      	nop			; (mov r8, r8)
    5268:	200008dc 	.word	0x200008dc
    526c:	20000af4 	.word	0x20000af4
    5270:	200008ec 	.word	0x200008ec
    5274:	000051d9 	.word	0x000051d9
    5278:	20000af2 	.word	0x20000af2
    527c:	000051b5 	.word	0x000051b5

00005280 <interface_recv_async>:
    5280:	b538      	push	{r3, r4, r5, lr}
    5282:	4b11      	ldr	r3, [pc, #68]	; (52c8 <interface_recv_async+0x48>)
    5284:	1c04      	adds	r4, r0, #0
    5286:	2002      	movs	r0, #2
    5288:	4798      	blx	r3
    528a:	4b10      	ldr	r3, [pc, #64]	; (52cc <interface_recv_async+0x4c>)
    528c:	781a      	ldrb	r2, [r3, #0]
    528e:	2a02      	cmp	r2, #2
    5290:	d10d      	bne.n	52ae <interface_recv_async+0x2e>
    5292:	4d0f      	ldr	r5, [pc, #60]	; (52d0 <interface_recv_async+0x50>)
    5294:	4b0f      	ldr	r3, [pc, #60]	; (52d4 <interface_recv_async+0x54>)
    5296:	1c28      	adds	r0, r5, #0
    5298:	1c21      	adds	r1, r4, #0
    529a:	4798      	blx	r3
    529c:	1c28      	adds	r0, r5, #0
    529e:	4b0e      	ldr	r3, [pc, #56]	; (52d8 <interface_recv_async+0x58>)
    52a0:	4798      	blx	r3
    52a2:	2800      	cmp	r0, #0
    52a4:	d009      	beq.n	52ba <interface_recv_async+0x3a>
    52a6:	2201      	movs	r2, #1
    52a8:	4b0c      	ldr	r3, [pc, #48]	; (52dc <interface_recv_async+0x5c>)
    52aa:	701a      	strb	r2, [r3, #0]
    52ac:	e00a      	b.n	52c4 <interface_recv_async+0x44>
    52ae:	2a00      	cmp	r2, #0
    52b0:	d108      	bne.n	52c4 <interface_recv_async+0x44>
    52b2:	2c5a      	cmp	r4, #90	; 0x5a
    52b4:	d101      	bne.n	52ba <interface_recv_async+0x3a>
    52b6:	3201      	adds	r2, #1
    52b8:	701a      	strb	r2, [r3, #0]
    52ba:	4b09      	ldr	r3, [pc, #36]	; (52e0 <interface_recv_async+0x60>)
    52bc:	4809      	ldr	r0, [pc, #36]	; (52e4 <interface_recv_async+0x64>)
    52be:	681b      	ldr	r3, [r3, #0]
    52c0:	69db      	ldr	r3, [r3, #28]
    52c2:	4798      	blx	r3
    52c4:	bd38      	pop	{r3, r4, r5, pc}
    52c6:	46c0      	nop			; (mov r8, r8)
    52c8:	00005221 	.word	0x00005221
    52cc:	20000f84 	.word	0x20000f84
    52d0:	200008c8 	.word	0x200008c8
    52d4:	00007b95 	.word	0x00007b95
    52d8:	00007b5f 	.word	0x00007b5f
    52dc:	20000b00 	.word	0x20000b00
    52e0:	200008ec 	.word	0x200008ec
    52e4:	00005281 	.word	0x00005281

000052e8 <interface_bus_activity_timer_callback>:
    52e8:	b510      	push	{r4, lr}
    52ea:	4b0e      	ldr	r3, [pc, #56]	; (5324 <interface_bus_activity_timer_callback+0x3c>)
    52ec:	781b      	ldrb	r3, [r3, #0]
    52ee:	2b01      	cmp	r3, #1
    52f0:	d10d      	bne.n	530e <interface_bus_activity_timer_callback+0x26>
    52f2:	4c0d      	ldr	r4, [pc, #52]	; (5328 <interface_bus_activity_timer_callback+0x40>)
    52f4:	4b0d      	ldr	r3, [pc, #52]	; (532c <interface_bus_activity_timer_callback+0x44>)
    52f6:	6820      	ldr	r0, [r4, #0]
    52f8:	4798      	blx	r3
    52fa:	2205      	movs	r2, #5
    52fc:	6823      	ldr	r3, [r4, #0]
    52fe:	605a      	str	r2, [r3, #4]
    5300:	4b0b      	ldr	r3, [pc, #44]	; (5330 <interface_bus_activity_timer_callback+0x48>)
    5302:	781b      	ldrb	r3, [r3, #0]
    5304:	2b00      	cmp	r3, #0
    5306:	d10b      	bne.n	5320 <interface_bus_activity_timer_callback+0x38>
    5308:	4b0a      	ldr	r3, [pc, #40]	; (5334 <interface_bus_activity_timer_callback+0x4c>)
    530a:	4798      	blx	r3
    530c:	e008      	b.n	5320 <interface_bus_activity_timer_callback+0x38>
    530e:	4b0a      	ldr	r3, [pc, #40]	; (5338 <interface_bus_activity_timer_callback+0x50>)
    5310:	2001      	movs	r0, #1
    5312:	681b      	ldr	r3, [r3, #0]
    5314:	2100      	movs	r1, #0
    5316:	695b      	ldr	r3, [r3, #20]
    5318:	4798      	blx	r3
    531a:	2200      	movs	r2, #0
    531c:	4b07      	ldr	r3, [pc, #28]	; (533c <interface_bus_activity_timer_callback+0x54>)
    531e:	701a      	strb	r2, [r3, #0]
    5320:	bd10      	pop	{r4, pc}
    5322:	46c0      	nop			; (mov r8, r8)
    5324:	200008e4 	.word	0x200008e4
    5328:	20000af4 	.word	0x20000af4
    532c:	000051d9 	.word	0x000051d9
    5330:	20000af2 	.word	0x20000af2
    5334:	000051b5 	.word	0x000051b5
    5338:	200008ec 	.word	0x200008ec
    533c:	200008dc 	.word	0x200008dc

00005340 <interface_handle_received_data>:
    5340:	2300      	movs	r3, #0
    5342:	b5f0      	push	{r4, r5, r6, r7, lr}
    5344:	b087      	sub	sp, #28
    5346:	9300      	str	r3, [sp, #0]
    5348:	9301      	str	r3, [sp, #4]
    534a:	4c91      	ldr	r4, [pc, #580]	; (5590 <interface_handle_received_data+0x250>)
    534c:	4b91      	ldr	r3, [pc, #580]	; (5594 <interface_handle_received_data+0x254>)
    534e:	1c20      	adds	r0, r4, #0
    5350:	4798      	blx	r3
    5352:	1e07      	subs	r7, r0, #0
    5354:	d000      	beq.n	5358 <interface_handle_received_data+0x18>
    5356:	e118      	b.n	558a <interface_handle_received_data+0x24a>
    5358:	4d8f      	ldr	r5, [pc, #572]	; (5598 <interface_handle_received_data+0x258>)
    535a:	682e      	ldr	r6, [r5, #0]
    535c:	2e01      	cmp	r6, #1
    535e:	d024      	beq.n	53aa <interface_handle_received_data+0x6a>
    5360:	2e00      	cmp	r6, #0
    5362:	d003      	beq.n	536c <interface_handle_received_data+0x2c>
    5364:	2e02      	cmp	r6, #2
    5366:	d100      	bne.n	536a <interface_handle_received_data+0x2a>
    5368:	e0af      	b.n	54ca <interface_handle_received_data+0x18a>
    536a:	e7ee      	b.n	534a <interface_handle_received_data+0xa>
    536c:	ab04      	add	r3, sp, #16
    536e:	1ddf      	adds	r7, r3, #7
    5370:	1c20      	adds	r0, r4, #0
    5372:	4b8a      	ldr	r3, [pc, #552]	; (559c <interface_handle_received_data+0x25c>)
    5374:	1c39      	adds	r1, r7, #0
    5376:	4798      	blx	r3
    5378:	4b89      	ldr	r3, [pc, #548]	; (55a0 <interface_handle_received_data+0x260>)
    537a:	781a      	ldrb	r2, [r3, #0]
    537c:	2a01      	cmp	r2, #1
    537e:	d105      	bne.n	538c <interface_handle_received_data+0x4c>
    5380:	701e      	strb	r6, [r3, #0]
    5382:	4b88      	ldr	r3, [pc, #544]	; (55a4 <interface_handle_received_data+0x264>)
    5384:	4888      	ldr	r0, [pc, #544]	; (55a8 <interface_handle_received_data+0x268>)
    5386:	681b      	ldr	r3, [r3, #0]
    5388:	69db      	ldr	r3, [r3, #28]
    538a:	4798      	blx	r3
    538c:	783b      	ldrb	r3, [r7, #0]
    538e:	2b05      	cmp	r3, #5
    5390:	d101      	bne.n	5396 <interface_handle_received_data+0x56>
    5392:	3b04      	subs	r3, #4
    5394:	e002      	b.n	539c <interface_handle_received_data+0x5c>
    5396:	2b04      	cmp	r3, #4
    5398:	d101      	bne.n	539e <interface_handle_received_data+0x5e>
    539a:	3b02      	subs	r3, #2
    539c:	602b      	str	r3, [r5, #0]
    539e:	2201      	movs	r2, #1
    53a0:	4b82      	ldr	r3, [pc, #520]	; (55ac <interface_handle_received_data+0x26c>)
    53a2:	601a      	str	r2, [r3, #0]
    53a4:	2200      	movs	r2, #0
    53a6:	4b82      	ldr	r3, [pc, #520]	; (55b0 <interface_handle_received_data+0x270>)
    53a8:	e0be      	b.n	5528 <interface_handle_received_data+0x1e8>
    53aa:	4e80      	ldr	r6, [pc, #512]	; (55ac <interface_handle_received_data+0x26c>)
    53ac:	6833      	ldr	r3, [r6, #0]
    53ae:	2b01      	cmp	r3, #1
    53b0:	d002      	beq.n	53b8 <interface_handle_received_data+0x78>
    53b2:	2b02      	cmp	r3, #2
    53b4:	d03a      	beq.n	542c <interface_handle_received_data+0xec>
    53b6:	e7c8      	b.n	534a <interface_handle_received_data+0xa>
    53b8:	ab04      	add	r3, sp, #16
    53ba:	1dd9      	adds	r1, r3, #7
    53bc:	1c20      	adds	r0, r4, #0
    53be:	4b77      	ldr	r3, [pc, #476]	; (559c <interface_handle_received_data+0x25c>)
    53c0:	4798      	blx	r3
    53c2:	4b77      	ldr	r3, [pc, #476]	; (55a0 <interface_handle_received_data+0x260>)
    53c4:	781a      	ldrb	r2, [r3, #0]
    53c6:	2a01      	cmp	r2, #1
    53c8:	d105      	bne.n	53d6 <interface_handle_received_data+0x96>
    53ca:	701f      	strb	r7, [r3, #0]
    53cc:	4b75      	ldr	r3, [pc, #468]	; (55a4 <interface_handle_received_data+0x264>)
    53ce:	4876      	ldr	r0, [pc, #472]	; (55a8 <interface_handle_received_data+0x268>)
    53d0:	681b      	ldr	r3, [r3, #0]
    53d2:	69db      	ldr	r3, [r3, #28]
    53d4:	4798      	blx	r3
    53d6:	4b76      	ldr	r3, [pc, #472]	; (55b0 <interface_handle_received_data+0x270>)
    53d8:	a804      	add	r0, sp, #16
    53da:	8819      	ldrh	r1, [r3, #0]
    53dc:	79c0      	ldrb	r0, [r0, #7]
    53de:	1c4a      	adds	r2, r1, #1
    53e0:	b292      	uxth	r2, r2
    53e2:	801a      	strh	r2, [r3, #0]
    53e4:	4b73      	ldr	r3, [pc, #460]	; (55b4 <interface_handle_received_data+0x274>)
    53e6:	5458      	strb	r0, [r3, r1]
    53e8:	2a08      	cmp	r2, #8
    53ea:	d1ae      	bne.n	534a <interface_handle_received_data+0xa>
    53ec:	79df      	ldrb	r7, [r3, #7]
    53ee:	7819      	ldrb	r1, [r3, #0]
    53f0:	7858      	ldrb	r0, [r3, #1]
    53f2:	791a      	ldrb	r2, [r3, #4]
    53f4:	795c      	ldrb	r4, [r3, #5]
    53f6:	799b      	ldrb	r3, [r3, #6]
    53f8:	023f      	lsls	r7, r7, #8
    53fa:	433b      	orrs	r3, r7
    53fc:	9300      	str	r3, [sp, #0]
    53fe:	d113      	bne.n	5428 <interface_handle_received_data+0xe8>
    5400:	0206      	lsls	r6, r0, #8
    5402:	0224      	lsls	r4, r4, #8
    5404:	430e      	orrs	r6, r1
    5406:	4314      	orrs	r4, r2
    5408:	1c30      	adds	r0, r6, #0
    540a:	1c1a      	adds	r2, r3, #0
    540c:	1c21      	adds	r1, r4, #0
    540e:	4b6a      	ldr	r3, [pc, #424]	; (55b8 <interface_handle_received_data+0x278>)
    5410:	4798      	blx	r3
    5412:	2800      	cmp	r0, #0
    5414:	d105      	bne.n	5422 <interface_handle_received_data+0xe2>
    5416:	9a00      	ldr	r2, [sp, #0]
    5418:	1c21      	adds	r1, r4, #0
    541a:	1c30      	adds	r0, r6, #0
    541c:	1c13      	adds	r3, r2, #0
    541e:	4c67      	ldr	r4, [pc, #412]	; (55bc <interface_handle_received_data+0x27c>)
    5420:	47a0      	blx	r4
    5422:	2300      	movs	r3, #0
    5424:	602b      	str	r3, [r5, #0]
    5426:	e0ae      	b.n	5586 <interface_handle_received_data+0x246>
    5428:	2302      	movs	r3, #2
    542a:	e070      	b.n	550e <interface_handle_received_data+0x1ce>
    542c:	4b61      	ldr	r3, [pc, #388]	; (55b4 <interface_handle_received_data+0x274>)
    542e:	1c20      	adds	r0, r4, #0
    5430:	781a      	ldrb	r2, [r3, #0]
    5432:	785d      	ldrb	r5, [r3, #1]
    5434:	1c16      	adds	r6, r2, #0
    5436:	791a      	ldrb	r2, [r3, #4]
    5438:	9202      	str	r2, [sp, #8]
    543a:	795a      	ldrb	r2, [r3, #5]
    543c:	9203      	str	r2, [sp, #12]
    543e:	79da      	ldrb	r2, [r3, #7]
    5440:	799b      	ldrb	r3, [r3, #6]
    5442:	0212      	lsls	r2, r2, #8
    5444:	4313      	orrs	r3, r2
    5446:	9300      	str	r3, [sp, #0]
    5448:	ab04      	add	r3, sp, #16
    544a:	1dd9      	adds	r1, r3, #7
    544c:	4b53      	ldr	r3, [pc, #332]	; (559c <interface_handle_received_data+0x25c>)
    544e:	4798      	blx	r3
    5450:	4b53      	ldr	r3, [pc, #332]	; (55a0 <interface_handle_received_data+0x260>)
    5452:	781a      	ldrb	r2, [r3, #0]
    5454:	2a01      	cmp	r2, #1
    5456:	d105      	bne.n	5464 <interface_handle_received_data+0x124>
    5458:	701f      	strb	r7, [r3, #0]
    545a:	4b52      	ldr	r3, [pc, #328]	; (55a4 <interface_handle_received_data+0x264>)
    545c:	4852      	ldr	r0, [pc, #328]	; (55a8 <interface_handle_received_data+0x268>)
    545e:	681b      	ldr	r3, [r3, #0]
    5460:	69db      	ldr	r3, [r3, #28]
    5462:	4798      	blx	r3
    5464:	4956      	ldr	r1, [pc, #344]	; (55c0 <interface_handle_received_data+0x280>)
    5466:	aa04      	add	r2, sp, #16
    5468:	3207      	adds	r2, #7
    546a:	880b      	ldrh	r3, [r1, #0]
    546c:	7812      	ldrb	r2, [r2, #0]
    546e:	4f55      	ldr	r7, [pc, #340]	; (55c4 <interface_handle_received_data+0x284>)
    5470:	1c58      	adds	r0, r3, #1
    5472:	54fa      	strb	r2, [r7, r3]
    5474:	4a54      	ldr	r2, [pc, #336]	; (55c8 <interface_handle_received_data+0x288>)
    5476:	9c00      	ldr	r4, [sp, #0]
    5478:	8812      	ldrh	r2, [r2, #0]
    547a:	b280      	uxth	r0, r0
    547c:	8008      	strh	r0, [r1, #0]
    547e:	1a80      	subs	r0, r0, r2
    5480:	42a0      	cmp	r0, r4
    5482:	d000      	beq.n	5486 <interface_handle_received_data+0x146>
    5484:	e761      	b.n	534a <interface_handle_received_data+0xa>
    5486:	9803      	ldr	r0, [sp, #12]
    5488:	022d      	lsls	r5, r5, #8
    548a:	0204      	lsls	r4, r0, #8
    548c:	9802      	ldr	r0, [sp, #8]
    548e:	4335      	orrs	r5, r6
    5490:	4304      	orrs	r4, r0
    5492:	2000      	movs	r0, #0
    5494:	4684      	mov	ip, r0
    5496:	4666      	mov	r6, ip
    5498:	483f      	ldr	r0, [pc, #252]	; (5598 <interface_handle_received_data+0x258>)
    549a:	3304      	adds	r3, #4
    549c:	6006      	str	r6, [r0, #0]
    549e:	2003      	movs	r0, #3
    54a0:	4383      	bics	r3, r0
    54a2:	800b      	strh	r3, [r1, #0]
    54a4:	18ba      	adds	r2, r7, r2
    54a6:	4b44      	ldr	r3, [pc, #272]	; (55b8 <interface_handle_received_data+0x278>)
    54a8:	1c28      	adds	r0, r5, #0
    54aa:	1c21      	adds	r1, r4, #0
    54ac:	4798      	blx	r3
    54ae:	2301      	movs	r3, #1
    54b0:	9301      	str	r3, [sp, #4]
    54b2:	42b0      	cmp	r0, r6
    54b4:	d000      	beq.n	54b8 <interface_handle_received_data+0x178>
    54b6:	e748      	b.n	534a <interface_handle_received_data+0xa>
    54b8:	4b43      	ldr	r3, [pc, #268]	; (55c8 <interface_handle_received_data+0x288>)
    54ba:	1c21      	adds	r1, r4, #0
    54bc:	881a      	ldrh	r2, [r3, #0]
    54be:	1c28      	adds	r0, r5, #0
    54c0:	18ba      	adds	r2, r7, r2
    54c2:	9b00      	ldr	r3, [sp, #0]
    54c4:	4c3d      	ldr	r4, [pc, #244]	; (55bc <interface_handle_received_data+0x27c>)
    54c6:	47a0      	blx	r4
    54c8:	e73f      	b.n	534a <interface_handle_received_data+0xa>
    54ca:	4e38      	ldr	r6, [pc, #224]	; (55ac <interface_handle_received_data+0x26c>)
    54cc:	6833      	ldr	r3, [r6, #0]
    54ce:	2b01      	cmp	r3, #1
    54d0:	d002      	beq.n	54d8 <interface_handle_received_data+0x198>
    54d2:	2b02      	cmp	r3, #2
    54d4:	d02a      	beq.n	552c <interface_handle_received_data+0x1ec>
    54d6:	e738      	b.n	534a <interface_handle_received_data+0xa>
    54d8:	ab04      	add	r3, sp, #16
    54da:	1ddd      	adds	r5, r3, #7
    54dc:	1c20      	adds	r0, r4, #0
    54de:	4b2f      	ldr	r3, [pc, #188]	; (559c <interface_handle_received_data+0x25c>)
    54e0:	1c29      	adds	r1, r5, #0
    54e2:	4798      	blx	r3
    54e4:	4b2e      	ldr	r3, [pc, #184]	; (55a0 <interface_handle_received_data+0x260>)
    54e6:	781a      	ldrb	r2, [r3, #0]
    54e8:	2a01      	cmp	r2, #1
    54ea:	d105      	bne.n	54f8 <interface_handle_received_data+0x1b8>
    54ec:	701f      	strb	r7, [r3, #0]
    54ee:	4b2d      	ldr	r3, [pc, #180]	; (55a4 <interface_handle_received_data+0x264>)
    54f0:	482d      	ldr	r0, [pc, #180]	; (55a8 <interface_handle_received_data+0x268>)
    54f2:	681b      	ldr	r3, [r3, #0]
    54f4:	69db      	ldr	r3, [r3, #28]
    54f6:	4798      	blx	r3
    54f8:	492d      	ldr	r1, [pc, #180]	; (55b0 <interface_handle_received_data+0x270>)
    54fa:	7828      	ldrb	r0, [r5, #0]
    54fc:	880a      	ldrh	r2, [r1, #0]
    54fe:	1c53      	adds	r3, r2, #1
    5500:	b29b      	uxth	r3, r3
    5502:	800b      	strh	r3, [r1, #0]
    5504:	492b      	ldr	r1, [pc, #172]	; (55b4 <interface_handle_received_data+0x274>)
    5506:	5488      	strb	r0, [r1, r2]
    5508:	2b02      	cmp	r3, #2
    550a:	d000      	beq.n	550e <interface_handle_received_data+0x1ce>
    550c:	e71d      	b.n	534a <interface_handle_received_data+0xa>
    550e:	2280      	movs	r2, #128	; 0x80
    5510:	6033      	str	r3, [r6, #0]
    5512:	4b2b      	ldr	r3, [pc, #172]	; (55c0 <interface_handle_received_data+0x280>)
    5514:	00d2      	lsls	r2, r2, #3
    5516:	8819      	ldrh	r1, [r3, #0]
    5518:	1a52      	subs	r2, r2, r1
    551a:	9900      	ldr	r1, [sp, #0]
    551c:	428a      	cmp	r2, r1
    551e:	d201      	bcs.n	5524 <interface_handle_received_data+0x1e4>
    5520:	2200      	movs	r2, #0
    5522:	801a      	strh	r2, [r3, #0]
    5524:	881a      	ldrh	r2, [r3, #0]
    5526:	4b28      	ldr	r3, [pc, #160]	; (55c8 <interface_handle_received_data+0x288>)
    5528:	801a      	strh	r2, [r3, #0]
    552a:	e70e      	b.n	534a <interface_handle_received_data+0xa>
    552c:	4b21      	ldr	r3, [pc, #132]	; (55b4 <interface_handle_received_data+0x274>)
    552e:	1c20      	adds	r0, r4, #0
    5530:	785e      	ldrb	r6, [r3, #1]
    5532:	ab04      	add	r3, sp, #16
    5534:	1dd9      	adds	r1, r3, #7
    5536:	4b19      	ldr	r3, [pc, #100]	; (559c <interface_handle_received_data+0x25c>)
    5538:	4798      	blx	r3
    553a:	4b19      	ldr	r3, [pc, #100]	; (55a0 <interface_handle_received_data+0x260>)
    553c:	781a      	ldrb	r2, [r3, #0]
    553e:	2a01      	cmp	r2, #1
    5540:	d105      	bne.n	554e <interface_handle_received_data+0x20e>
    5542:	701f      	strb	r7, [r3, #0]
    5544:	4b17      	ldr	r3, [pc, #92]	; (55a4 <interface_handle_received_data+0x264>)
    5546:	4818      	ldr	r0, [pc, #96]	; (55a8 <interface_handle_received_data+0x268>)
    5548:	681b      	ldr	r3, [r3, #0]
    554a:	69db      	ldr	r3, [r3, #28]
    554c:	4798      	blx	r3
    554e:	491c      	ldr	r1, [pc, #112]	; (55c0 <interface_handle_received_data+0x280>)
    5550:	aa04      	add	r2, sp, #16
    5552:	3207      	adds	r2, #7
    5554:	880b      	ldrh	r3, [r1, #0]
    5556:	7812      	ldrb	r2, [r2, #0]
    5558:	481a      	ldr	r0, [pc, #104]	; (55c4 <interface_handle_received_data+0x284>)
    555a:	1c5c      	adds	r4, r3, #1
    555c:	54c2      	strb	r2, [r0, r3]
    555e:	4a1a      	ldr	r2, [pc, #104]	; (55c8 <interface_handle_received_data+0x288>)
    5560:	b2a4      	uxth	r4, r4
    5562:	8812      	ldrh	r2, [r2, #0]
    5564:	800c      	strh	r4, [r1, #0]
    5566:	1aa4      	subs	r4, r4, r2
    5568:	42b4      	cmp	r4, r6
    556a:	d000      	beq.n	556e <interface_handle_received_data+0x22e>
    556c:	e6ed      	b.n	534a <interface_handle_received_data+0xa>
    556e:	2400      	movs	r4, #0
    5570:	1882      	adds	r2, r0, r2
    5572:	20bb      	movs	r0, #187	; 0xbb
    5574:	602c      	str	r4, [r5, #0]
    5576:	3304      	adds	r3, #4
    5578:	3403      	adds	r4, #3
    557a:	43a3      	bics	r3, r4
    557c:	800b      	strh	r3, [r1, #0]
    557e:	4c0f      	ldr	r4, [pc, #60]	; (55bc <interface_handle_received_data+0x27c>)
    5580:	b2b3      	uxth	r3, r6
    5582:	1c01      	adds	r1, r0, #0
    5584:	47a0      	blx	r4
    5586:	2301      	movs	r3, #1
    5588:	e6de      	b.n	5348 <interface_handle_received_data+0x8>
    558a:	9801      	ldr	r0, [sp, #4]
    558c:	b007      	add	sp, #28
    558e:	bdf0      	pop	{r4, r5, r6, r7, pc}
    5590:	200008c8 	.word	0x200008c8
    5594:	00007b51 	.word	0x00007b51
    5598:	200008c4 	.word	0x200008c4
    559c:	00007b71 	.word	0x00007b71
    55a0:	20000b00 	.word	0x20000b00
    55a4:	200008ec 	.word	0x200008ec
    55a8:	00005281 	.word	0x00005281
    55ac:	20000880 	.word	0x20000880
    55b0:	200008f0 	.word	0x200008f0
    55b4:	20000886 	.word	0x20000886
    55b8:	00003b19 	.word	0x00003b19
    55bc:	00003aa5 	.word	0x00003aa5
    55c0:	200008c0 	.word	0x200008c0
    55c4:	20000b01 	.word	0x20000b01
    55c8:	20000884 	.word	0x20000884

000055cc <interface_send_sync>:
    55cc:	b5f8      	push	{r3, r4, r5, r6, r7, lr}
    55ce:	4b0d      	ldr	r3, [pc, #52]	; (5604 <interface_send_sync+0x38>)
    55d0:	1c07      	adds	r7, r0, #0
    55d2:	2001      	movs	r0, #1
    55d4:	1c0e      	adds	r6, r1, #0
    55d6:	4798      	blx	r3
    55d8:	2301      	movs	r3, #1
    55da:	4c0b      	ldr	r4, [pc, #44]	; (5608 <interface_send_sync+0x3c>)
    55dc:	4d0b      	ldr	r5, [pc, #44]	; (560c <interface_send_sync+0x40>)
    55de:	7023      	strb	r3, [r4, #0]
    55e0:	4b0b      	ldr	r3, [pc, #44]	; (5610 <interface_send_sync+0x44>)
    55e2:	781b      	ldrb	r3, [r3, #0]
    55e4:	2b02      	cmp	r3, #2
    55e6:	d104      	bne.n	55f2 <interface_send_sync+0x26>
    55e8:	682b      	ldr	r3, [r5, #0]
    55ea:	480a      	ldr	r0, [pc, #40]	; (5614 <interface_send_sync+0x48>)
    55ec:	699b      	ldr	r3, [r3, #24]
    55ee:	2103      	movs	r1, #3
    55f0:	4798      	blx	r3
    55f2:	682b      	ldr	r3, [r5, #0]
    55f4:	1c38      	adds	r0, r7, #0
    55f6:	1c31      	adds	r1, r6, #0
    55f8:	699b      	ldr	r3, [r3, #24]
    55fa:	4798      	blx	r3
    55fc:	2000      	movs	r0, #0
    55fe:	7020      	strb	r0, [r4, #0]
    5600:	bdf8      	pop	{r3, r4, r5, r6, r7, pc}
    5602:	46c0      	nop			; (mov r8, r8)
    5604:	00005221 	.word	0x00005221
    5608:	200008e4 	.word	0x200008e4
    560c:	200008ec 	.word	0x200008ec
    5610:	200008e5 	.word	0x200008e5
    5614:	00009e78 	.word	0x00009e78

00005618 <interface_init>:
    5618:	b57f      	push	{r0, r1, r2, r3, r4, r5, r6, lr}
    561a:	1c03      	adds	r3, r0, #0
    561c:	332c      	adds	r3, #44	; 0x2c
    561e:	781a      	ldrb	r2, [r3, #0]
    5620:	4b3f      	ldr	r3, [pc, #252]	; (5720 <interface_init+0x108>)
    5622:	1c04      	adds	r4, r0, #0
    5624:	701a      	strb	r2, [r3, #0]
    5626:	2280      	movs	r2, #128	; 0x80
    5628:	483e      	ldr	r0, [pc, #248]	; (5724 <interface_init+0x10c>)
    562a:	493f      	ldr	r1, [pc, #252]	; (5728 <interface_init+0x110>)
    562c:	0092      	lsls	r2, r2, #2
    562e:	4b3f      	ldr	r3, [pc, #252]	; (572c <interface_init+0x114>)
    5630:	4798      	blx	r3
    5632:	2800      	cmp	r0, #0
    5634:	d101      	bne.n	563a <interface_init+0x22>
    5636:	2540      	movs	r5, #64	; 0x40
    5638:	e06f      	b.n	571a <interface_init+0x102>
    563a:	4b3d      	ldr	r3, [pc, #244]	; (5730 <interface_init+0x118>)
    563c:	6820      	ldr	r0, [r4, #0]
    563e:	6861      	ldr	r1, [r4, #4]
    5640:	4798      	blx	r3
    5642:	1c23      	adds	r3, r4, #0
    5644:	4d3b      	ldr	r5, [pc, #236]	; (5734 <interface_init+0x11c>)
    5646:	3308      	adds	r3, #8
    5648:	602b      	str	r3, [r5, #0]
    564a:	68a3      	ldr	r3, [r4, #8]
    564c:	2b00      	cmp	r3, #0
    564e:	d0f2      	beq.n	5636 <interface_init+0x1e>
    5650:	6923      	ldr	r3, [r4, #16]
    5652:	2b00      	cmp	r3, #0
    5654:	d0ef      	beq.n	5636 <interface_init+0x1e>
    5656:	6963      	ldr	r3, [r4, #20]
    5658:	2b00      	cmp	r3, #0
    565a:	d0ec      	beq.n	5636 <interface_init+0x1e>
    565c:	69a3      	ldr	r3, [r4, #24]
    565e:	2b00      	cmp	r3, #0
    5660:	d0e9      	beq.n	5636 <interface_init+0x1e>
    5662:	69e3      	ldr	r3, [r4, #28]
    5664:	2b00      	cmp	r3, #0
    5666:	d0e6      	beq.n	5636 <interface_init+0x1e>
    5668:	6a22      	ldr	r2, [r4, #32]
    566a:	2a00      	cmp	r2, #0
    566c:	d0e3      	beq.n	5636 <interface_init+0x1e>
    566e:	6a62      	ldr	r2, [r4, #36]	; 0x24
    5670:	2a00      	cmp	r2, #0
    5672:	d0e0      	beq.n	5636 <interface_init+0x1e>
    5674:	6aa2      	ldr	r2, [r4, #40]	; 0x28
    5676:	2a00      	cmp	r2, #0
    5678:	d104      	bne.n	5684 <interface_init+0x6c>
    567a:	2202      	movs	r2, #2
    567c:	8da1      	ldrh	r1, [r4, #44]	; 0x2c
    567e:	32ff      	adds	r2, #255	; 0xff
    5680:	4291      	cmp	r1, r2
    5682:	d0d8      	beq.n	5636 <interface_init+0x1e>
    5684:	2001      	movs	r0, #1
    5686:	1c01      	adds	r1, r0, #0
    5688:	4798      	blx	r3
    568a:	2000      	movs	r0, #0
    568c:	682b      	ldr	r3, [r5, #0]
    568e:	1c01      	adds	r1, r0, #0
    5690:	695b      	ldr	r3, [r3, #20]
    5692:	4798      	blx	r3
    5694:	682b      	ldr	r3, [r5, #0]
    5696:	2032      	movs	r0, #50	; 0x32
    5698:	691b      	ldr	r3, [r3, #16]
    569a:	4798      	blx	r3
    569c:	682b      	ldr	r3, [r5, #0]
    569e:	2101      	movs	r1, #1
    56a0:	695b      	ldr	r3, [r3, #20]
    56a2:	2000      	movs	r0, #0
    56a4:	4798      	blx	r3
    56a6:	682b      	ldr	r3, [r5, #0]
    56a8:	4823      	ldr	r0, [pc, #140]	; (5738 <interface_init+0x120>)
    56aa:	691b      	ldr	r3, [r3, #16]
    56ac:	4798      	blx	r3
    56ae:	682b      	ldr	r3, [r5, #0]
    56b0:	4822      	ldr	r0, [pc, #136]	; (573c <interface_init+0x124>)
    56b2:	69db      	ldr	r3, [r3, #28]
    56b4:	4798      	blx	r3
    56b6:	682b      	ldr	r3, [r5, #0]
    56b8:	4821      	ldr	r0, [pc, #132]	; (5740 <interface_init+0x128>)
    56ba:	681b      	ldr	r3, [r3, #0]
    56bc:	4798      	blx	r3
    56be:	4b21      	ldr	r3, [pc, #132]	; (5744 <interface_init+0x12c>)
    56c0:	6018      	str	r0, [r3, #0]
    56c2:	2800      	cmp	r0, #0
    56c4:	d101      	bne.n	56ca <interface_init+0xb2>
    56c6:	25e2      	movs	r5, #226	; 0xe2
    56c8:	e027      	b.n	571a <interface_init+0x102>
    56ca:	4e1f      	ldr	r6, [pc, #124]	; (5748 <interface_init+0x130>)
    56cc:	4d1f      	ldr	r5, [pc, #124]	; (574c <interface_init+0x134>)
    56ce:	1c30      	adds	r0, r6, #0
    56d0:	47a8      	blx	r5
    56d2:	4b1f      	ldr	r3, [pc, #124]	; (5750 <interface_init+0x138>)
    56d4:	6018      	str	r0, [r3, #0]
    56d6:	2800      	cmp	r0, #0
    56d8:	d0f5      	beq.n	56c6 <interface_init+0xae>
    56da:	1c30      	adds	r0, r6, #0
    56dc:	47a8      	blx	r5
    56de:	4b1d      	ldr	r3, [pc, #116]	; (5754 <interface_init+0x13c>)
    56e0:	6018      	str	r0, [r3, #0]
    56e2:	2800      	cmp	r0, #0
    56e4:	d0ef      	beq.n	56c6 <interface_init+0xae>
    56e6:	481c      	ldr	r0, [pc, #112]	; (5758 <interface_init+0x140>)
    56e8:	47a8      	blx	r5
    56ea:	4b1c      	ldr	r3, [pc, #112]	; (575c <interface_init+0x144>)
    56ec:	6018      	str	r0, [r3, #0]
    56ee:	2800      	cmp	r0, #0
    56f0:	d0e9      	beq.n	56c6 <interface_init+0xae>
    56f2:	4b1b      	ldr	r3, [pc, #108]	; (5760 <interface_init+0x148>)
    56f4:	4798      	blx	r3
    56f6:	1c20      	adds	r0, r4, #0
    56f8:	4b1a      	ldr	r3, [pc, #104]	; (5764 <interface_init+0x14c>)
    56fa:	4798      	blx	r3
    56fc:	1e05      	subs	r5, r0, #0
    56fe:	d10c      	bne.n	571a <interface_init+0x102>
    5700:	466b      	mov	r3, sp
    5702:	2201      	movs	r2, #1
    5704:	1ddc      	adds	r4, r3, #7
    5706:	1c20      	adds	r0, r4, #0
    5708:	a902      	add	r1, sp, #8
    570a:	4252      	negs	r2, r2
    570c:	4b16      	ldr	r3, [pc, #88]	; (5768 <interface_init+0x150>)
    570e:	4798      	blx	r3
    5710:	2800      	cmp	r0, #0
    5712:	d102      	bne.n	571a <interface_init+0x102>
    5714:	7823      	ldrb	r3, [r4, #0]
    5716:	2b39      	cmp	r3, #57	; 0x39
    5718:	d1f2      	bne.n	5700 <interface_init+0xe8>
    571a:	1c28      	adds	r0, r5, #0
    571c:	b004      	add	sp, #16
    571e:	bd70      	pop	{r4, r5, r6, pc}
    5720:	200008e5 	.word	0x200008e5
    5724:	200008c8 	.word	0x200008c8
    5728:	200008f2 	.word	0x200008f2
    572c:	00007b31 	.word	0x00007b31
    5730:	00004e8d 	.word	0x00004e8d
    5734:	200008ec 	.word	0x200008ec
    5738:	00000bb8 	.word	0x00000bb8
    573c:	00005281 	.word	0x00005281
    5740:	00005145 	.word	0x00005145
    5744:	20000afc 	.word	0x20000afc
    5748:	0000510d 	.word	0x0000510d
    574c:	00005119 	.word	0x00005119
    5750:	200008e0 	.word	0x200008e0
    5754:	200008e8 	.word	0x200008e8
    5758:	000052e9 	.word	0x000052e9
    575c:	20000af4 	.word	0x20000af4
    5760:	00003ae1 	.word	0x00003ae1
    5764:	000079fd 	.word	0x000079fd
    5768:	00003bc1 	.word	0x00003bc1

0000576c <interface_event_timeout_start_timer>:
    576c:	b508      	push	{r3, lr}
    576e:	4b05      	ldr	r3, [pc, #20]	; (5784 <interface_event_timeout_start_timer+0x18>)
    5770:	681b      	ldr	r3, [r3, #0]
    5772:	6058      	str	r0, [r3, #4]
    5774:	4b04      	ldr	r3, [pc, #16]	; (5788 <interface_event_timeout_start_timer+0x1c>)
    5776:	781b      	ldrb	r3, [r3, #0]
    5778:	2b00      	cmp	r3, #0
    577a:	d101      	bne.n	5780 <interface_event_timeout_start_timer+0x14>
    577c:	4b03      	ldr	r3, [pc, #12]	; (578c <interface_event_timeout_start_timer+0x20>)
    577e:	4798      	blx	r3
    5780:	bd08      	pop	{r3, pc}
    5782:	46c0      	nop			; (mov r8, r8)
    5784:	200008e0 	.word	0x200008e0
    5788:	20000af2 	.word	0x20000af2
    578c:	000051b5 	.word	0x000051b5

00005790 <interface_event_timeout_stop_timer>:
    5790:	b508      	push	{r3, lr}
    5792:	4b02      	ldr	r3, [pc, #8]	; (579c <interface_event_timeout_stop_timer+0xc>)
    5794:	6818      	ldr	r0, [r3, #0]
    5796:	4b02      	ldr	r3, [pc, #8]	; (57a0 <interface_event_timeout_stop_timer+0x10>)
    5798:	4798      	blx	r3
    579a:	bd08      	pop	{r3, pc}
    579c:	200008e0 	.word	0x200008e0
    57a0:	000051d9 	.word	0x000051d9

000057a4 <interface_cmd_cmpl_timeout_start_timer>:
    57a4:	b508      	push	{r3, lr}
    57a6:	4b05      	ldr	r3, [pc, #20]	; (57bc <interface_cmd_cmpl_timeout_start_timer+0x18>)
    57a8:	681b      	ldr	r3, [r3, #0]
    57aa:	6058      	str	r0, [r3, #4]
    57ac:	4b04      	ldr	r3, [pc, #16]	; (57c0 <interface_cmd_cmpl_timeout_start_timer+0x1c>)
    57ae:	781b      	ldrb	r3, [r3, #0]
    57b0:	2b00      	cmp	r3, #0
    57b2:	d101      	bne.n	57b8 <interface_cmd_cmpl_timeout_start_timer+0x14>
    57b4:	4b03      	ldr	r3, [pc, #12]	; (57c4 <interface_cmd_cmpl_timeout_start_timer+0x20>)
    57b6:	4798      	blx	r3
    57b8:	bd08      	pop	{r3, pc}
    57ba:	46c0      	nop			; (mov r8, r8)
    57bc:	200008e8 	.word	0x200008e8
    57c0:	20000af2 	.word	0x20000af2
    57c4:	000051b5 	.word	0x000051b5

000057c8 <interface_cmd_cmpl_timeout_stop_timer>:
    57c8:	b508      	push	{r3, lr}
    57ca:	4b02      	ldr	r3, [pc, #8]	; (57d4 <interface_cmd_cmpl_timeout_stop_timer+0xc>)
    57cc:	6818      	ldr	r0, [r3, #0]
    57ce:	4b02      	ldr	r3, [pc, #8]	; (57d8 <interface_cmd_cmpl_timeout_stop_timer+0x10>)
    57d0:	4798      	blx	r3
    57d2:	bd08      	pop	{r3, pc}
    57d4:	200008e8 	.word	0x200008e8
    57d8:	000051d9 	.word	0x000051d9

000057dc <interface_cmd_cmpl_signal>:
    57dc:	2201      	movs	r2, #1
    57de:	4b01      	ldr	r3, [pc, #4]	; (57e4 <interface_cmd_cmpl_signal+0x8>)
    57e0:	701a      	strb	r2, [r3, #0]
    57e2:	4770      	bx	lr
    57e4:	20000af8 	.word	0x20000af8

000057e8 <interface_event_wait>:
    57e8:	b508      	push	{r3, lr}
    57ea:	4b0e      	ldr	r3, [pc, #56]	; (5824 <interface_event_wait+0x3c>)
    57ec:	4798      	blx	r3
    57ee:	4b0e      	ldr	r3, [pc, #56]	; (5828 <interface_event_wait+0x40>)
    57f0:	2800      	cmp	r0, #0
    57f2:	d107      	bne.n	5804 <interface_event_wait+0x1c>
    57f4:	4a0d      	ldr	r2, [pc, #52]	; (582c <interface_event_wait+0x44>)
    57f6:	7812      	ldrb	r2, [r2, #0]
    57f8:	2a01      	cmp	r2, #1
    57fa:	d005      	beq.n	5808 <interface_event_wait+0x20>
    57fc:	781a      	ldrb	r2, [r3, #0]
    57fe:	2a01      	cmp	r2, #1
    5800:	d1f3      	bne.n	57ea <interface_event_wait+0x2>
    5802:	e001      	b.n	5808 <interface_event_wait+0x20>
    5804:	2801      	cmp	r0, #1
    5806:	d002      	beq.n	580e <interface_event_wait+0x26>
    5808:	781a      	ldrb	r2, [r3, #0]
    580a:	2a01      	cmp	r2, #1
    580c:	d102      	bne.n	5814 <interface_event_wait+0x2c>
    580e:	2000      	movs	r0, #0
    5810:	7018      	strb	r0, [r3, #0]
    5812:	e005      	b.n	5820 <interface_event_wait+0x38>
    5814:	4b05      	ldr	r3, [pc, #20]	; (582c <interface_event_wait+0x44>)
    5816:	2000      	movs	r0, #0
    5818:	781b      	ldrb	r3, [r3, #0]
    581a:	2b01      	cmp	r3, #1
    581c:	d100      	bne.n	5820 <interface_event_wait+0x38>
    581e:	30d0      	adds	r0, #208	; 0xd0
    5820:	bd08      	pop	{r3, pc}
    5822:	46c0      	nop			; (mov r8, r8)
    5824:	00005341 	.word	0x00005341
    5828:	2000085c 	.word	0x2000085c
    582c:	2000088e 	.word	0x2000088e

00005830 <interface_cmd_cmpl_wait>:
    5830:	b538      	push	{r3, r4, r5, lr}
    5832:	20fa      	movs	r0, #250	; 0xfa
    5834:	2400      	movs	r4, #0
    5836:	4b0a      	ldr	r3, [pc, #40]	; (5860 <interface_cmd_cmpl_wait+0x30>)
    5838:	0100      	lsls	r0, r0, #4
    583a:	701c      	strb	r4, [r3, #0]
    583c:	4b09      	ldr	r3, [pc, #36]	; (5864 <interface_cmd_cmpl_wait+0x34>)
    583e:	4798      	blx	r3
    5840:	4b09      	ldr	r3, [pc, #36]	; (5868 <interface_cmd_cmpl_wait+0x38>)
    5842:	781a      	ldrb	r2, [r3, #0]
    5844:	1c1d      	adds	r5, r3, #0
    5846:	2a01      	cmp	r2, #1
    5848:	d004      	beq.n	5854 <interface_cmd_cmpl_wait+0x24>
    584a:	4b08      	ldr	r3, [pc, #32]	; (586c <interface_cmd_cmpl_wait+0x3c>)
    584c:	4798      	blx	r3
    584e:	1e04      	subs	r4, r0, #0
    5850:	2cd0      	cmp	r4, #208	; 0xd0
    5852:	d1f5      	bne.n	5840 <interface_cmd_cmpl_wait+0x10>
    5854:	4b06      	ldr	r3, [pc, #24]	; (5870 <interface_cmd_cmpl_wait+0x40>)
    5856:	4798      	blx	r3
    5858:	2300      	movs	r3, #0
    585a:	1c20      	adds	r0, r4, #0
    585c:	702b      	strb	r3, [r5, #0]
    585e:	bd38      	pop	{r3, r4, r5, pc}
    5860:	2000088e 	.word	0x2000088e
    5864:	000057a5 	.word	0x000057a5
    5868:	20000af8 	.word	0x20000af8
    586c:	000057e9 	.word	0x000057e9
    5870:	000057c9 	.word	0x000057c9

00005874 <l2cc_data_send_rsp_handler>:
    5874:	b510      	push	{r4, lr}
    5876:	7802      	ldrb	r2, [r0, #0]
    5878:	700a      	strb	r2, [r1, #0]
    587a:	7883      	ldrb	r3, [r0, #2]
    587c:	7844      	ldrb	r4, [r0, #1]
    587e:	021b      	lsls	r3, r3, #8
    5880:	4323      	orrs	r3, r4
    5882:	804b      	strh	r3, [r1, #2]
    5884:	7903      	ldrb	r3, [r0, #4]
    5886:	78c0      	ldrb	r0, [r0, #3]
    5888:	021b      	lsls	r3, r3, #8
    588a:	4303      	orrs	r3, r0
    588c:	808b      	strh	r3, [r1, #4]
    588e:	2a00      	cmp	r2, #0
    5890:	d103      	bne.n	589a <l2cc_data_send_rsp_handler+0x26>
    5892:	4a02      	ldr	r2, [pc, #8]	; (589c <l2cc_data_send_rsp_handler+0x28>)
    5894:	7813      	ldrb	r3, [r2, #0]
    5896:	3301      	adds	r3, #1
    5898:	7013      	strb	r3, [r2, #0]
    589a:	bd10      	pop	{r4, pc}
    589c:	200000eb 	.word	0x200000eb

000058a0 <l2cc_data_received_handler>:
    58a0:	b508      	push	{r3, lr}
    58a2:	1c03      	adds	r3, r0, #0
    58a4:	7842      	ldrb	r2, [r0, #1]
    58a6:	7800      	ldrb	r0, [r0, #0]
    58a8:	0212      	lsls	r2, r2, #8
    58aa:	4302      	orrs	r2, r0
    58ac:	800a      	strh	r2, [r1, #0]
    58ae:	78da      	ldrb	r2, [r3, #3]
    58b0:	7898      	ldrb	r0, [r3, #2]
    58b2:	0212      	lsls	r2, r2, #8
    58b4:	4302      	orrs	r2, r0
    58b6:	804a      	strh	r2, [r1, #2]
    58b8:	795a      	ldrb	r2, [r3, #5]
    58ba:	7918      	ldrb	r0, [r3, #4]
    58bc:	0212      	lsls	r2, r2, #8
    58be:	4302      	orrs	r2, r0
    58c0:	808a      	strh	r2, [r1, #4]
    58c2:	1d88      	adds	r0, r1, #6
    58c4:	1d99      	adds	r1, r3, #6
    58c6:	4b01      	ldr	r3, [pc, #4]	; (58cc <l2cc_data_received_handler+0x2c>)
    58c8:	4798      	blx	r3
    58ca:	bd08      	pop	{r3, pc}
    58cc:	00007dbf 	.word	0x00007dbf

000058d0 <check_enc_process.isra.0>:
    58d0:	b5f7      	push	{r0, r1, r2, r4, r5, r6, r7, lr}
    58d2:	1c07      	adds	r7, r0, #0
    58d4:	1c0e      	adds	r6, r1, #0
    58d6:	1e15      	subs	r5, r2, #0
    58d8:	9301      	str	r3, [sp, #4]
    58da:	2d05      	cmp	r5, #5
    58dc:	d82e      	bhi.n	593c <check_enc_process.isra.0+0x6c>
    58de:	2401      	movs	r4, #1
    58e0:	1c22      	adds	r2, r4, #0
    58e2:	2333      	movs	r3, #51	; 0x33
    58e4:	40aa      	lsls	r2, r5
    58e6:	421a      	tst	r2, r3
    58e8:	d028      	beq.n	593c <check_enc_process.isra.0+0x6c>
    58ea:	780b      	ldrb	r3, [r1, #0]
    58ec:	3b07      	subs	r3, #7
    58ee:	2b09      	cmp	r3, #9
    58f0:	d90a      	bls.n	5908 <check_enc_process.isra.0+0x38>
    58f2:	4c19      	ldr	r4, [pc, #100]	; (5958 <check_enc_process.isra.0+0x88>)
    58f4:	4919      	ldr	r1, [pc, #100]	; (595c <check_enc_process.isra.0+0x8c>)
    58f6:	4b1a      	ldr	r3, [pc, #104]	; (5960 <check_enc_process.isra.0+0x90>)
    58f8:	481a      	ldr	r0, [pc, #104]	; (5964 <check_enc_process.isra.0+0x94>)
    58fa:	22f1      	movs	r2, #241	; 0xf1
    58fc:	6825      	ldr	r5, [r4, #0]
    58fe:	47a8      	blx	r5
    5900:	7831      	ldrb	r1, [r6, #0]
    5902:	6823      	ldr	r3, [r4, #0]
    5904:	4818      	ldr	r0, [pc, #96]	; (5968 <check_enc_process.isra.0+0x98>)
    5906:	e023      	b.n	5950 <check_enc_process.isra.0+0x80>
    5908:	9b01      	ldr	r3, [sp, #4]
    590a:	2b00      	cmp	r3, #0
    590c:	d101      	bne.n	5912 <check_enc_process.isra.0+0x42>
    590e:	2000      	movs	r0, #0
    5910:	e020      	b.n	5954 <check_enc_process.isra.0+0x84>
    5912:	4b16      	ldr	r3, [pc, #88]	; (596c <check_enc_process.isra.0+0x9c>)
    5914:	1c38      	adds	r0, r7, #0
    5916:	2100      	movs	r1, #0
    5918:	4798      	blx	r3
    591a:	9b01      	ldr	r3, [sp, #4]
    591c:	7018      	strb	r0, [r3, #0]
    591e:	2807      	cmp	r0, #7
    5920:	d9f5      	bls.n	590e <check_enc_process.isra.0+0x3e>
    5922:	4d0d      	ldr	r5, [pc, #52]	; (5958 <check_enc_process.isra.0+0x88>)
    5924:	490d      	ldr	r1, [pc, #52]	; (595c <check_enc_process.isra.0+0x8c>)
    5926:	22fa      	movs	r2, #250	; 0xfa
    5928:	4b0d      	ldr	r3, [pc, #52]	; (5960 <check_enc_process.isra.0+0x90>)
    592a:	480e      	ldr	r0, [pc, #56]	; (5964 <check_enc_process.isra.0+0x94>)
    592c:	682e      	ldr	r6, [r5, #0]
    592e:	47b0      	blx	r6
    5930:	682b      	ldr	r3, [r5, #0]
    5932:	480f      	ldr	r0, [pc, #60]	; (5970 <check_enc_process.isra.0+0xa0>)
    5934:	1c39      	adds	r1, r7, #0
    5936:	4798      	blx	r3
    5938:	1c20      	adds	r0, r4, #0
    593a:	e00b      	b.n	5954 <check_enc_process.isra.0+0x84>
    593c:	4c06      	ldr	r4, [pc, #24]	; (5958 <check_enc_process.isra.0+0x88>)
    593e:	4907      	ldr	r1, [pc, #28]	; (595c <check_enc_process.isra.0+0x8c>)
    5940:	4b07      	ldr	r3, [pc, #28]	; (5960 <check_enc_process.isra.0+0x90>)
    5942:	4808      	ldr	r0, [pc, #32]	; (5964 <check_enc_process.isra.0+0x94>)
    5944:	22ec      	movs	r2, #236	; 0xec
    5946:	6826      	ldr	r6, [r4, #0]
    5948:	47b0      	blx	r6
    594a:	1c29      	adds	r1, r5, #0
    594c:	6823      	ldr	r3, [r4, #0]
    594e:	4809      	ldr	r0, [pc, #36]	; (5974 <check_enc_process.isra.0+0xa4>)
    5950:	4798      	blx	r3
    5952:	20cf      	movs	r0, #207	; 0xcf
    5954:	bdfe      	pop	{r1, r2, r3, r4, r5, r6, r7, pc}
    5956:	46c0      	nop			; (mov r8, r8)
    5958:	200000ec 	.word	0x200000ec
    595c:	00009eb6 	.word	0x00009eb6
    5960:	00009fe8 	.word	0x00009fe8
    5964:	00009a19 	.word	0x00009a19
    5968:	00009ee0 	.word	0x00009ee0
    596c:	0000600d 	.word	0x0000600d
    5970:	00009ef6 	.word	0x00009ef6
    5974:	00009d0a 	.word	0x00009d0a

00005978 <at_ble_authenticate>:
    5978:	b5f0      	push	{r4, r5, r6, r7, lr}
    597a:	1c0c      	adds	r4, r1, #0
    597c:	211f      	movs	r1, #31
    597e:	b08b      	sub	sp, #44	; 0x2c
    5980:	9307      	str	r3, [sp, #28]
    5982:	ab02      	add	r3, sp, #8
    5984:	18c9      	adds	r1, r1, r3
    5986:	230f      	movs	r3, #15
    5988:	700b      	strb	r3, [r1, #0]
    598a:	4b6b      	ldr	r3, [pc, #428]	; (5b38 <at_ble_authenticate+0x1c0>)
    598c:	1c05      	adds	r5, r0, #0
    598e:	1c16      	adds	r6, r2, #0
    5990:	4798      	blx	r3
    5992:	1e07      	subs	r7, r0, #0
    5994:	2f07      	cmp	r7, #7
    5996:	d90b      	bls.n	59b0 <at_ble_authenticate+0x38>
    5998:	4c68      	ldr	r4, [pc, #416]	; (5b3c <at_ble_authenticate+0x1c4>)
    599a:	4969      	ldr	r1, [pc, #420]	; (5b40 <at_ble_authenticate+0x1c8>)
    599c:	221a      	movs	r2, #26
    599e:	4b69      	ldr	r3, [pc, #420]	; (5b44 <at_ble_authenticate+0x1cc>)
    59a0:	4869      	ldr	r0, [pc, #420]	; (5b48 <at_ble_authenticate+0x1d0>)
    59a2:	6825      	ldr	r5, [r4, #0]
    59a4:	47a8      	blx	r5
    59a6:	6823      	ldr	r3, [r4, #0]
    59a8:	4868      	ldr	r0, [pc, #416]	; (5b4c <at_ble_authenticate+0x1d4>)
    59aa:	4798      	blx	r3
    59ac:	2001      	movs	r0, #1
    59ae:	e0c0      	b.n	5b32 <at_ble_authenticate+0x1ba>
    59b0:	2c00      	cmp	r4, #0
    59b2:	d11b      	bne.n	59ec <at_ble_authenticate+0x74>
    59b4:	2312      	movs	r3, #18
    59b6:	435f      	muls	r7, r3
    59b8:	4b65      	ldr	r3, [pc, #404]	; (5b50 <at_ble_authenticate+0x1d8>)
    59ba:	5cfb      	ldrb	r3, [r7, r3]
    59bc:	2b01      	cmp	r3, #1
    59be:	d10b      	bne.n	59d8 <at_ble_authenticate+0x60>
    59c0:	9504      	str	r5, [sp, #16]
    59c2:	9400      	str	r4, [sp, #0]
    59c4:	9401      	str	r4, [sp, #4]
    59c6:	9402      	str	r4, [sp, #8]
    59c8:	9403      	str	r4, [sp, #12]
    59ca:	1c20      	adds	r0, r4, #0
    59cc:	1c21      	adds	r1, r4, #0
    59ce:	1c22      	adds	r2, r4, #0
    59d0:	1c23      	adds	r3, r4, #0
    59d2:	4d60      	ldr	r5, [pc, #384]	; (5b54 <at_ble_authenticate+0x1dc>)
    59d4:	47a8      	blx	r5
    59d6:	e07b      	b.n	5ad0 <at_ble_authenticate+0x158>
    59d8:	4c58      	ldr	r4, [pc, #352]	; (5b3c <at_ble_authenticate+0x1c4>)
    59da:	4b5a      	ldr	r3, [pc, #360]	; (5b44 <at_ble_authenticate+0x1cc>)
    59dc:	485a      	ldr	r0, [pc, #360]	; (5b48 <at_ble_authenticate+0x1d0>)
    59de:	4958      	ldr	r1, [pc, #352]	; (5b40 <at_ble_authenticate+0x1c8>)
    59e0:	2229      	movs	r2, #41	; 0x29
    59e2:	6825      	ldr	r5, [r4, #0]
    59e4:	47a8      	blx	r5
    59e6:	6823      	ldr	r3, [r4, #0]
    59e8:	485b      	ldr	r0, [pc, #364]	; (5b58 <at_ble_authenticate+0x1e0>)
    59ea:	e0a0      	b.n	5b2e <at_ble_authenticate+0x1b6>
    59ec:	7922      	ldrb	r2, [r4, #4]
    59ee:	2a06      	cmp	r2, #6
    59f0:	d904      	bls.n	59fc <at_ble_authenticate+0x84>
    59f2:	7963      	ldrb	r3, [r4, #5]
    59f4:	2b10      	cmp	r3, #16
    59f6:	d801      	bhi.n	59fc <at_ble_authenticate+0x84>
    59f8:	429a      	cmp	r2, r3
    59fa:	d909      	bls.n	5a10 <at_ble_authenticate+0x98>
    59fc:	4c4f      	ldr	r4, [pc, #316]	; (5b3c <at_ble_authenticate+0x1c4>)
    59fe:	4b51      	ldr	r3, [pc, #324]	; (5b44 <at_ble_authenticate+0x1cc>)
    5a00:	4851      	ldr	r0, [pc, #324]	; (5b48 <at_ble_authenticate+0x1d0>)
    5a02:	494f      	ldr	r1, [pc, #316]	; (5b40 <at_ble_authenticate+0x1c8>)
    5a04:	2232      	movs	r2, #50	; 0x32
    5a06:	6825      	ldr	r5, [r4, #0]
    5a08:	47a8      	blx	r5
    5a0a:	6823      	ldr	r3, [r4, #0]
    5a0c:	4853      	ldr	r0, [pc, #332]	; (5b5c <at_ble_authenticate+0x1e4>)
    5a0e:	e08e      	b.n	5b2e <at_ble_authenticate+0x1b6>
    5a10:	7a23      	ldrb	r3, [r4, #8]
    5a12:	2b04      	cmp	r3, #4
    5a14:	d909      	bls.n	5a2a <at_ble_authenticate+0xb2>
    5a16:	4c49      	ldr	r4, [pc, #292]	; (5b3c <at_ble_authenticate+0x1c4>)
    5a18:	4b4a      	ldr	r3, [pc, #296]	; (5b44 <at_ble_authenticate+0x1cc>)
    5a1a:	484b      	ldr	r0, [pc, #300]	; (5b48 <at_ble_authenticate+0x1d0>)
    5a1c:	4948      	ldr	r1, [pc, #288]	; (5b40 <at_ble_authenticate+0x1c8>)
    5a1e:	2239      	movs	r2, #57	; 0x39
    5a20:	6825      	ldr	r5, [r4, #0]
    5a22:	47a8      	blx	r5
    5a24:	6823      	ldr	r3, [r4, #0]
    5a26:	484e      	ldr	r0, [pc, #312]	; (5b60 <at_ble_authenticate+0x1e8>)
    5a28:	e081      	b.n	5b2e <at_ble_authenticate+0x1b6>
    5a2a:	79a3      	ldrb	r3, [r4, #6]
    5a2c:	2b07      	cmp	r3, #7
    5a2e:	d802      	bhi.n	5a36 <at_ble_authenticate+0xbe>
    5a30:	79e3      	ldrb	r3, [r4, #7]
    5a32:	2b07      	cmp	r3, #7
    5a34:	d909      	bls.n	5a4a <at_ble_authenticate+0xd2>
    5a36:	4c41      	ldr	r4, [pc, #260]	; (5b3c <at_ble_authenticate+0x1c4>)
    5a38:	4b42      	ldr	r3, [pc, #264]	; (5b44 <at_ble_authenticate+0x1cc>)
    5a3a:	4843      	ldr	r0, [pc, #268]	; (5b48 <at_ble_authenticate+0x1d0>)
    5a3c:	4940      	ldr	r1, [pc, #256]	; (5b40 <at_ble_authenticate+0x1c8>)
    5a3e:	2241      	movs	r2, #65	; 0x41
    5a40:	6825      	ldr	r5, [r4, #0]
    5a42:	47a8      	blx	r5
    5a44:	6823      	ldr	r3, [r4, #0]
    5a46:	4847      	ldr	r0, [pc, #284]	; (5b64 <at_ble_authenticate+0x1ec>)
    5a48:	e071      	b.n	5b2e <at_ble_authenticate+0x1b6>
    5a4a:	78a3      	ldrb	r3, [r4, #2]
    5a4c:	2b00      	cmp	r3, #0
    5a4e:	d010      	beq.n	5a72 <at_ble_authenticate+0xfa>
    5a50:	2e00      	cmp	r6, #0
    5a52:	d109      	bne.n	5a68 <at_ble_authenticate+0xf0>
    5a54:	4c39      	ldr	r4, [pc, #228]	; (5b3c <at_ble_authenticate+0x1c4>)
    5a56:	4b3b      	ldr	r3, [pc, #236]	; (5b44 <at_ble_authenticate+0x1cc>)
    5a58:	483b      	ldr	r0, [pc, #236]	; (5b48 <at_ble_authenticate+0x1d0>)
    5a5a:	4939      	ldr	r1, [pc, #228]	; (5b40 <at_ble_authenticate+0x1c8>)
    5a5c:	2249      	movs	r2, #73	; 0x49
    5a5e:	6825      	ldr	r5, [r4, #0]
    5a60:	47a8      	blx	r5
    5a62:	6823      	ldr	r3, [r4, #0]
    5a64:	4840      	ldr	r0, [pc, #256]	; (5b68 <at_ble_authenticate+0x1f0>)
    5a66:	e062      	b.n	5b2e <at_ble_authenticate+0x1b6>
    5a68:	4840      	ldr	r0, [pc, #256]	; (5b6c <at_ble_authenticate+0x1f4>)
    5a6a:	1c31      	adds	r1, r6, #0
    5a6c:	221c      	movs	r2, #28
    5a6e:	4b40      	ldr	r3, [pc, #256]	; (5b70 <at_ble_authenticate+0x1f8>)
    5a70:	4798      	blx	r3
    5a72:	9b07      	ldr	r3, [sp, #28]
    5a74:	2b00      	cmp	r3, #0
    5a76:	d005      	beq.n	5a84 <at_ble_authenticate+0x10c>
    5a78:	483e      	ldr	r0, [pc, #248]	; (5b74 <at_ble_authenticate+0x1fc>)
    5a7a:	1c19      	adds	r1, r3, #0
    5a7c:	309a      	adds	r0, #154	; 0x9a
    5a7e:	2210      	movs	r2, #16
    5a80:	4b3b      	ldr	r3, [pc, #236]	; (5b70 <at_ble_authenticate+0x1f8>)
    5a82:	4798      	blx	r3
    5a84:	7863      	ldrb	r3, [r4, #1]
    5a86:	78a2      	ldrb	r2, [r4, #2]
    5a88:	009b      	lsls	r3, r3, #2
    5a8a:	4313      	orrs	r3, r2
    5a8c:	2212      	movs	r2, #18
    5a8e:	4357      	muls	r7, r2
    5a90:	4a2f      	ldr	r2, [pc, #188]	; (5b50 <at_ble_authenticate+0x1d8>)
    5a92:	b2db      	uxtb	r3, r3
    5a94:	5cba      	ldrb	r2, [r7, r2]
    5a96:	2a00      	cmp	r2, #0
    5a98:	d11c      	bne.n	5ad4 <at_ble_authenticate+0x15c>
    5a9a:	79a0      	ldrb	r0, [r4, #6]
    5a9c:	0742      	lsls	r2, r0, #29
    5a9e:	d502      	bpl.n	5aa6 <at_ble_authenticate+0x12e>
    5aa0:	9a07      	ldr	r2, [sp, #28]
    5aa2:	2a00      	cmp	r2, #0
    5aa4:	d003      	beq.n	5aae <at_ble_authenticate+0x136>
    5aa6:	07c2      	lsls	r2, r0, #31
    5aa8:	d506      	bpl.n	5ab8 <at_ble_authenticate+0x140>
    5aaa:	2e00      	cmp	r6, #0
    5aac:	d104      	bne.n	5ab8 <at_ble_authenticate+0x140>
    5aae:	4c23      	ldr	r4, [pc, #140]	; (5b3c <at_ble_authenticate+0x1c4>)
    5ab0:	4825      	ldr	r0, [pc, #148]	; (5b48 <at_ble_authenticate+0x1d0>)
    5ab2:	4923      	ldr	r1, [pc, #140]	; (5b40 <at_ble_authenticate+0x1c8>)
    5ab4:	2260      	movs	r2, #96	; 0x60
    5ab6:	e01d      	b.n	5af4 <at_ble_authenticate+0x17c>
    5ab8:	7966      	ldrb	r6, [r4, #5]
    5aba:	7821      	ldrb	r1, [r4, #0]
    5abc:	78e2      	ldrb	r2, [r4, #3]
    5abe:	9600      	str	r6, [sp, #0]
    5ac0:	9001      	str	r0, [sp, #4]
    5ac2:	79e0      	ldrb	r0, [r4, #7]
    5ac4:	9002      	str	r0, [sp, #8]
    5ac6:	7a20      	ldrb	r0, [r4, #8]
    5ac8:	4c2b      	ldr	r4, [pc, #172]	; (5b78 <at_ble_authenticate+0x200>)
    5aca:	9003      	str	r0, [sp, #12]
    5acc:	1c28      	adds	r0, r5, #0
    5ace:	47a0      	blx	r4
    5ad0:	2000      	movs	r0, #0
    5ad2:	e02e      	b.n	5b32 <at_ble_authenticate+0x1ba>
    5ad4:	2a01      	cmp	r2, #1
    5ad6:	d121      	bne.n	5b1c <at_ble_authenticate+0x1a4>
    5ad8:	79e0      	ldrb	r0, [r4, #7]
    5ada:	0742      	lsls	r2, r0, #29
    5adc:	d502      	bpl.n	5ae4 <at_ble_authenticate+0x16c>
    5ade:	9a07      	ldr	r2, [sp, #28]
    5ae0:	2a00      	cmp	r2, #0
    5ae2:	d003      	beq.n	5aec <at_ble_authenticate+0x174>
    5ae4:	07c2      	lsls	r2, r0, #31
    5ae6:	d50b      	bpl.n	5b00 <at_ble_authenticate+0x188>
    5ae8:	2e00      	cmp	r6, #0
    5aea:	d109      	bne.n	5b00 <at_ble_authenticate+0x188>
    5aec:	226e      	movs	r2, #110	; 0x6e
    5aee:	4c13      	ldr	r4, [pc, #76]	; (5b3c <at_ble_authenticate+0x1c4>)
    5af0:	4815      	ldr	r0, [pc, #84]	; (5b48 <at_ble_authenticate+0x1d0>)
    5af2:	4913      	ldr	r1, [pc, #76]	; (5b40 <at_ble_authenticate+0x1c8>)
    5af4:	4b13      	ldr	r3, [pc, #76]	; (5b44 <at_ble_authenticate+0x1cc>)
    5af6:	6825      	ldr	r5, [r4, #0]
    5af8:	47a8      	blx	r5
    5afa:	6823      	ldr	r3, [r4, #0]
    5afc:	481f      	ldr	r0, [pc, #124]	; (5b7c <at_ble_authenticate+0x204>)
    5afe:	e016      	b.n	5b2e <at_ble_authenticate+0x1b6>
    5b00:	7966      	ldrb	r6, [r4, #5]
    5b02:	7821      	ldrb	r1, [r4, #0]
    5b04:	78e2      	ldrb	r2, [r4, #3]
    5b06:	9600      	str	r6, [sp, #0]
    5b08:	79a6      	ldrb	r6, [r4, #6]
    5b0a:	9002      	str	r0, [sp, #8]
    5b0c:	9601      	str	r6, [sp, #4]
    5b0e:	7a20      	ldrb	r0, [r4, #8]
    5b10:	9504      	str	r5, [sp, #16]
    5b12:	9003      	str	r0, [sp, #12]
    5b14:	4c0f      	ldr	r4, [pc, #60]	; (5b54 <at_ble_authenticate+0x1dc>)
    5b16:	2001      	movs	r0, #1
    5b18:	47a0      	blx	r4
    5b1a:	e7d9      	b.n	5ad0 <at_ble_authenticate+0x158>
    5b1c:	4c07      	ldr	r4, [pc, #28]	; (5b3c <at_ble_authenticate+0x1c4>)
    5b1e:	4b09      	ldr	r3, [pc, #36]	; (5b44 <at_ble_authenticate+0x1cc>)
    5b20:	4809      	ldr	r0, [pc, #36]	; (5b48 <at_ble_authenticate+0x1d0>)
    5b22:	4907      	ldr	r1, [pc, #28]	; (5b40 <at_ble_authenticate+0x1c8>)
    5b24:	2279      	movs	r2, #121	; 0x79
    5b26:	6825      	ldr	r5, [r4, #0]
    5b28:	47a8      	blx	r5
    5b2a:	6823      	ldr	r3, [r4, #0]
    5b2c:	4814      	ldr	r0, [pc, #80]	; (5b80 <at_ble_authenticate+0x208>)
    5b2e:	4798      	blx	r3
    5b30:	20cf      	movs	r0, #207	; 0xcf
    5b32:	b00b      	add	sp, #44	; 0x2c
    5b34:	bdf0      	pop	{r4, r5, r6, r7, pc}
    5b36:	46c0      	nop			; (mov r8, r8)
    5b38:	0000600d 	.word	0x0000600d
    5b3c:	200000ec 	.word	0x200000ec
    5b40:	00009eb6 	.word	0x00009eb6
    5b44:	0000a012 	.word	0x0000a012
    5b48:	00009a19 	.word	0x00009a19
    5b4c:	00009f07 	.word	0x00009f07
    5b50:	20001a6c 	.word	0x20001a6c
    5b54:	0000662d 	.word	0x0000662d
    5b58:	00009f1d 	.word	0x00009f1d
    5b5c:	00009f2f 	.word	0x00009f2f
    5b60:	00009f42 	.word	0x00009f42
    5b64:	00009f59 	.word	0x00009f59
    5b68:	00009f6d 	.word	0x00009f6d
    5b6c:	20001b7a 	.word	0x20001b7a
    5b70:	00007dbf 	.word	0x00007dbf
    5b74:	20001afc 	.word	0x20001afc
    5b78:	000063fd 	.word	0x000063fd
    5b7c:	00009f83 	.word	0x00009f83
    5b80:	00009f97 	.word	0x00009f97

00005b84 <at_ble_pair_key_reply>:
    5b84:	b5f0      	push	{r4, r5, r6, r7, lr}
    5b86:	b085      	sub	sp, #20
    5b88:	1c05      	adds	r5, r0, #0
    5b8a:	1c0c      	adds	r4, r1, #0
    5b8c:	1c16      	adds	r6, r2, #0
    5b8e:	2100      	movs	r1, #0
    5b90:	4668      	mov	r0, sp
    5b92:	2210      	movs	r2, #16
    5b94:	4b1e      	ldr	r3, [pc, #120]	; (5c10 <at_ble_pair_key_reply+0x8c>)
    5b96:	4798      	blx	r3
    5b98:	2101      	movs	r1, #1
    5b9a:	2e00      	cmp	r6, #0
    5b9c:	d101      	bne.n	5ba2 <at_ble_pair_key_reply+0x1e>
    5b9e:	1c31      	adds	r1, r6, #0
    5ba0:	466e      	mov	r6, sp
    5ba2:	2c00      	cmp	r4, #0
    5ba4:	d116      	bne.n	5bd4 <at_ble_pair_key_reply+0x50>
    5ba6:	2701      	movs	r7, #1
    5ba8:	1c23      	adds	r3, r4, #0
    5baa:	1d70      	adds	r0, r6, #5
    5bac:	3e01      	subs	r6, #1
    5bae:	7802      	ldrb	r2, [r0, #0]
    5bb0:	3801      	subs	r0, #1
    5bb2:	3a30      	subs	r2, #48	; 0x30
    5bb4:	437a      	muls	r2, r7
    5bb6:	189b      	adds	r3, r3, r2
    5bb8:	220a      	movs	r2, #10
    5bba:	4357      	muls	r7, r2
    5bbc:	42b0      	cmp	r0, r6
    5bbe:	d1f6      	bne.n	5bae <at_ble_pair_key_reply+0x2a>
    5bc0:	466a      	mov	r2, sp
    5bc2:	4668      	mov	r0, sp
    5bc4:	7013      	strb	r3, [r2, #0]
    5bc6:	0a1a      	lsrs	r2, r3, #8
    5bc8:	7042      	strb	r2, [r0, #1]
    5bca:	0c1a      	lsrs	r2, r3, #16
    5bcc:	0e1b      	lsrs	r3, r3, #24
    5bce:	7082      	strb	r2, [r0, #2]
    5bd0:	70c3      	strb	r3, [r0, #3]
    5bd2:	e015      	b.n	5c00 <at_ble_pair_key_reply+0x7c>
    5bd4:	2c01      	cmp	r4, #1
    5bd6:	d107      	bne.n	5be8 <at_ble_pair_key_reply+0x64>
    5bd8:	2300      	movs	r3, #0
    5bda:	4668      	mov	r0, sp
    5bdc:	5cf2      	ldrb	r2, [r6, r3]
    5bde:	54c2      	strb	r2, [r0, r3]
    5be0:	3301      	adds	r3, #1
    5be2:	2b10      	cmp	r3, #16
    5be4:	d1f9      	bne.n	5bda <at_ble_pair_key_reply+0x56>
    5be6:	e00b      	b.n	5c00 <at_ble_pair_key_reply+0x7c>
    5be8:	4c0a      	ldr	r4, [pc, #40]	; (5c14 <at_ble_pair_key_reply+0x90>)
    5bea:	490b      	ldr	r1, [pc, #44]	; (5c18 <at_ble_pair_key_reply+0x94>)
    5bec:	22ac      	movs	r2, #172	; 0xac
    5bee:	4b0b      	ldr	r3, [pc, #44]	; (5c1c <at_ble_pair_key_reply+0x98>)
    5bf0:	480b      	ldr	r0, [pc, #44]	; (5c20 <at_ble_pair_key_reply+0x9c>)
    5bf2:	6825      	ldr	r5, [r4, #0]
    5bf4:	47a8      	blx	r5
    5bf6:	6823      	ldr	r3, [r4, #0]
    5bf8:	480a      	ldr	r0, [pc, #40]	; (5c24 <at_ble_pair_key_reply+0xa0>)
    5bfa:	4798      	blx	r3
    5bfc:	20cf      	movs	r0, #207	; 0xcf
    5bfe:	e005      	b.n	5c0c <at_ble_pair_key_reply+0x88>
    5c00:	2004      	movs	r0, #4
    5c02:	466a      	mov	r2, sp
    5c04:	1c2b      	adds	r3, r5, #0
    5c06:	4c08      	ldr	r4, [pc, #32]	; (5c28 <at_ble_pair_key_reply+0xa4>)
    5c08:	47a0      	blx	r4
    5c0a:	2000      	movs	r0, #0
    5c0c:	b005      	add	sp, #20
    5c0e:	bdf0      	pop	{r4, r5, r6, r7, pc}
    5c10:	00007dd1 	.word	0x00007dd1
    5c14:	200000ec 	.word	0x200000ec
    5c18:	00009eb6 	.word	0x00009eb6
    5c1c:	00009ea0 	.word	0x00009ea0
    5c20:	00009a19 	.word	0x00009a19
    5c24:	00009faa 	.word	0x00009faa
    5c28:	000066b1 	.word	0x000066b1

00005c2c <at_ble_encryption_start>:
    5c2c:	b5f0      	push	{r4, r5, r6, r7, lr}
    5c2e:	260f      	movs	r6, #15
    5c30:	b087      	sub	sp, #28
    5c32:	ab02      	add	r3, sp, #8
    5c34:	18f6      	adds	r6, r6, r3
    5c36:	2308      	movs	r3, #8
    5c38:	1c07      	adds	r7, r0, #0
    5c3a:	1e0c      	subs	r4, r1, #0
    5c3c:	9203      	str	r2, [sp, #12]
    5c3e:	7033      	strb	r3, [r6, #0]
    5c40:	d02f      	beq.n	5ca2 <at_ble_encryption_start+0x76>
    5c42:	4d20      	ldr	r5, [pc, #128]	; (5cc4 <at_ble_encryption_start+0x98>)
    5c44:	311a      	adds	r1, #26
    5c46:	1c33      	adds	r3, r6, #0
    5c48:	47a8      	blx	r5
    5c4a:	1e05      	subs	r5, r0, #0
    5c4c:	d12a      	bne.n	5ca4 <at_ble_encryption_start+0x78>
    5c4e:	2212      	movs	r2, #18
    5c50:	7833      	ldrb	r3, [r6, #0]
    5c52:	4353      	muls	r3, r2
    5c54:	4a1c      	ldr	r2, [pc, #112]	; (5cc8 <at_ble_encryption_start+0x9c>)
    5c56:	5c9b      	ldrb	r3, [r3, r2]
    5c58:	2b00      	cmp	r3, #0
    5c5a:	d011      	beq.n	5c80 <at_ble_encryption_start+0x54>
    5c5c:	2216      	movs	r2, #22
    5c5e:	4c1b      	ldr	r4, [pc, #108]	; (5ccc <at_ble_encryption_start+0xa0>)
    5c60:	491b      	ldr	r1, [pc, #108]	; (5cd0 <at_ble_encryption_start+0xa4>)
    5c62:	32ff      	adds	r2, #255	; 0xff
    5c64:	4b1b      	ldr	r3, [pc, #108]	; (5cd4 <at_ble_encryption_start+0xa8>)
    5c66:	6825      	ldr	r5, [r4, #0]
    5c68:	481b      	ldr	r0, [pc, #108]	; (5cd8 <at_ble_encryption_start+0xac>)
    5c6a:	47a8      	blx	r5
    5c6c:	2212      	movs	r2, #18
    5c6e:	7833      	ldrb	r3, [r6, #0]
    5c70:	481a      	ldr	r0, [pc, #104]	; (5cdc <at_ble_encryption_start+0xb0>)
    5c72:	4353      	muls	r3, r2
    5c74:	4a14      	ldr	r2, [pc, #80]	; (5cc8 <at_ble_encryption_start+0x9c>)
    5c76:	25e0      	movs	r5, #224	; 0xe0
    5c78:	5c99      	ldrb	r1, [r3, r2]
    5c7a:	6823      	ldr	r3, [r4, #0]
    5c7c:	4798      	blx	r3
    5c7e:	e011      	b.n	5ca4 <at_ble_encryption_start+0x78>
    5c80:	1c21      	adds	r1, r4, #0
    5c82:	221c      	movs	r2, #28
    5c84:	4b16      	ldr	r3, [pc, #88]	; (5ce0 <at_ble_encryption_start+0xb4>)
    5c86:	4817      	ldr	r0, [pc, #92]	; (5ce4 <at_ble_encryption_start+0xb8>)
    5c88:	4798      	blx	r3
    5c8a:	1c23      	adds	r3, r4, #0
    5c8c:	7ea1      	ldrb	r1, [r4, #26]
    5c8e:	8a22      	ldrh	r2, [r4, #16]
    5c90:	9100      	str	r1, [sp, #0]
    5c92:	9903      	ldr	r1, [sp, #12]
    5c94:	3312      	adds	r3, #18
    5c96:	9101      	str	r1, [sp, #4]
    5c98:	1c38      	adds	r0, r7, #0
    5c9a:	1c21      	adds	r1, r4, #0
    5c9c:	4c12      	ldr	r4, [pc, #72]	; (5ce8 <at_ble_encryption_start+0xbc>)
    5c9e:	47a0      	blx	r4
    5ca0:	e00c      	b.n	5cbc <at_ble_encryption_start+0x90>
    5ca2:	25cf      	movs	r5, #207	; 0xcf
    5ca4:	228f      	movs	r2, #143	; 0x8f
    5ca6:	4c09      	ldr	r4, [pc, #36]	; (5ccc <at_ble_encryption_start+0xa0>)
    5ca8:	4909      	ldr	r1, [pc, #36]	; (5cd0 <at_ble_encryption_start+0xa4>)
    5caa:	4b0a      	ldr	r3, [pc, #40]	; (5cd4 <at_ble_encryption_start+0xa8>)
    5cac:	480a      	ldr	r0, [pc, #40]	; (5cd8 <at_ble_encryption_start+0xac>)
    5cae:	0052      	lsls	r2, r2, #1
    5cb0:	6826      	ldr	r6, [r4, #0]
    5cb2:	47b0      	blx	r6
    5cb4:	6823      	ldr	r3, [r4, #0]
    5cb6:	480d      	ldr	r0, [pc, #52]	; (5cec <at_ble_encryption_start+0xc0>)
    5cb8:	1c29      	adds	r1, r5, #0
    5cba:	4798      	blx	r3
    5cbc:	1c28      	adds	r0, r5, #0
    5cbe:	b007      	add	sp, #28
    5cc0:	bdf0      	pop	{r4, r5, r6, r7, pc}
    5cc2:	46c0      	nop			; (mov r8, r8)
    5cc4:	000058d1 	.word	0x000058d1
    5cc8:	20001a6c 	.word	0x20001a6c
    5ccc:	200000ec 	.word	0x200000ec
    5cd0:	00009eb6 	.word	0x00009eb6
    5cd4:	00009ffa 	.word	0x00009ffa
    5cd8:	00009a19 	.word	0x00009a19
    5cdc:	00009fd8 	.word	0x00009fd8
    5ce0:	00007dbf 	.word	0x00007dbf
    5ce4:	20001b7a 	.word	0x20001b7a
    5ce8:	00006709 	.word	0x00006709
    5cec:	00009b0e 	.word	0x00009b0e

00005cf0 <at_ble_encryption_request_reply>:
    5cf0:	b5f0      	push	{r4, r5, r6, r7, lr}
    5cf2:	b085      	sub	sp, #20
    5cf4:	1c06      	adds	r6, r0, #0
    5cf6:	9103      	str	r1, [sp, #12]
    5cf8:	1c17      	adds	r7, r2, #0
    5cfa:	1e1d      	subs	r5, r3, #0
    5cfc:	d014      	beq.n	5d28 <at_ble_encryption_request_reply+0x38>
    5cfe:	2a00      	cmp	r2, #0
    5d00:	d109      	bne.n	5d16 <at_ble_encryption_request_reply+0x26>
    5d02:	7eab      	ldrb	r3, [r5, #26]
    5d04:	4c10      	ldr	r4, [pc, #64]	; (5d48 <at_ble_encryption_request_reply+0x58>)
    5d06:	9300      	str	r3, [sp, #0]
    5d08:	1c30      	adds	r0, r6, #0
    5d0a:	9903      	ldr	r1, [sp, #12]
    5d0c:	1c3a      	adds	r2, r7, #0
    5d0e:	1c2b      	adds	r3, r5, #0
    5d10:	47a0      	blx	r4
    5d12:	2400      	movs	r4, #0
    5d14:	e015      	b.n	5d42 <at_ble_encryption_request_reply+0x52>
    5d16:	1c19      	adds	r1, r3, #0
    5d18:	4c0c      	ldr	r4, [pc, #48]	; (5d4c <at_ble_encryption_request_reply+0x5c>)
    5d1a:	311a      	adds	r1, #26
    5d1c:	9a03      	ldr	r2, [sp, #12]
    5d1e:	2300      	movs	r3, #0
    5d20:	47a0      	blx	r4
    5d22:	1e04      	subs	r4, r0, #0
    5d24:	d0ed      	beq.n	5d02 <at_ble_encryption_request_reply+0x12>
    5d26:	e000      	b.n	5d2a <at_ble_encryption_request_reply+0x3a>
    5d28:	24cf      	movs	r4, #207	; 0xcf
    5d2a:	2238      	movs	r2, #56	; 0x38
    5d2c:	4d08      	ldr	r5, [pc, #32]	; (5d50 <at_ble_encryption_request_reply+0x60>)
    5d2e:	4909      	ldr	r1, [pc, #36]	; (5d54 <at_ble_encryption_request_reply+0x64>)
    5d30:	4b09      	ldr	r3, [pc, #36]	; (5d58 <at_ble_encryption_request_reply+0x68>)
    5d32:	480a      	ldr	r0, [pc, #40]	; (5d5c <at_ble_encryption_request_reply+0x6c>)
    5d34:	32ff      	adds	r2, #255	; 0xff
    5d36:	682e      	ldr	r6, [r5, #0]
    5d38:	47b0      	blx	r6
    5d3a:	682b      	ldr	r3, [r5, #0]
    5d3c:	4808      	ldr	r0, [pc, #32]	; (5d60 <at_ble_encryption_request_reply+0x70>)
    5d3e:	1c21      	adds	r1, r4, #0
    5d40:	4798      	blx	r3
    5d42:	1c20      	adds	r0, r4, #0
    5d44:	b005      	add	sp, #20
    5d46:	bdf0      	pop	{r4, r5, r6, r7, pc}
    5d48:	000067c5 	.word	0x000067c5
    5d4c:	000058d1 	.word	0x000058d1
    5d50:	200000ec 	.word	0x200000ec
    5d54:	00009eb6 	.word	0x00009eb6
    5d58:	00009e80 	.word	0x00009e80
    5d5c:	00009a19 	.word	0x00009a19
    5d60:	00009b0e 	.word	0x00009b0e

00005d64 <patchFuncAndVars>:
    5d64:	b538      	push	{r3, r4, r5, lr}
    5d66:	1c05      	adds	r5, r0, #0
    5d68:	4c27      	ldr	r4, [pc, #156]	; (5e08 <patchFuncAndVars+0xa4>)
    5d6a:	4828      	ldr	r0, [pc, #160]	; (5e0c <patchFuncAndVars+0xa8>)
    5d6c:	4928      	ldr	r1, [pc, #160]	; (5e10 <patchFuncAndVars+0xac>)
    5d6e:	47a0      	blx	r4
    5d70:	4828      	ldr	r0, [pc, #160]	; (5e14 <patchFuncAndVars+0xb0>)
    5d72:	4929      	ldr	r1, [pc, #164]	; (5e18 <patchFuncAndVars+0xb4>)
    5d74:	47a0      	blx	r4
    5d76:	4829      	ldr	r0, [pc, #164]	; (5e1c <patchFuncAndVars+0xb8>)
    5d78:	4929      	ldr	r1, [pc, #164]	; (5e20 <patchFuncAndVars+0xbc>)
    5d7a:	47a0      	blx	r4
    5d7c:	4829      	ldr	r0, [pc, #164]	; (5e24 <patchFuncAndVars+0xc0>)
    5d7e:	492a      	ldr	r1, [pc, #168]	; (5e28 <patchFuncAndVars+0xc4>)
    5d80:	47a0      	blx	r4
    5d82:	482a      	ldr	r0, [pc, #168]	; (5e2c <patchFuncAndVars+0xc8>)
    5d84:	492a      	ldr	r1, [pc, #168]	; (5e30 <patchFuncAndVars+0xcc>)
    5d86:	47a0      	blx	r4
    5d88:	482a      	ldr	r0, [pc, #168]	; (5e34 <patchFuncAndVars+0xd0>)
    5d8a:	492b      	ldr	r1, [pc, #172]	; (5e38 <patchFuncAndVars+0xd4>)
    5d8c:	47a0      	blx	r4
    5d8e:	482b      	ldr	r0, [pc, #172]	; (5e3c <patchFuncAndVars+0xd8>)
    5d90:	492b      	ldr	r1, [pc, #172]	; (5e40 <patchFuncAndVars+0xdc>)
    5d92:	47a0      	blx	r4
    5d94:	482b      	ldr	r0, [pc, #172]	; (5e44 <patchFuncAndVars+0xe0>)
    5d96:	492c      	ldr	r1, [pc, #176]	; (5e48 <patchFuncAndVars+0xe4>)
    5d98:	47a0      	blx	r4
    5d9a:	482c      	ldr	r0, [pc, #176]	; (5e4c <patchFuncAndVars+0xe8>)
    5d9c:	492c      	ldr	r1, [pc, #176]	; (5e50 <patchFuncAndVars+0xec>)
    5d9e:	47a0      	blx	r4
    5da0:	482c      	ldr	r0, [pc, #176]	; (5e54 <patchFuncAndVars+0xf0>)
    5da2:	492d      	ldr	r1, [pc, #180]	; (5e58 <patchFuncAndVars+0xf4>)
    5da4:	47a0      	blx	r4
    5da6:	482d      	ldr	r0, [pc, #180]	; (5e5c <patchFuncAndVars+0xf8>)
    5da8:	492d      	ldr	r1, [pc, #180]	; (5e60 <patchFuncAndVars+0xfc>)
    5daa:	47a0      	blx	r4
    5dac:	482d      	ldr	r0, [pc, #180]	; (5e64 <patchFuncAndVars+0x100>)
    5dae:	492e      	ldr	r1, [pc, #184]	; (5e68 <patchFuncAndVars+0x104>)
    5db0:	47a0      	blx	r4
    5db2:	482e      	ldr	r0, [pc, #184]	; (5e6c <patchFuncAndVars+0x108>)
    5db4:	492e      	ldr	r1, [pc, #184]	; (5e70 <patchFuncAndVars+0x10c>)
    5db6:	47a0      	blx	r4
    5db8:	482e      	ldr	r0, [pc, #184]	; (5e74 <patchFuncAndVars+0x110>)
    5dba:	492f      	ldr	r1, [pc, #188]	; (5e78 <patchFuncAndVars+0x114>)
    5dbc:	47a0      	blx	r4
    5dbe:	482f      	ldr	r0, [pc, #188]	; (5e7c <patchFuncAndVars+0x118>)
    5dc0:	492f      	ldr	r1, [pc, #188]	; (5e80 <patchFuncAndVars+0x11c>)
    5dc2:	47a0      	blx	r4
    5dc4:	482f      	ldr	r0, [pc, #188]	; (5e84 <patchFuncAndVars+0x120>)
    5dc6:	4930      	ldr	r1, [pc, #192]	; (5e88 <patchFuncAndVars+0x124>)
    5dc8:	47a0      	blx	r4
    5dca:	4830      	ldr	r0, [pc, #192]	; (5e8c <patchFuncAndVars+0x128>)
    5dcc:	4930      	ldr	r1, [pc, #192]	; (5e90 <patchFuncAndVars+0x12c>)
    5dce:	47a0      	blx	r4
    5dd0:	4830      	ldr	r0, [pc, #192]	; (5e94 <patchFuncAndVars+0x130>)
    5dd2:	4931      	ldr	r1, [pc, #196]	; (5e98 <patchFuncAndVars+0x134>)
    5dd4:	47a0      	blx	r4
    5dd6:	4831      	ldr	r0, [pc, #196]	; (5e9c <patchFuncAndVars+0x138>)
    5dd8:	4931      	ldr	r1, [pc, #196]	; (5ea0 <patchFuncAndVars+0x13c>)
    5dda:	47a0      	blx	r4
    5ddc:	4931      	ldr	r1, [pc, #196]	; (5ea4 <patchFuncAndVars+0x140>)
    5dde:	4832      	ldr	r0, [pc, #200]	; (5ea8 <patchFuncAndVars+0x144>)
    5de0:	47a0      	blx	r4
    5de2:	7869      	ldrb	r1, [r5, #1]
    5de4:	2901      	cmp	r1, #1
    5de6:	d101      	bne.n	5dec <patchFuncAndVars+0x88>
    5de8:	4830      	ldr	r0, [pc, #192]	; (5eac <patchFuncAndVars+0x148>)
    5dea:	47a0      	blx	r4
    5dec:	4830      	ldr	r0, [pc, #192]	; (5eb0 <patchFuncAndVars+0x14c>)
    5dee:	2101      	movs	r1, #1
    5df0:	47a0      	blx	r4
    5df2:	4830      	ldr	r0, [pc, #192]	; (5eb4 <patchFuncAndVars+0x150>)
    5df4:	2101      	movs	r1, #1
    5df6:	47a0      	blx	r4
    5df8:	482f      	ldr	r0, [pc, #188]	; (5eb8 <patchFuncAndVars+0x154>)
    5dfa:	2104      	movs	r1, #4
    5dfc:	47a0      	blx	r4
    5dfe:	2102      	movs	r1, #2
    5e00:	482e      	ldr	r0, [pc, #184]	; (5ebc <patchFuncAndVars+0x158>)
    5e02:	31ff      	adds	r1, #255	; 0xff
    5e04:	47a0      	blx	r4
    5e06:	bd38      	pop	{r3, r4, r5, pc}
    5e08:	000079c9 	.word	0x000079c9
    5e0c:	100401c0 	.word	0x100401c0
    5e10:	10006ae3 	.word	0x10006ae3
    5e14:	1004000c 	.word	0x1004000c
    5e18:	100053a5 	.word	0x100053a5
    5e1c:	10040010 	.word	0x10040010
    5e20:	1000549d 	.word	0x1000549d
    5e24:	1004004c 	.word	0x1004004c
    5e28:	10005515 	.word	0x10005515
    5e2c:	10040034 	.word	0x10040034
    5e30:	10005647 	.word	0x10005647
    5e34:	10040068 	.word	0x10040068
    5e38:	10005955 	.word	0x10005955
    5e3c:	10040088 	.word	0x10040088
    5e40:	10005a5d 	.word	0x10005a5d
    5e44:	100400bc 	.word	0x100400bc
    5e48:	10005b7d 	.word	0x10005b7d
    5e4c:	100400dc 	.word	0x100400dc
    5e50:	10005c9d 	.word	0x10005c9d
    5e54:	100400e4 	.word	0x100400e4
    5e58:	10005e6d 	.word	0x10005e6d
    5e5c:	100400e8 	.word	0x100400e8
    5e60:	100060df 	.word	0x100060df
    5e64:	100400ec 	.word	0x100400ec
    5e68:	10006199 	.word	0x10006199
    5e6c:	1004010c 	.word	0x1004010c
    5e70:	1000634d 	.word	0x1000634d
    5e74:	10040154 	.word	0x10040154
    5e78:	10006545 	.word	0x10006545
    5e7c:	10040160 	.word	0x10040160
    5e80:	100065f5 	.word	0x100065f5
    5e84:	10040174 	.word	0x10040174
    5e88:	1000678d 	.word	0x1000678d
    5e8c:	10040210 	.word	0x10040210
    5e90:	10007571 	.word	0x10007571
    5e94:	10040038 	.word	0x10040038
    5e98:	100057ff 	.word	0x100057ff
    5e9c:	10000004 	.word	0x10000004
    5ea0:	10005881 	.word	0x10005881
    5ea4:	100057db 	.word	0x100057db
    5ea8:	1000003c 	.word	0x1000003c
    5eac:	10007ca0 	.word	0x10007ca0
    5eb0:	10040168 	.word	0x10040168
    5eb4:	10007bd0 	.word	0x10007bd0
    5eb8:	10007bd4 	.word	0x10007bd4
    5ebc:	10040000 	.word	0x10040000

00005ec0 <__printingNullFun>:
    5ec0:	b40f      	push	{r0, r1, r2, r3}
    5ec2:	2000      	movs	r0, #0
    5ec4:	b004      	add	sp, #16
    5ec6:	4770      	bx	lr

00005ec8 <dbg_le_set_bd_addr_req_handler>:
    5ec8:	4a14      	ldr	r2, [pc, #80]	; (5f1c <dbg_le_set_bd_addr_req_handler+0x54>)
    5eca:	b5f8      	push	{r3, r4, r5, r6, r7, lr}
    5ecc:	6814      	ldr	r4, [r2, #0]
    5ece:	2300      	movs	r3, #0
    5ed0:	2205      	movs	r2, #5
    5ed2:	1c01      	adds	r1, r0, #0
    5ed4:	2603      	movs	r6, #3
    5ed6:	270f      	movs	r7, #15
    5ed8:	1c20      	adds	r0, r4, #0
    5eda:	4d11      	ldr	r5, [pc, #68]	; (5f20 <dbg_le_set_bd_addr_req_handler+0x58>)
    5edc:	3009      	adds	r0, #9
    5ede:	60ab      	str	r3, [r5, #8]
    5ee0:	60eb      	str	r3, [r5, #12]
    5ee2:	7022      	strb	r2, [r4, #0]
    5ee4:	320b      	adds	r2, #11
    5ee6:	7123      	strb	r3, [r4, #4]
    5ee8:	7162      	strb	r2, [r4, #5]
    5eea:	71a3      	strb	r3, [r4, #6]
    5eec:	71e3      	strb	r3, [r4, #7]
    5eee:	7223      	strb	r3, [r4, #8]
    5ef0:	3a0a      	subs	r2, #10
    5ef2:	4b0c      	ldr	r3, [pc, #48]	; (5f24 <dbg_le_set_bd_addr_req_handler+0x5c>)
    5ef4:	7067      	strb	r7, [r4, #1]
    5ef6:	70a6      	strb	r6, [r4, #2]
    5ef8:	70e6      	strb	r6, [r4, #3]
    5efa:	4798      	blx	r3
    5efc:	4b0a      	ldr	r3, [pc, #40]	; (5f28 <dbg_le_set_bd_addr_req_handler+0x60>)
    5efe:	1c20      	adds	r0, r4, #0
    5f00:	802b      	strh	r3, [r5, #0]
    5f02:	2306      	movs	r3, #6
    5f04:	1c39      	adds	r1, r7, #0
    5f06:	71e3      	strb	r3, [r4, #7]
    5f08:	4b08      	ldr	r3, [pc, #32]	; (5f2c <dbg_le_set_bd_addr_req_handler+0x64>)
    5f0a:	80ae      	strh	r6, [r5, #4]
    5f0c:	4798      	blx	r3
    5f0e:	4b08      	ldr	r3, [pc, #32]	; (5f30 <dbg_le_set_bd_addr_req_handler+0x68>)
    5f10:	4798      	blx	r3
    5f12:	28d0      	cmp	r0, #208	; 0xd0
    5f14:	d001      	beq.n	5f1a <dbg_le_set_bd_addr_req_handler+0x52>
    5f16:	68ab      	ldr	r3, [r5, #8]
    5f18:	7818      	ldrb	r0, [r3, #0]
    5f1a:	bdf8      	pop	{r3, r4, r5, r6, r7, pc}
    5f1c:	00009e74 	.word	0x00009e74
    5f20:	20001a5c 	.word	0x20001a5c
    5f24:	00007dbf 	.word	0x00007dbf
    5f28:	00000329 	.word	0x00000329
    5f2c:	000055cd 	.word	0x000055cd
    5f30:	00005831 	.word	0x00005831

00005f34 <gapc_get_dev_info_cfm.constprop.1>:
    5f34:	2200      	movs	r2, #0
    5f36:	b538      	push	{r3, r4, r5, lr}
    5f38:	4b2e      	ldr	r3, [pc, #184]	; (5ff4 <gapc_get_dev_info_cfm.constprop.1+0xc0>)
    5f3a:	250e      	movs	r5, #14
    5f3c:	609a      	str	r2, [r3, #8]
    5f3e:	60da      	str	r2, [r3, #12]
    5f40:	4b2d      	ldr	r3, [pc, #180]	; (5ff8 <gapc_get_dev_info_cfm.constprop.1+0xc4>)
    5f42:	681c      	ldr	r4, [r3, #0]
    5f44:	2305      	movs	r3, #5
    5f46:	7121      	strb	r1, [r4, #4]
    5f48:	2110      	movs	r1, #16
    5f4a:	7023      	strb	r3, [r4, #0]
    5f4c:	70a5      	strb	r5, [r4, #2]
    5f4e:	3306      	adds	r3, #6
    5f50:	3529      	adds	r5, #41	; 0x29
    5f52:	7063      	strb	r3, [r4, #1]
    5f54:	70e5      	strb	r5, [r4, #3]
    5f56:	7161      	strb	r1, [r4, #5]
    5f58:	71a2      	strb	r2, [r4, #6]
    5f5a:	71e2      	strb	r2, [r4, #7]
    5f5c:	7222      	strb	r2, [r4, #8]
    5f5e:	7260      	strb	r0, [r4, #9]
    5f60:	72a2      	strb	r2, [r4, #10]
    5f62:	2801      	cmp	r0, #1
    5f64:	d032      	beq.n	5fcc <gapc_get_dev_info_cfm.constprop.1+0x98>
    5f66:	4290      	cmp	r0, r2
    5f68:	d01f      	beq.n	5faa <gapc_get_dev_info_cfm.constprop.1+0x76>
    5f6a:	2802      	cmp	r0, #2
    5f6c:	d137      	bne.n	5fde <gapc_get_dev_info_cfm.constprop.1+0xaa>
    5f6e:	4b23      	ldr	r3, [pc, #140]	; (5ffc <gapc_get_dev_info_cfm.constprop.1+0xc8>)
    5f70:	1c1a      	adds	r2, r3, #0
    5f72:	32ce      	adds	r2, #206	; 0xce
    5f74:	8811      	ldrh	r1, [r2, #0]
    5f76:	72e1      	strb	r1, [r4, #11]
    5f78:	8812      	ldrh	r2, [r2, #0]
    5f7a:	0a12      	lsrs	r2, r2, #8
    5f7c:	7322      	strb	r2, [r4, #12]
    5f7e:	1c1a      	adds	r2, r3, #0
    5f80:	32d0      	adds	r2, #208	; 0xd0
    5f82:	8811      	ldrh	r1, [r2, #0]
    5f84:	7361      	strb	r1, [r4, #13]
    5f86:	8812      	ldrh	r2, [r2, #0]
    5f88:	0a12      	lsrs	r2, r2, #8
    5f8a:	73a2      	strb	r2, [r4, #14]
    5f8c:	1c1a      	adds	r2, r3, #0
    5f8e:	32d2      	adds	r2, #210	; 0xd2
    5f90:	8811      	ldrh	r1, [r2, #0]
    5f92:	33d4      	adds	r3, #212	; 0xd4
    5f94:	73e1      	strb	r1, [r4, #15]
    5f96:	8812      	ldrh	r2, [r2, #0]
    5f98:	2113      	movs	r1, #19
    5f9a:	0a12      	lsrs	r2, r2, #8
    5f9c:	7422      	strb	r2, [r4, #16]
    5f9e:	881a      	ldrh	r2, [r3, #0]
    5fa0:	7462      	strb	r2, [r4, #17]
    5fa2:	881b      	ldrh	r3, [r3, #0]
    5fa4:	0a1b      	lsrs	r3, r3, #8
    5fa6:	74a3      	strb	r3, [r4, #18]
    5fa8:	e01a      	b.n	5fe0 <gapc_get_dev_info_cfm.constprop.1+0xac>
    5faa:	1c20      	adds	r0, r4, #0
    5fac:	4d13      	ldr	r5, [pc, #76]	; (5ffc <gapc_get_dev_info_cfm.constprop.1+0xc8>)
    5fae:	4914      	ldr	r1, [pc, #80]	; (6000 <gapc_get_dev_info_cfm.constprop.1+0xcc>)
    5fb0:	35aa      	adds	r5, #170	; 0xaa
    5fb2:	882b      	ldrh	r3, [r5, #0]
    5fb4:	300d      	adds	r0, #13
    5fb6:	72e3      	strb	r3, [r4, #11]
    5fb8:	882b      	ldrh	r3, [r5, #0]
    5fba:	0a1b      	lsrs	r3, r3, #8
    5fbc:	7323      	strb	r3, [r4, #12]
    5fbe:	882a      	ldrh	r2, [r5, #0]
    5fc0:	4b10      	ldr	r3, [pc, #64]	; (6004 <gapc_get_dev_info_cfm.constprop.1+0xd0>)
    5fc2:	4798      	blx	r3
    5fc4:	8829      	ldrh	r1, [r5, #0]
    5fc6:	310d      	adds	r1, #13
    5fc8:	b289      	uxth	r1, r1
    5fca:	e009      	b.n	5fe0 <gapc_get_dev_info_cfm.constprop.1+0xac>
    5fcc:	4b0b      	ldr	r3, [pc, #44]	; (5ffc <gapc_get_dev_info_cfm.constprop.1+0xc8>)
    5fce:	210d      	movs	r1, #13
    5fd0:	33cc      	adds	r3, #204	; 0xcc
    5fd2:	881a      	ldrh	r2, [r3, #0]
    5fd4:	72e2      	strb	r2, [r4, #11]
    5fd6:	881b      	ldrh	r3, [r3, #0]
    5fd8:	0a1b      	lsrs	r3, r3, #8
    5fda:	7323      	strb	r3, [r4, #12]
    5fdc:	e000      	b.n	5fe0 <gapc_get_dev_info_cfm.constprop.1+0xac>
    5fde:	1c19      	adds	r1, r3, #0
    5fe0:	1c0b      	adds	r3, r1, #0
    5fe2:	3b09      	subs	r3, #9
    5fe4:	71e3      	strb	r3, [r4, #7]
    5fe6:	121b      	asrs	r3, r3, #8
    5fe8:	7223      	strb	r3, [r4, #8]
    5fea:	1c20      	adds	r0, r4, #0
    5fec:	4b06      	ldr	r3, [pc, #24]	; (6008 <gapc_get_dev_info_cfm.constprop.1+0xd4>)
    5fee:	4798      	blx	r3
    5ff0:	bd38      	pop	{r3, r4, r5, pc}
    5ff2:	46c0      	nop			; (mov r8, r8)
    5ff4:	20001a5c 	.word	0x20001a5c
    5ff8:	00009e74 	.word	0x00009e74
    5ffc:	20001afc 	.word	0x20001afc
    6000:	20001ba8 	.word	0x20001ba8
    6004:	00007dbf 	.word	0x00007dbf
    6008:	000055cd 	.word	0x000055cd

0000600c <check_ConnData_idx_role>:
    600c:	4b0c      	ldr	r3, [pc, #48]	; (6040 <check_ConnData_idx_role+0x34>)
    600e:	b570      	push	{r4, r5, r6, lr}
    6010:	1c04      	adds	r4, r0, #0
    6012:	2008      	movs	r0, #8
    6014:	429c      	cmp	r4, r3
    6016:	d011      	beq.n	603c <check_ConnData_idx_role+0x30>
    6018:	2300      	movs	r3, #0
    601a:	2212      	movs	r2, #18
    601c:	435a      	muls	r2, r3
    601e:	4d09      	ldr	r5, [pc, #36]	; (6044 <check_ConnData_idx_role+0x38>)
    6020:	b2d8      	uxtb	r0, r3
    6022:	1956      	adds	r6, r2, r5
    6024:	8976      	ldrh	r6, [r6, #10]
    6026:	42a6      	cmp	r6, r4
    6028:	d104      	bne.n	6034 <check_ConnData_idx_role+0x28>
    602a:	2900      	cmp	r1, #0
    602c:	d006      	beq.n	603c <check_ConnData_idx_role+0x30>
    602e:	5d53      	ldrb	r3, [r2, r5]
    6030:	700b      	strb	r3, [r1, #0]
    6032:	e003      	b.n	603c <check_ConnData_idx_role+0x30>
    6034:	3301      	adds	r3, #1
    6036:	2b08      	cmp	r3, #8
    6038:	d1ef      	bne.n	601a <check_ConnData_idx_role+0xe>
    603a:	1c18      	adds	r0, r3, #0
    603c:	bd70      	pop	{r4, r5, r6, pc}
    603e:	46c0      	nop			; (mov r8, r8)
    6040:	0000ffff 	.word	0x0000ffff
    6044:	20001a6c 	.word	0x20001a6c

00006048 <check_ConnData_emptyEntry>:
    6048:	2300      	movs	r3, #0
    604a:	2212      	movs	r2, #18
    604c:	435a      	muls	r2, r3
    604e:	4906      	ldr	r1, [pc, #24]	; (6068 <check_ConnData_emptyEntry+0x20>)
    6050:	b2d8      	uxtb	r0, r3
    6052:	1852      	adds	r2, r2, r1
    6054:	8951      	ldrh	r1, [r2, #10]
    6056:	4a05      	ldr	r2, [pc, #20]	; (606c <check_ConnData_emptyEntry+0x24>)
    6058:	4291      	cmp	r1, r2
    605a:	d003      	beq.n	6064 <check_ConnData_emptyEntry+0x1c>
    605c:	3301      	adds	r3, #1
    605e:	2b08      	cmp	r3, #8
    6060:	d1f3      	bne.n	604a <check_ConnData_emptyEntry+0x2>
    6062:	1c18      	adds	r0, r3, #0
    6064:	4770      	bx	lr
    6066:	46c0      	nop			; (mov r8, r8)
    6068:	20001a6c 	.word	0x20001a6c
    606c:	0000ffff 	.word	0x0000ffff

00006070 <gapc_cmp_evt>:
    6070:	b5f0      	push	{r4, r5, r6, r7, lr}
    6072:	1c14      	adds	r4, r2, #0
    6074:	780a      	ldrb	r2, [r1, #0]
    6076:	b085      	sub	sp, #20
    6078:	1c03      	adds	r3, r0, #0
    607a:	1e50      	subs	r0, r2, #1
    607c:	9201      	str	r2, [sp, #4]
    607e:	784d      	ldrb	r5, [r1, #1]
    6080:	280f      	cmp	r0, #15
    6082:	d900      	bls.n	6086 <gapc_cmp_evt+0x16>
    6084:	e085      	b.n	6192 <gapc_cmp_evt+0x122>
    6086:	f001 fda3 	bl	7bd0 <__gnu_thumb1_case_uqi>
    608a:	5808      	.short	0x5808
    608c:	58588484 	.word	0x58588484
    6090:	132e6c84 	.word	0x132e6c84
    6094:	84849126 	.word	0x84849126
    6098:	483a      	.short	0x483a
    609a:	203a      	movs	r0, #58	; 0x3a
    609c:	2d00      	cmp	r5, #0
    609e:	d100      	bne.n	60a2 <gapc_cmp_evt+0x32>
    60a0:	e085      	b.n	61ae <gapc_cmp_evt+0x13e>
    60a2:	0a1b      	lsrs	r3, r3, #8
    60a4:	8023      	strh	r3, [r4, #0]
    60a6:	2300      	movs	r3, #0
    60a8:	70a5      	strb	r5, [r4, #2]
    60aa:	70e3      	strb	r3, [r4, #3]
    60ac:	3834      	subs	r0, #52	; 0x34
    60ae:	e07e      	b.n	61ae <gapc_cmp_evt+0x13e>
    60b0:	aa02      	add	r2, sp, #8
    60b2:	1dd6      	adds	r6, r2, #7
    60b4:	2201      	movs	r2, #1
    60b6:	0a1f      	lsrs	r7, r3, #8
    60b8:	1c38      	adds	r0, r7, #0
    60ba:	1c31      	adds	r1, r6, #0
    60bc:	4b3d      	ldr	r3, [pc, #244]	; (61b4 <gapc_cmp_evt+0x144>)
    60be:	7032      	strb	r2, [r6, #0]
    60c0:	4798      	blx	r3
    60c2:	2807      	cmp	r0, #7
    60c4:	d803      	bhi.n	60ce <gapc_cmp_evt+0x5e>
    60c6:	7833      	ldrb	r3, [r6, #0]
    60c8:	203a      	movs	r0, #58	; 0x3a
    60ca:	2b00      	cmp	r3, #0
    60cc:	d06f      	beq.n	61ae <gapc_cmp_evt+0x13e>
    60ce:	8067      	strh	r7, [r4, #2]
    60d0:	7125      	strb	r5, [r4, #4]
    60d2:	2009      	movs	r0, #9
    60d4:	e06b      	b.n	61ae <gapc_cmp_evt+0x13e>
    60d6:	203a      	movs	r0, #58	; 0x3a
    60d8:	2d00      	cmp	r5, #0
    60da:	d068      	beq.n	61ae <gapc_cmp_evt+0x13e>
    60dc:	0a1b      	lsrs	r3, r3, #8
    60de:	8023      	strh	r3, [r4, #0]
    60e0:	70a5      	strb	r5, [r4, #2]
    60e2:	382c      	subs	r0, #44	; 0x2c
    60e4:	e063      	b.n	61ae <gapc_cmp_evt+0x13e>
    60e6:	203a      	movs	r0, #58	; 0x3a
    60e8:	2d00      	cmp	r5, #0
    60ea:	d060      	beq.n	61ae <gapc_cmp_evt+0x13e>
    60ec:	0a1b      	lsrs	r3, r3, #8
    60ee:	8023      	strh	r3, [r4, #0]
    60f0:	2300      	movs	r3, #0
    60f2:	70a5      	strb	r5, [r4, #2]
    60f4:	80a3      	strh	r3, [r4, #4]
    60f6:	80e3      	strh	r3, [r4, #6]
    60f8:	8123      	strh	r3, [r4, #8]
    60fa:	3833      	subs	r0, #51	; 0x33
    60fc:	e057      	b.n	61ae <gapc_cmp_evt+0x13e>
    60fe:	203a      	movs	r0, #58	; 0x3a
    6100:	2d00      	cmp	r5, #0
    6102:	d054      	beq.n	61ae <gapc_cmp_evt+0x13e>
    6104:	7225      	strb	r5, [r4, #8]
    6106:	4c2c      	ldr	r4, [pc, #176]	; (61b8 <gapc_cmp_evt+0x148>)
    6108:	4b2c      	ldr	r3, [pc, #176]	; (61bc <gapc_cmp_evt+0x14c>)
    610a:	482d      	ldr	r0, [pc, #180]	; (61c0 <gapc_cmp_evt+0x150>)
    610c:	492d      	ldr	r1, [pc, #180]	; (61c4 <gapc_cmp_evt+0x154>)
    610e:	228f      	movs	r2, #143	; 0x8f
    6110:	6825      	ldr	r5, [r4, #0]
    6112:	47a8      	blx	r5
    6114:	6823      	ldr	r3, [r4, #0]
    6116:	482c      	ldr	r0, [pc, #176]	; (61c8 <gapc_cmp_evt+0x158>)
    6118:	e00c      	b.n	6134 <gapc_cmp_evt+0xc4>
    611a:	203a      	movs	r0, #58	; 0x3a
    611c:	2d00      	cmp	r5, #0
    611e:	d046      	beq.n	61ae <gapc_cmp_evt+0x13e>
    6120:	7125      	strb	r5, [r4, #4]
    6122:	4c25      	ldr	r4, [pc, #148]	; (61b8 <gapc_cmp_evt+0x148>)
    6124:	4b25      	ldr	r3, [pc, #148]	; (61bc <gapc_cmp_evt+0x14c>)
    6126:	4826      	ldr	r0, [pc, #152]	; (61c0 <gapc_cmp_evt+0x150>)
    6128:	4926      	ldr	r1, [pc, #152]	; (61c4 <gapc_cmp_evt+0x154>)
    612a:	229f      	movs	r2, #159	; 0x9f
    612c:	6825      	ldr	r5, [r4, #0]
    612e:	47a8      	blx	r5
    6130:	6823      	ldr	r3, [r4, #0]
    6132:	4826      	ldr	r0, [pc, #152]	; (61cc <gapc_cmp_evt+0x15c>)
    6134:	4798      	blx	r3
    6136:	2029      	movs	r0, #41	; 0x29
    6138:	e039      	b.n	61ae <gapc_cmp_evt+0x13e>
    613a:	203a      	movs	r0, #58	; 0x3a
    613c:	2d00      	cmp	r5, #0
    613e:	d036      	beq.n	61ae <gapc_cmp_evt+0x13e>
    6140:	4f1d      	ldr	r7, [pc, #116]	; (61b8 <gapc_cmp_evt+0x148>)
    6142:	4920      	ldr	r1, [pc, #128]	; (61c4 <gapc_cmp_evt+0x154>)
    6144:	22b5      	movs	r2, #181	; 0xb5
    6146:	4b1d      	ldr	r3, [pc, #116]	; (61bc <gapc_cmp_evt+0x14c>)
    6148:	481d      	ldr	r0, [pc, #116]	; (61c0 <gapc_cmp_evt+0x150>)
    614a:	683e      	ldr	r6, [r7, #0]
    614c:	47b0      	blx	r6
    614e:	683b      	ldr	r3, [r7, #0]
    6150:	481f      	ldr	r0, [pc, #124]	; (61d0 <gapc_cmp_evt+0x160>)
    6152:	1c29      	adds	r1, r5, #0
    6154:	4798      	blx	r3
    6156:	466b      	mov	r3, sp
    6158:	791b      	ldrb	r3, [r3, #4]
    615a:	70e5      	strb	r5, [r4, #3]
    615c:	70a3      	strb	r3, [r4, #2]
    615e:	2011      	movs	r0, #17
    6160:	e025      	b.n	61ae <gapc_cmp_evt+0x13e>
    6162:	203a      	movs	r0, #58	; 0x3a
    6164:	2d00      	cmp	r5, #0
    6166:	d022      	beq.n	61ae <gapc_cmp_evt+0x13e>
    6168:	0a1b      	lsrs	r3, r3, #8
    616a:	8063      	strh	r3, [r4, #2]
    616c:	7025      	strb	r5, [r4, #0]
    616e:	1d20      	adds	r0, r4, #4
    6170:	2100      	movs	r1, #0
    6172:	2205      	movs	r2, #5
    6174:	4b17      	ldr	r3, [pc, #92]	; (61d4 <gapc_cmp_evt+0x164>)
    6176:	4798      	blx	r3
    6178:	4c0f      	ldr	r4, [pc, #60]	; (61b8 <gapc_cmp_evt+0x148>)
    617a:	4912      	ldr	r1, [pc, #72]	; (61c4 <gapc_cmp_evt+0x154>)
    617c:	22c7      	movs	r2, #199	; 0xc7
    617e:	4b0f      	ldr	r3, [pc, #60]	; (61bc <gapc_cmp_evt+0x14c>)
    6180:	480f      	ldr	r0, [pc, #60]	; (61c0 <gapc_cmp_evt+0x150>)
    6182:	6826      	ldr	r6, [r4, #0]
    6184:	47b0      	blx	r6
    6186:	6823      	ldr	r3, [r4, #0]
    6188:	4813      	ldr	r0, [pc, #76]	; (61d8 <gapc_cmp_evt+0x168>)
    618a:	1c29      	adds	r1, r5, #0
    618c:	4798      	blx	r3
    618e:	2012      	movs	r0, #18
    6190:	e00d      	b.n	61ae <gapc_cmp_evt+0x13e>
    6192:	4c09      	ldr	r4, [pc, #36]	; (61b8 <gapc_cmp_evt+0x148>)
    6194:	490b      	ldr	r1, [pc, #44]	; (61c4 <gapc_cmp_evt+0x154>)
    6196:	22d1      	movs	r2, #209	; 0xd1
    6198:	4b08      	ldr	r3, [pc, #32]	; (61bc <gapc_cmp_evt+0x14c>)
    619a:	4809      	ldr	r0, [pc, #36]	; (61c0 <gapc_cmp_evt+0x150>)
    619c:	6825      	ldr	r5, [r4, #0]
    619e:	47a8      	blx	r5
    61a0:	6823      	ldr	r3, [r4, #0]
    61a2:	480e      	ldr	r0, [pc, #56]	; (61dc <gapc_cmp_evt+0x16c>)
    61a4:	9901      	ldr	r1, [sp, #4]
    61a6:	4798      	blx	r3
    61a8:	2000      	movs	r0, #0
    61aa:	e000      	b.n	61ae <gapc_cmp_evt+0x13e>
    61ac:	203a      	movs	r0, #58	; 0x3a
    61ae:	b005      	add	sp, #20
    61b0:	bdf0      	pop	{r4, r5, r6, r7, pc}
    61b2:	46c0      	nop			; (mov r8, r8)
    61b4:	0000600d 	.word	0x0000600d
    61b8:	200000ec 	.word	0x200000ec
    61bc:	0000a026 	.word	0x0000a026
    61c0:	00009a19 	.word	0x00009a19
    61c4:	0000a051 	.word	0x0000a051
    61c8:	0000a08c 	.word	0x0000a08c
    61cc:	0000a0ae 	.word	0x0000a0ae
    61d0:	0000a0d0 	.word	0x0000a0d0
    61d4:	00007dd1 	.word	0x00007dd1
    61d8:	0000a0f7 	.word	0x0000a0f7
    61dc:	0000a120 	.word	0x0000a120

000061e0 <gapc_connection_cfm_handler>:
    61e0:	b5f0      	push	{r4, r5, r6, r7, lr}
    61e2:	2500      	movs	r5, #0
    61e4:	b085      	sub	sp, #20
    61e6:	1c1e      	adds	r6, r3, #0
    61e8:	ab0a      	add	r3, sp, #40	; 0x28
    61ea:	781b      	ldrb	r3, [r3, #0]
    61ec:	9201      	str	r2, [sp, #4]
    61ee:	9302      	str	r3, [sp, #8]
    61f0:	ab0b      	add	r3, sp, #44	; 0x2c
    61f2:	781b      	ldrb	r3, [r3, #0]
    61f4:	1c07      	adds	r7, r0, #0
    61f6:	9303      	str	r3, [sp, #12]
    61f8:	ab0c      	add	r3, sp, #48	; 0x30
    61fa:	881a      	ldrh	r2, [r3, #0]
    61fc:	4b23      	ldr	r3, [pc, #140]	; (628c <gapc_connection_cfm_handler+0xac>)
    61fe:	9100      	str	r1, [sp, #0]
    6200:	609d      	str	r5, [r3, #8]
    6202:	60dd      	str	r5, [r3, #12]
    6204:	4b22      	ldr	r3, [pc, #136]	; (6290 <gapc_connection_cfm_handler+0xb0>)
    6206:	1c39      	adds	r1, r7, #0
    6208:	681c      	ldr	r4, [r3, #0]
    620a:	2305      	movs	r3, #5
    620c:	1c20      	adds	r0, r4, #0
    620e:	7023      	strb	r3, [r4, #0]
    6210:	3b03      	subs	r3, #3
    6212:	7063      	strb	r3, [r4, #1]
    6214:	330c      	adds	r3, #12
    6216:	70a3      	strb	r3, [r4, #2]
    6218:	70e3      	strb	r3, [r4, #3]
    621a:	3302      	adds	r3, #2
    621c:	7122      	strb	r2, [r4, #4]
    621e:	7163      	strb	r3, [r4, #5]
    6220:	4f1c      	ldr	r7, [pc, #112]	; (6294 <gapc_connection_cfm_handler+0xb4>)
    6222:	71a5      	strb	r5, [r4, #6]
    6224:	71e5      	strb	r5, [r4, #7]
    6226:	7225      	strb	r5, [r4, #8]
    6228:	2210      	movs	r2, #16
    622a:	3009      	adds	r0, #9
    622c:	47b8      	blx	r7
    622e:	466b      	mov	r3, sp
    6230:	1c20      	adds	r0, r4, #0
    6232:	781b      	ldrb	r3, [r3, #0]
    6234:	9901      	ldr	r1, [sp, #4]
    6236:	7663      	strb	r3, [r4, #25]
    6238:	9b00      	ldr	r3, [sp, #0]
    623a:	2210      	movs	r2, #16
    623c:	0a1b      	lsrs	r3, r3, #8
    623e:	76a3      	strb	r3, [r4, #26]
    6240:	9b00      	ldr	r3, [sp, #0]
    6242:	301d      	adds	r0, #29
    6244:	0c1b      	lsrs	r3, r3, #16
    6246:	76e3      	strb	r3, [r4, #27]
    6248:	9b00      	ldr	r3, [sp, #0]
    624a:	0e1b      	lsrs	r3, r3, #24
    624c:	7723      	strb	r3, [r4, #28]
    624e:	47b8      	blx	r7
    6250:	1c23      	adds	r3, r4, #0
    6252:	0a32      	lsrs	r2, r6, #8
    6254:	332d      	adds	r3, #45	; 0x2d
    6256:	705a      	strb	r2, [r3, #1]
    6258:	0c32      	lsrs	r2, r6, #16
    625a:	709a      	strb	r2, [r3, #2]
    625c:	1c22      	adds	r2, r4, #0
    625e:	701e      	strb	r6, [r3, #0]
    6260:	3230      	adds	r2, #48	; 0x30
    6262:	0e33      	lsrs	r3, r6, #24
    6264:	7013      	strb	r3, [r2, #0]
    6266:	466a      	mov	r2, sp
    6268:	1c23      	adds	r3, r4, #0
    626a:	7a12      	ldrb	r2, [r2, #8]
    626c:	3331      	adds	r3, #49	; 0x31
    626e:	701a      	strb	r2, [r3, #0]
    6270:	466a      	mov	r2, sp
    6272:	7b12      	ldrb	r2, [r2, #12]
    6274:	705d      	strb	r5, [r3, #1]
    6276:	709a      	strb	r2, [r3, #2]
    6278:	70dd      	strb	r5, [r3, #3]
    627a:	232c      	movs	r3, #44	; 0x2c
    627c:	1c20      	adds	r0, r4, #0
    627e:	71e3      	strb	r3, [r4, #7]
    6280:	2135      	movs	r1, #53	; 0x35
    6282:	4b05      	ldr	r3, [pc, #20]	; (6298 <gapc_connection_cfm_handler+0xb8>)
    6284:	4798      	blx	r3
    6286:	1c28      	adds	r0, r5, #0
    6288:	b005      	add	sp, #20
    628a:	bdf0      	pop	{r4, r5, r6, r7, pc}
    628c:	20001a5c 	.word	0x20001a5c
    6290:	00009e74 	.word	0x00009e74
    6294:	00007dbf 	.word	0x00007dbf
    6298:	000055cd 	.word	0x000055cd

0000629c <gapc_con_req_ind>:
    629c:	b5f0      	push	{r4, r5, r6, r7, lr}
    629e:	7845      	ldrb	r5, [r0, #1]
    62a0:	7803      	ldrb	r3, [r0, #0]
    62a2:	4c30      	ldr	r4, [pc, #192]	; (6364 <gapc_con_req_ind+0xc8>)
    62a4:	022d      	lsls	r5, r5, #8
    62a6:	431d      	orrs	r5, r3
    62a8:	85a5      	strh	r5, [r4, #44]	; 0x2c
    62aa:	78c3      	ldrb	r3, [r0, #3]
    62ac:	7882      	ldrb	r2, [r0, #2]
    62ae:	b08b      	sub	sp, #44	; 0x2c
    62b0:	021b      	lsls	r3, r3, #8
    62b2:	431a      	orrs	r2, r3
    62b4:	466b      	mov	r3, sp
    62b6:	9205      	str	r2, [sp, #20]
    62b8:	8a9b      	ldrh	r3, [r3, #20]
    62ba:	2120      	movs	r1, #32
    62bc:	85e3      	strh	r3, [r4, #46]	; 0x2e
    62be:	7943      	ldrb	r3, [r0, #5]
    62c0:	7902      	ldrb	r2, [r0, #4]
    62c2:	021b      	lsls	r3, r3, #8
    62c4:	431a      	orrs	r2, r3
    62c6:	466b      	mov	r3, sp
    62c8:	9206      	str	r2, [sp, #24]
    62ca:	8b1b      	ldrh	r3, [r3, #24]
    62cc:	1c06      	adds	r6, r0, #0
    62ce:	8623      	strh	r3, [r4, #48]	; 0x30
    62d0:	79c3      	ldrb	r3, [r0, #7]
    62d2:	7982      	ldrb	r2, [r0, #6]
    62d4:	021b      	lsls	r3, r3, #8
    62d6:	431a      	orrs	r2, r3
    62d8:	466b      	mov	r3, sp
    62da:	9207      	str	r2, [sp, #28]
    62dc:	466a      	mov	r2, sp
    62de:	8b9b      	ldrh	r3, [r3, #28]
    62e0:	1852      	adds	r2, r2, r1
    62e2:	8663      	strh	r3, [r4, #50]	; 0x32
    62e4:	7a43      	ldrb	r3, [r0, #9]
    62e6:	1c01      	adds	r1, r0, #0
    62e8:	9308      	str	r3, [sp, #32]
    62ea:	1c23      	adds	r3, r4, #0
    62ec:	7812      	ldrb	r2, [r2, #0]
    62ee:	3377      	adds	r3, #119	; 0x77
    62f0:	3478      	adds	r4, #120	; 0x78
    62f2:	701a      	strb	r2, [r3, #0]
    62f4:	310a      	adds	r1, #10
    62f6:	2206      	movs	r2, #6
    62f8:	4b1b      	ldr	r3, [pc, #108]	; (6368 <gapc_con_req_ind+0xcc>)
    62fa:	1c20      	adds	r0, r4, #0
    62fc:	4798      	blx	r3
    62fe:	7c33      	ldrb	r3, [r6, #16]
    6300:	9309      	str	r3, [sp, #36]	; 0x24
    6302:	4b1a      	ldr	r3, [pc, #104]	; (636c <gapc_con_req_ind+0xd0>)
    6304:	4798      	blx	r3
    6306:	4e1a      	ldr	r6, [pc, #104]	; (6370 <gapc_con_req_ind+0xd4>)
    6308:	1e07      	subs	r7, r0, #0
    630a:	2f07      	cmp	r7, #7
    630c:	d81b      	bhi.n	6346 <gapc_con_req_ind+0xaa>
    630e:	2312      	movs	r3, #18
    6310:	4343      	muls	r3, r0
    6312:	18f0      	adds	r0, r6, r3
    6314:	8145      	strh	r5, [r0, #10]
    6316:	4669      	mov	r1, sp
    6318:	2524      	movs	r5, #36	; 0x24
    631a:	1949      	adds	r1, r1, r5
    631c:	7809      	ldrb	r1, [r1, #0]
    631e:	2206      	movs	r2, #6
    6320:	54f1      	strb	r1, [r6, r3]
    6322:	2120      	movs	r1, #32
    6324:	466b      	mov	r3, sp
    6326:	185b      	adds	r3, r3, r1
    6328:	781b      	ldrb	r3, [r3, #0]
    632a:	1c21      	adds	r1, r4, #0
    632c:	7043      	strb	r3, [r0, #1]
    632e:	466b      	mov	r3, sp
    6330:	8a9b      	ldrh	r3, [r3, #20]
    6332:	3002      	adds	r0, #2
    6334:	8143      	strh	r3, [r0, #10]
    6336:	466b      	mov	r3, sp
    6338:	8b1b      	ldrh	r3, [r3, #24]
    633a:	8183      	strh	r3, [r0, #12]
    633c:	466b      	mov	r3, sp
    633e:	8b9b      	ldrh	r3, [r3, #28]
    6340:	81c3      	strh	r3, [r0, #14]
    6342:	4b09      	ldr	r3, [pc, #36]	; (6368 <gapc_con_req_ind+0xcc>)
    6344:	4798      	blx	r3
    6346:	2112      	movs	r1, #18
    6348:	2300      	movs	r3, #0
    634a:	434f      	muls	r7, r1
    634c:	9300      	str	r3, [sp, #0]
    634e:	9301      	str	r3, [sp, #4]
    6350:	19f6      	adds	r6, r6, r7
    6352:	8971      	ldrh	r1, [r6, #10]
    6354:	4a07      	ldr	r2, [pc, #28]	; (6374 <gapc_con_req_ind+0xd8>)
    6356:	9102      	str	r1, [sp, #8]
    6358:	1c10      	adds	r0, r2, #0
    635a:	1c19      	adds	r1, r3, #0
    635c:	4c06      	ldr	r4, [pc, #24]	; (6378 <gapc_con_req_ind+0xdc>)
    635e:	47a0      	blx	r4
    6360:	b00b      	add	sp, #44	; 0x2c
    6362:	bdf0      	pop	{r4, r5, r6, r7, pc}
    6364:	20001afc 	.word	0x20001afc
    6368:	00007dbf 	.word	0x00007dbf
    636c:	00006049 	.word	0x00006049
    6370:	20001a6c 	.word	0x20001a6c
    6374:	20000f58 	.word	0x20000f58
    6378:	000061e1 	.word	0x000061e1

0000637c <gapc_disconnect_cmd_handler>:
    637c:	b510      	push	{r4, lr}
    637e:	2400      	movs	r4, #0
    6380:	2205      	movs	r2, #5
    6382:	4b0d      	ldr	r3, [pc, #52]	; (63b8 <gapc_disconnect_cmd_handler+0x3c>)
    6384:	609c      	str	r4, [r3, #8]
    6386:	60dc      	str	r4, [r3, #12]
    6388:	4b0c      	ldr	r3, [pc, #48]	; (63bc <gapc_disconnect_cmd_handler+0x40>)
    638a:	681b      	ldr	r3, [r3, #0]
    638c:	701a      	strb	r2, [r3, #0]
    638e:	3a01      	subs	r2, #1
    6390:	705a      	strb	r2, [r3, #1]
    6392:	320a      	adds	r2, #10
    6394:	709a      	strb	r2, [r3, #2]
    6396:	70da      	strb	r2, [r3, #3]
    6398:	3202      	adds	r2, #2
    639a:	715a      	strb	r2, [r3, #5]
    639c:	3a0f      	subs	r2, #15
    639e:	725a      	strb	r2, [r3, #9]
    63a0:	3201      	adds	r2, #1
    63a2:	7119      	strb	r1, [r3, #4]
    63a4:	719c      	strb	r4, [r3, #6]
    63a6:	721c      	strb	r4, [r3, #8]
    63a8:	7298      	strb	r0, [r3, #10]
    63aa:	71da      	strb	r2, [r3, #7]
    63ac:	1c18      	adds	r0, r3, #0
    63ae:	210b      	movs	r1, #11
    63b0:	4b03      	ldr	r3, [pc, #12]	; (63c0 <gapc_disconnect_cmd_handler+0x44>)
    63b2:	4798      	blx	r3
    63b4:	1c20      	adds	r0, r4, #0
    63b6:	bd10      	pop	{r4, pc}
    63b8:	20001a5c 	.word	0x20001a5c
    63bc:	00009e74 	.word	0x00009e74
    63c0:	000055cd 	.word	0x000055cd

000063c4 <gapc_disconnect_ind>:
    63c4:	b510      	push	{r4, lr}
    63c6:	1c04      	adds	r4, r0, #0
    63c8:	7843      	ldrb	r3, [r0, #1]
    63ca:	7800      	ldrb	r0, [r0, #0]
    63cc:	021b      	lsls	r3, r3, #8
    63ce:	4318      	orrs	r0, r3
    63d0:	8008      	strh	r0, [r1, #0]
    63d2:	78a3      	ldrb	r3, [r4, #2]
    63d4:	1c0a      	adds	r2, r1, #0
    63d6:	70cb      	strb	r3, [r1, #3]
    63d8:	2100      	movs	r1, #0
    63da:	4b06      	ldr	r3, [pc, #24]	; (63f4 <gapc_disconnect_ind+0x30>)
    63dc:	7091      	strb	r1, [r2, #2]
    63de:	4798      	blx	r3
    63e0:	2807      	cmp	r0, #7
    63e2:	d806      	bhi.n	63f2 <gapc_disconnect_ind+0x2e>
    63e4:	2312      	movs	r3, #18
    63e6:	4358      	muls	r0, r3
    63e8:	4b03      	ldr	r3, [pc, #12]	; (63f8 <gapc_disconnect_ind+0x34>)
    63ea:	1818      	adds	r0, r3, r0
    63ec:	2301      	movs	r3, #1
    63ee:	425b      	negs	r3, r3
    63f0:	8143      	strh	r3, [r0, #10]
    63f2:	bd10      	pop	{r4, pc}
    63f4:	0000600d 	.word	0x0000600d
    63f8:	20001a6c 	.word	0x20001a6c

000063fc <gapc_bond_cmd_handler>:
    63fc:	b5f7      	push	{r0, r1, r2, r4, r5, r6, r7, lr}
    63fe:	2400      	movs	r4, #0
    6400:	4684      	mov	ip, r0
    6402:	a808      	add	r0, sp, #32
    6404:	7807      	ldrb	r7, [r0, #0]
    6406:	a809      	add	r0, sp, #36	; 0x24
    6408:	7806      	ldrb	r6, [r0, #0]
    640a:	a80a      	add	r0, sp, #40	; 0x28
    640c:	7800      	ldrb	r0, [r0, #0]
    640e:	2505      	movs	r5, #5
    6410:	9000      	str	r0, [sp, #0]
    6412:	a80b      	add	r0, sp, #44	; 0x2c
    6414:	7800      	ldrb	r0, [r0, #0]
    6416:	9001      	str	r0, [sp, #4]
    6418:	4811      	ldr	r0, [pc, #68]	; (6460 <gapc_bond_cmd_handler+0x64>)
    641a:	6084      	str	r4, [r0, #8]
    641c:	60c4      	str	r4, [r0, #12]
    641e:	4811      	ldr	r0, [pc, #68]	; (6464 <gapc_bond_cmd_handler+0x68>)
    6420:	6800      	ldr	r0, [r0, #0]
    6422:	7303      	strb	r3, [r0, #12]
    6424:	466b      	mov	r3, sp
    6426:	781b      	ldrb	r3, [r3, #0]
    6428:	7005      	strb	r5, [r0, #0]
    642a:	73c3      	strb	r3, [r0, #15]
    642c:	350d      	adds	r5, #13
    642e:	466b      	mov	r3, sp
    6430:	7045      	strb	r5, [r0, #1]
    6432:	3d04      	subs	r5, #4
    6434:	7085      	strb	r5, [r0, #2]
    6436:	70c5      	strb	r5, [r0, #3]
    6438:	4665      	mov	r5, ip
    643a:	791b      	ldrb	r3, [r3, #4]
    643c:	7105      	strb	r5, [r0, #4]
    643e:	7403      	strb	r3, [r0, #16]
    6440:	2510      	movs	r5, #16
    6442:	2308      	movs	r3, #8
    6444:	7184      	strb	r4, [r0, #6]
    6446:	7204      	strb	r4, [r0, #8]
    6448:	340a      	adds	r4, #10
    644a:	7145      	strb	r5, [r0, #5]
    644c:	7347      	strb	r7, [r0, #13]
    644e:	7386      	strb	r6, [r0, #14]
    6450:	7244      	strb	r4, [r0, #9]
    6452:	7281      	strb	r1, [r0, #10]
    6454:	72c2      	strb	r2, [r0, #11]
    6456:	71c3      	strb	r3, [r0, #7]
    6458:	2111      	movs	r1, #17
    645a:	4b03      	ldr	r3, [pc, #12]	; (6468 <gapc_bond_cmd_handler+0x6c>)
    645c:	4798      	blx	r3
    645e:	bdf7      	pop	{r0, r1, r2, r4, r5, r6, r7, pc}
    6460:	20001a5c 	.word	0x20001a5c
    6464:	00009e74 	.word	0x00009e74
    6468:	000055cd 	.word	0x000055cd

0000646c <gapc_bond_ind>:
    646c:	b5f8      	push	{r3, r4, r5, r6, r7, lr}
    646e:	780e      	ldrb	r6, [r1, #0]
    6470:	1c03      	adds	r3, r0, #0
    6472:	1eb0      	subs	r0, r6, #2
    6474:	2805      	cmp	r0, #5
    6476:	d85d      	bhi.n	6534 <gapc_bond_ind+0xc8>
    6478:	1c15      	adds	r5, r2, #0
    647a:	1c0c      	adds	r4, r1, #0
    647c:	f001 fba8 	bl	7bd0 <__gnu_thumb1_case_uqi>
    6480:	2f5a030d 	.word	0x2f5a030d
    6484:	4740      	.short	0x4740
    6486:	2009      	movs	r0, #9
    6488:	2a00      	cmp	r2, #0
    648a:	d054      	beq.n	6536 <gapc_bond_ind+0xca>
    648c:	0a1b      	lsrs	r3, r3, #8
    648e:	8053      	strh	r3, [r2, #2]
    6490:	788b      	ldrb	r3, [r1, #2]
    6492:	4829      	ldr	r0, [pc, #164]	; (6538 <gapc_bond_ind+0xcc>)
    6494:	7113      	strb	r3, [r2, #4]
    6496:	2100      	movs	r1, #0
    6498:	e01c      	b.n	64d4 <gapc_bond_ind+0x68>
    649a:	2009      	movs	r0, #9
    649c:	2a00      	cmp	r2, #0
    649e:	d04a      	beq.n	6536 <gapc_bond_ind+0xca>
    64a0:	4c25      	ldr	r4, [pc, #148]	; (6538 <gapc_bond_ind+0xcc>)
    64a2:	0a1b      	lsrs	r3, r3, #8
    64a4:	8053      	strh	r3, [r2, #2]
    64a6:	788b      	ldrb	r3, [r1, #2]
    64a8:	2700      	movs	r7, #0
    64aa:	1c10      	adds	r0, r2, #0
    64ac:	1c21      	adds	r1, r4, #0
    64ae:	7013      	strb	r3, [r2, #0]
    64b0:	4e22      	ldr	r6, [pc, #136]	; (653c <gapc_bond_ind+0xd0>)
    64b2:	7117      	strb	r7, [r2, #4]
    64b4:	312e      	adds	r1, #46	; 0x2e
    64b6:	2217      	movs	r2, #23
    64b8:	3032      	adds	r0, #50	; 0x32
    64ba:	47b0      	blx	r6
    64bc:	1c28      	adds	r0, r5, #0
    64be:	1c21      	adds	r1, r4, #0
    64c0:	2210      	movs	r2, #16
    64c2:	311e      	adds	r1, #30
    64c4:	3022      	adds	r0, #34	; 0x22
    64c6:	47b0      	blx	r6
    64c8:	1ca1      	adds	r1, r4, #2
    64ca:	1da8      	adds	r0, r5, #6
    64cc:	221c      	movs	r2, #28
    64ce:	47b0      	blx	r6
    64d0:	1c20      	adds	r0, r4, #0
    64d2:	1c39      	adds	r1, r7, #0
    64d4:	2246      	movs	r2, #70	; 0x46
    64d6:	4b1a      	ldr	r3, [pc, #104]	; (6540 <gapc_bond_ind+0xd4>)
    64d8:	4798      	blx	r3
    64da:	2009      	movs	r0, #9
    64dc:	e02b      	b.n	6536 <gapc_bond_ind+0xca>
    64de:	4d16      	ldr	r5, [pc, #88]	; (6538 <gapc_bond_ind+0xcc>)
    64e0:	3102      	adds	r1, #2
    64e2:	1c28      	adds	r0, r5, #0
    64e4:	2210      	movs	r2, #16
    64e6:	4e15      	ldr	r6, [pc, #84]	; (653c <gapc_bond_ind+0xd0>)
    64e8:	302e      	adds	r0, #46	; 0x2e
    64ea:	47b0      	blx	r6
    64ec:	1c28      	adds	r0, r5, #0
    64ee:	1c21      	adds	r1, r4, #0
    64f0:	303f      	adds	r0, #63	; 0x3f
    64f2:	3112      	adds	r1, #18
    64f4:	2206      	movs	r2, #6
    64f6:	47b0      	blx	r6
    64f8:	7e23      	ldrb	r3, [r4, #24]
    64fa:	353e      	adds	r5, #62	; 0x3e
    64fc:	702b      	strb	r3, [r5, #0]
    64fe:	e019      	b.n	6534 <gapc_bond_ind+0xc8>
    6500:	480d      	ldr	r0, [pc, #52]	; (6538 <gapc_bond_ind+0xcc>)
    6502:	3102      	adds	r1, #2
    6504:	2210      	movs	r2, #16
    6506:	4b0d      	ldr	r3, [pc, #52]	; (653c <gapc_bond_ind+0xd0>)
    6508:	301e      	adds	r0, #30
    650a:	4798      	blx	r3
    650c:	e012      	b.n	6534 <gapc_bond_ind+0xc8>
    650e:	4d0a      	ldr	r5, [pc, #40]	; (6538 <gapc_bond_ind+0xcc>)
    6510:	3102      	adds	r1, #2
    6512:	2210      	movs	r2, #16
    6514:	4e09      	ldr	r6, [pc, #36]	; (653c <gapc_bond_ind+0xd0>)
    6516:	1ca8      	adds	r0, r5, #2
    6518:	47b0      	blx	r6
    651a:	1c28      	adds	r0, r5, #0
    651c:	1c21      	adds	r1, r4, #0
    651e:	7ce3      	ldrb	r3, [r4, #19]
    6520:	7ca2      	ldrb	r2, [r4, #18]
    6522:	021b      	lsls	r3, r3, #8
    6524:	4313      	orrs	r3, r2
    6526:	3014      	adds	r0, #20
    6528:	3114      	adds	r1, #20
    652a:	2208      	movs	r2, #8
    652c:	826b      	strh	r3, [r5, #18]
    652e:	47b0      	blx	r6
    6530:	7f23      	ldrb	r3, [r4, #28]
    6532:	772b      	strb	r3, [r5, #28]
    6534:	2000      	movs	r0, #0
    6536:	bdf8      	pop	{r3, r4, r5, r6, r7, pc}
    6538:	20000f12 	.word	0x20000f12
    653c:	00007dbf 	.word	0x00007dbf
    6540:	00007dd1 	.word	0x00007dd1

00006544 <gapc_bond_req_ind>:
    6544:	b5f8      	push	{r3, r4, r5, r6, r7, lr}
    6546:	780d      	ldrb	r5, [r1, #0]
    6548:	1c03      	adds	r3, r0, #0
    654a:	7849      	ldrb	r1, [r1, #1]
    654c:	2d07      	cmp	r5, #7
    654e:	d860      	bhi.n	6612 <gapc_bond_req_ind+0xce>
    6550:	1c28      	adds	r0, r5, #0
    6552:	f001 fb3d 	bl	7bd0 <__gnu_thumb1_case_uqi>
    6556:	5e04      	.short	0x5e04
    6558:	5e0b5e5e 	.word	0x5e0b5e5e
    655c:	1f1f      	.short	0x1f1f
    655e:	200a      	movs	r0, #10
    6560:	2a00      	cmp	r2, #0
    6562:	d057      	beq.n	6614 <gapc_bond_req_ind+0xd0>
    6564:	0a1b      	lsrs	r3, r3, #8
    6566:	8013      	strh	r3, [r2, #0]
    6568:	7091      	strb	r1, [r2, #2]
    656a:	e053      	b.n	6614 <gapc_bond_req_ind+0xd0>
    656c:	2a00      	cmp	r2, #0
    656e:	d00b      	beq.n	6588 <gapc_bond_req_ind+0x44>
    6570:	0a1b      	lsrs	r3, r3, #8
    6572:	8013      	strh	r3, [r2, #0]
    6574:	2900      	cmp	r1, #0
    6576:	d102      	bne.n	657e <gapc_bond_req_ind+0x3a>
    6578:	2301      	movs	r3, #1
    657a:	7093      	strb	r3, [r2, #2]
    657c:	e004      	b.n	6588 <gapc_bond_req_ind+0x44>
    657e:	2300      	movs	r3, #0
    6580:	7093      	strb	r3, [r2, #2]
    6582:	2902      	cmp	r1, #2
    6584:	d102      	bne.n	658c <gapc_bond_req_ind+0x48>
    6586:	70d3      	strb	r3, [r2, #3]
    6588:	200c      	movs	r0, #12
    658a:	e043      	b.n	6614 <gapc_bond_req_ind+0xd0>
    658c:	2901      	cmp	r1, #1
    658e:	d1fb      	bne.n	6588 <gapc_bond_req_ind+0x44>
    6590:	70d1      	strb	r1, [r2, #3]
    6592:	e7f9      	b.n	6588 <gapc_bond_req_ind+0x44>
    6594:	2100      	movs	r1, #0
    6596:	4a20      	ldr	r2, [pc, #128]	; (6618 <gapc_bond_req_ind+0xd4>)
    6598:	0a1b      	lsrs	r3, r3, #8
    659a:	6091      	str	r1, [r2, #8]
    659c:	60d1      	str	r1, [r2, #12]
    659e:	4a1f      	ldr	r2, [pc, #124]	; (661c <gapc_bond_req_ind+0xd8>)
    65a0:	4f1f      	ldr	r7, [pc, #124]	; (6620 <gapc_bond_req_ind+0xdc>)
    65a2:	6814      	ldr	r4, [r2, #0]
    65a4:	2205      	movs	r2, #5
    65a6:	7123      	strb	r3, [r4, #4]
    65a8:	1c20      	adds	r0, r4, #0
    65aa:	2301      	movs	r3, #1
    65ac:	7022      	strb	r2, [r4, #0]
    65ae:	320f      	adds	r2, #15
    65b0:	7062      	strb	r2, [r4, #1]
    65b2:	3a06      	subs	r2, #6
    65b4:	70a2      	strb	r2, [r4, #2]
    65b6:	70e2      	strb	r2, [r4, #3]
    65b8:	3202      	adds	r2, #2
    65ba:	71a1      	strb	r1, [r4, #6]
    65bc:	71e1      	strb	r1, [r4, #7]
    65be:	7221      	strb	r1, [r4, #8]
    65c0:	7162      	strb	r2, [r4, #5]
    65c2:	7265      	strb	r5, [r4, #9]
    65c4:	72a3      	strb	r3, [r4, #10]
    65c6:	300b      	adds	r0, #11
    65c8:	4e16      	ldr	r6, [pc, #88]	; (6624 <gapc_bond_req_ind+0xe0>)
    65ca:	1c39      	adds	r1, r7, #0
    65cc:	2d07      	cmp	r5, #7
    65ce:	d115      	bne.n	65fc <gapc_bond_req_ind+0xb8>
    65d0:	317e      	adds	r1, #126	; 0x7e
    65d2:	47b0      	blx	r6
    65d4:	1c3b      	adds	r3, r7, #0
    65d6:	1c20      	adds	r0, r4, #0
    65d8:	1c39      	adds	r1, r7, #0
    65da:	338e      	adds	r3, #142	; 0x8e
    65dc:	881a      	ldrh	r2, [r3, #0]
    65de:	3190      	adds	r1, #144	; 0x90
    65e0:	76e2      	strb	r2, [r4, #27]
    65e2:	881b      	ldrh	r3, [r3, #0]
    65e4:	2208      	movs	r2, #8
    65e6:	0a1b      	lsrs	r3, r3, #8
    65e8:	7723      	strb	r3, [r4, #28]
    65ea:	301d      	adds	r0, #29
    65ec:	47b0      	blx	r6
    65ee:	1c39      	adds	r1, r7, #0
    65f0:	3198      	adds	r1, #152	; 0x98
    65f2:	780a      	ldrb	r2, [r1, #0]
    65f4:	1da3      	adds	r3, r4, #6
    65f6:	77da      	strb	r2, [r3, #31]
    65f8:	2126      	movs	r1, #38	; 0x26
    65fa:	e002      	b.n	6602 <gapc_bond_req_ind+0xbe>
    65fc:	319a      	adds	r1, #154	; 0x9a
    65fe:	47b0      	blx	r6
    6600:	211b      	movs	r1, #27
    6602:	1c0b      	adds	r3, r1, #0
    6604:	2500      	movs	r5, #0
    6606:	3b09      	subs	r3, #9
    6608:	71e3      	strb	r3, [r4, #7]
    660a:	7225      	strb	r5, [r4, #8]
    660c:	1c20      	adds	r0, r4, #0
    660e:	4b06      	ldr	r3, [pc, #24]	; (6628 <gapc_bond_req_ind+0xe4>)
    6610:	4798      	blx	r3
    6612:	2000      	movs	r0, #0
    6614:	bdf8      	pop	{r3, r4, r5, r6, r7, pc}
    6616:	46c0      	nop			; (mov r8, r8)
    6618:	20001a5c 	.word	0x20001a5c
    661c:	00009e74 	.word	0x00009e74
    6620:	20001afc 	.word	0x20001afc
    6624:	00007dbf 	.word	0x00007dbf
    6628:	000055cd 	.word	0x000055cd

0000662c <gapc_bond_cfm_handler_pair_resp>:
    662c:	b5f0      	push	{r4, r5, r6, r7, lr}
    662e:	2400      	movs	r4, #0
    6630:	b085      	sub	sp, #20
    6632:	1c07      	adds	r7, r0, #0
    6634:	a80a      	add	r0, sp, #40	; 0x28
    6636:	7806      	ldrb	r6, [r0, #0]
    6638:	a80b      	add	r0, sp, #44	; 0x2c
    663a:	7800      	ldrb	r0, [r0, #0]
    663c:	2505      	movs	r5, #5
    663e:	9001      	str	r0, [sp, #4]
    6640:	a80c      	add	r0, sp, #48	; 0x30
    6642:	7800      	ldrb	r0, [r0, #0]
    6644:	9002      	str	r0, [sp, #8]
    6646:	a80d      	add	r0, sp, #52	; 0x34
    6648:	7800      	ldrb	r0, [r0, #0]
    664a:	9003      	str	r0, [sp, #12]
    664c:	a80e      	add	r0, sp, #56	; 0x38
    664e:	8800      	ldrh	r0, [r0, #0]
    6650:	4684      	mov	ip, r0
    6652:	4814      	ldr	r0, [pc, #80]	; (66a4 <gapc_bond_cfm_handler_pair_resp+0x78>)
    6654:	6084      	str	r4, [r0, #8]
    6656:	60c4      	str	r4, [r0, #12]
    6658:	4813      	ldr	r0, [pc, #76]	; (66a8 <gapc_bond_cfm_handler_pair_resp+0x7c>)
    665a:	6800      	ldr	r0, [r0, #0]
    665c:	7343      	strb	r3, [r0, #13]
    665e:	466b      	mov	r3, sp
    6660:	791b      	ldrb	r3, [r3, #4]
    6662:	7005      	strb	r5, [r0, #0]
    6664:	73c3      	strb	r3, [r0, #15]
    6666:	466b      	mov	r3, sp
    6668:	350f      	adds	r5, #15
    666a:	7045      	strb	r5, [r0, #1]
    666c:	3d06      	subs	r5, #6
    666e:	7085      	strb	r5, [r0, #2]
    6670:	70c5      	strb	r5, [r0, #3]
    6672:	4665      	mov	r5, ip
    6674:	7a1b      	ldrb	r3, [r3, #8]
    6676:	7105      	strb	r5, [r0, #4]
    6678:	7403      	strb	r3, [r0, #16]
    667a:	466b      	mov	r3, sp
    667c:	2510      	movs	r5, #16
    667e:	7b1b      	ldrb	r3, [r3, #12]
    6680:	7184      	strb	r4, [r0, #6]
    6682:	7204      	strb	r4, [r0, #8]
    6684:	3401      	adds	r4, #1
    6686:	7145      	strb	r5, [r0, #5]
    6688:	7244      	strb	r4, [r0, #9]
    668a:	7287      	strb	r7, [r0, #10]
    668c:	72c1      	strb	r1, [r0, #11]
    668e:	7302      	strb	r2, [r0, #12]
    6690:	7386      	strb	r6, [r0, #14]
    6692:	7443      	strb	r3, [r0, #17]
    6694:	2309      	movs	r3, #9
    6696:	2112      	movs	r1, #18
    6698:	71c3      	strb	r3, [r0, #7]
    669a:	4b04      	ldr	r3, [pc, #16]	; (66ac <gapc_bond_cfm_handler_pair_resp+0x80>)
    669c:	4798      	blx	r3
    669e:	b005      	add	sp, #20
    66a0:	bdf0      	pop	{r4, r5, r6, r7, pc}
    66a2:	46c0      	nop			; (mov r8, r8)
    66a4:	20001a5c 	.word	0x20001a5c
    66a8:	00009e74 	.word	0x00009e74
    66ac:	000055cd 	.word	0x000055cd

000066b0 <gapc_bond_cfm_handler_key_exch>:
    66b0:	b570      	push	{r4, r5, r6, lr}
    66b2:	2500      	movs	r5, #0
    66b4:	4c10      	ldr	r4, [pc, #64]	; (66f8 <gapc_bond_cfm_handler_key_exch+0x48>)
    66b6:	2605      	movs	r6, #5
    66b8:	60a5      	str	r5, [r4, #8]
    66ba:	60e5      	str	r5, [r4, #12]
    66bc:	4c0f      	ldr	r4, [pc, #60]	; (66fc <gapc_bond_cfm_handler_key_exch+0x4c>)
    66be:	6824      	ldr	r4, [r4, #0]
    66c0:	7123      	strb	r3, [r4, #4]
    66c2:	7260      	strb	r0, [r4, #9]
    66c4:	2310      	movs	r3, #16
    66c6:	1c20      	adds	r0, r4, #0
    66c8:	7026      	strb	r6, [r4, #0]
    66ca:	360f      	adds	r6, #15
    66cc:	7066      	strb	r6, [r4, #1]
    66ce:	3e06      	subs	r6, #6
    66d0:	70a6      	strb	r6, [r4, #2]
    66d2:	70e6      	strb	r6, [r4, #3]
    66d4:	7163      	strb	r3, [r4, #5]
    66d6:	71a5      	strb	r5, [r4, #6]
    66d8:	71e5      	strb	r5, [r4, #7]
    66da:	7225      	strb	r5, [r4, #8]
    66dc:	72a1      	strb	r1, [r4, #10]
    66de:	300b      	adds	r0, #11
    66e0:	1c11      	adds	r1, r2, #0
    66e2:	1c1a      	adds	r2, r3, #0
    66e4:	4b06      	ldr	r3, [pc, #24]	; (6700 <gapc_bond_cfm_handler_key_exch+0x50>)
    66e6:	4798      	blx	r3
    66e8:	2312      	movs	r3, #18
    66ea:	1c20      	adds	r0, r4, #0
    66ec:	71e3      	strb	r3, [r4, #7]
    66ee:	211b      	movs	r1, #27
    66f0:	4b04      	ldr	r3, [pc, #16]	; (6704 <gapc_bond_cfm_handler_key_exch+0x54>)
    66f2:	4798      	blx	r3
    66f4:	bd70      	pop	{r4, r5, r6, pc}
    66f6:	46c0      	nop			; (mov r8, r8)
    66f8:	20001a5c 	.word	0x20001a5c
    66fc:	00009e74 	.word	0x00009e74
    6700:	00007dbf 	.word	0x00007dbf
    6704:	000055cd 	.word	0x000055cd

00006708 <gapc_encrypt_cmd_handler>:
    6708:	b5f0      	push	{r4, r5, r6, r7, lr}
    670a:	2500      	movs	r5, #0
    670c:	b089      	sub	sp, #36	; 0x24
    670e:	9306      	str	r3, [sp, #24]
    6710:	ab0e      	add	r3, sp, #56	; 0x38
    6712:	781b      	ldrb	r3, [r3, #0]
    6714:	1c17      	adds	r7, r2, #0
    6716:	9307      	str	r3, [sp, #28]
    6718:	ab0f      	add	r3, sp, #60	; 0x3c
    671a:	781b      	ldrb	r3, [r3, #0]
    671c:	4a1b      	ldr	r2, [pc, #108]	; (678c <gapc_encrypt_cmd_handler+0x84>)
    671e:	1c06      	adds	r6, r0, #0
    6720:	9105      	str	r1, [sp, #20]
    6722:	9300      	str	r3, [sp, #0]
    6724:	9501      	str	r5, [sp, #4]
    6726:	9002      	str	r0, [sp, #8]
    6728:	1c29      	adds	r1, r5, #0
    672a:	1c2b      	adds	r3, r5, #0
    672c:	1c10      	adds	r0, r2, #0
    672e:	4c18      	ldr	r4, [pc, #96]	; (6790 <gapc_encrypt_cmd_handler+0x88>)
    6730:	47a0      	blx	r4
    6732:	4b18      	ldr	r3, [pc, #96]	; (6794 <gapc_encrypt_cmd_handler+0x8c>)
    6734:	2210      	movs	r2, #16
    6736:	609d      	str	r5, [r3, #8]
    6738:	60dd      	str	r5, [r3, #12]
    673a:	4b17      	ldr	r3, [pc, #92]	; (6798 <gapc_encrypt_cmd_handler+0x90>)
    673c:	9905      	ldr	r1, [sp, #20]
    673e:	681c      	ldr	r4, [r3, #0]
    6740:	2305      	movs	r3, #5
    6742:	7023      	strb	r3, [r4, #0]
    6744:	3311      	adds	r3, #17
    6746:	7063      	strb	r3, [r4, #1]
    6748:	3b08      	subs	r3, #8
    674a:	70a3      	strb	r3, [r4, #2]
    674c:	70e3      	strb	r3, [r4, #3]
    674e:	3b03      	subs	r3, #3
    6750:	7162      	strb	r2, [r4, #5]
    6752:	71a5      	strb	r5, [r4, #6]
    6754:	71e5      	strb	r5, [r4, #7]
    6756:	7225      	strb	r5, [r4, #8]
    6758:	7263      	strb	r3, [r4, #9]
    675a:	72a5      	strb	r5, [r4, #10]
    675c:	18e0      	adds	r0, r4, r3
    675e:	4d0f      	ldr	r5, [pc, #60]	; (679c <gapc_encrypt_cmd_handler+0x94>)
    6760:	7126      	strb	r6, [r4, #4]
    6762:	47a8      	blx	r5
    6764:	1c20      	adds	r0, r4, #0
    6766:	0a3b      	lsrs	r3, r7, #8
    6768:	7723      	strb	r3, [r4, #28]
    676a:	9906      	ldr	r1, [sp, #24]
    676c:	76e7      	strb	r7, [r4, #27]
    676e:	2208      	movs	r2, #8
    6770:	301d      	adds	r0, #29
    6772:	47a8      	blx	r5
    6774:	466a      	mov	r2, sp
    6776:	7f12      	ldrb	r2, [r2, #28]
    6778:	1da3      	adds	r3, r4, #6
    677a:	77da      	strb	r2, [r3, #31]
    677c:	231d      	movs	r3, #29
    677e:	1c20      	adds	r0, r4, #0
    6780:	71e3      	strb	r3, [r4, #7]
    6782:	2126      	movs	r1, #38	; 0x26
    6784:	4b06      	ldr	r3, [pc, #24]	; (67a0 <gapc_encrypt_cmd_handler+0x98>)
    6786:	4798      	blx	r3
    6788:	b009      	add	sp, #36	; 0x24
    678a:	bdf0      	pop	{r4, r5, r6, r7, pc}
    678c:	20000f68 	.word	0x20000f68
    6790:	000061e1 	.word	0x000061e1
    6794:	20001a5c 	.word	0x20001a5c
    6798:	00009e74 	.word	0x00009e74
    679c:	00007dbf 	.word	0x00007dbf
    67a0:	000055cd 	.word	0x000055cd

000067a4 <gapc_encrypt_req_ind>:
    67a4:	b508      	push	{r3, lr}
    67a6:	0a00      	lsrs	r0, r0, #8
    67a8:	8010      	strh	r0, [r2, #0]
    67aa:	784b      	ldrb	r3, [r1, #1]
    67ac:	7808      	ldrb	r0, [r1, #0]
    67ae:	021b      	lsls	r3, r3, #8
    67b0:	4303      	orrs	r3, r0
    67b2:	8053      	strh	r3, [r2, #2]
    67b4:	1d10      	adds	r0, r2, #4
    67b6:	3102      	adds	r1, #2
    67b8:	2208      	movs	r2, #8
    67ba:	4b01      	ldr	r3, [pc, #4]	; (67c0 <gapc_encrypt_req_ind+0x1c>)
    67bc:	4798      	blx	r3
    67be:	bd08      	pop	{r3, pc}
    67c0:	00007dbf 	.word	0x00007dbf

000067c4 <gapc_encrypt_cfm_handler>:
    67c4:	b5f0      	push	{r4, r5, r6, r7, lr}
    67c6:	2500      	movs	r5, #0
    67c8:	b087      	sub	sp, #28
    67ca:	9304      	str	r3, [sp, #16]
    67cc:	ab0c      	add	r3, sp, #48	; 0x30
    67ce:	781b      	ldrb	r3, [r3, #0]
    67d0:	1c17      	adds	r7, r2, #0
    67d2:	4a17      	ldr	r2, [pc, #92]	; (6830 <gapc_encrypt_cfm_handler+0x6c>)
    67d4:	1c06      	adds	r6, r0, #0
    67d6:	9305      	str	r3, [sp, #20]
    67d8:	9100      	str	r1, [sp, #0]
    67da:	9002      	str	r0, [sp, #8]
    67dc:	1c29      	adds	r1, r5, #0
    67de:	1c2b      	adds	r3, r5, #0
    67e0:	9501      	str	r5, [sp, #4]
    67e2:	1c10      	adds	r0, r2, #0
    67e4:	4c13      	ldr	r4, [pc, #76]	; (6834 <gapc_encrypt_cfm_handler+0x70>)
    67e6:	47a0      	blx	r4
    67e8:	4b13      	ldr	r3, [pc, #76]	; (6838 <gapc_encrypt_cfm_handler+0x74>)
    67ea:	2210      	movs	r2, #16
    67ec:	609d      	str	r5, [r3, #8]
    67ee:	60dd      	str	r5, [r3, #12]
    67f0:	4b12      	ldr	r3, [pc, #72]	; (683c <gapc_encrypt_cfm_handler+0x78>)
    67f2:	9904      	ldr	r1, [sp, #16]
    67f4:	681c      	ldr	r4, [r3, #0]
    67f6:	2305      	movs	r3, #5
    67f8:	1c20      	adds	r0, r4, #0
    67fa:	7023      	strb	r3, [r4, #0]
    67fc:	3313      	adds	r3, #19
    67fe:	7063      	strb	r3, [r4, #1]
    6800:	3b0a      	subs	r3, #10
    6802:	70a3      	strb	r3, [r4, #2]
    6804:	70e3      	strb	r3, [r4, #3]
    6806:	7162      	strb	r2, [r4, #5]
    6808:	7126      	strb	r6, [r4, #4]
    680a:	71a5      	strb	r5, [r4, #6]
    680c:	71e5      	strb	r5, [r4, #7]
    680e:	7225      	strb	r5, [r4, #8]
    6810:	7267      	strb	r7, [r4, #9]
    6812:	4b0b      	ldr	r3, [pc, #44]	; (6840 <gapc_encrypt_cfm_handler+0x7c>)
    6814:	300a      	adds	r0, #10
    6816:	4798      	blx	r3
    6818:	466b      	mov	r3, sp
    681a:	7d1b      	ldrb	r3, [r3, #20]
    681c:	1c20      	adds	r0, r4, #0
    681e:	76a3      	strb	r3, [r4, #26]
    6820:	2312      	movs	r3, #18
    6822:	211b      	movs	r1, #27
    6824:	71e3      	strb	r3, [r4, #7]
    6826:	4b07      	ldr	r3, [pc, #28]	; (6844 <gapc_encrypt_cfm_handler+0x80>)
    6828:	4798      	blx	r3
    682a:	b007      	add	sp, #28
    682c:	bdf0      	pop	{r4, r5, r6, r7, pc}
    682e:	46c0      	nop			; (mov r8, r8)
    6830:	20000f01 	.word	0x20000f01
    6834:	000061e1 	.word	0x000061e1
    6838:	20001a5c 	.word	0x20001a5c
    683c:	00009e74 	.word	0x00009e74
    6840:	00007dbf 	.word	0x00007dbf
    6844:	000055cd 	.word	0x000055cd

00006848 <gapc_encrypt_ind>:
    6848:	780b      	ldrb	r3, [r1, #0]
    684a:	0a00      	lsrs	r0, r0, #8
    684c:	70d3      	strb	r3, [r2, #3]
    684e:	2300      	movs	r3, #0
    6850:	8010      	strh	r0, [r2, #0]
    6852:	7093      	strb	r3, [r2, #2]
    6854:	4770      	bx	lr
	...

00006858 <gapc_param_update_cfm_handler>:
    6858:	b5f8      	push	{r3, r4, r5, r6, r7, lr}
    685a:	2400      	movs	r4, #0
    685c:	1c0e      	adds	r6, r1, #0
    685e:	490f      	ldr	r1, [pc, #60]	; (689c <gapc_param_update_cfm_handler+0x44>)
    6860:	1c05      	adds	r5, r0, #0
    6862:	60cc      	str	r4, [r1, #12]
    6864:	608c      	str	r4, [r1, #8]
    6866:	490e      	ldr	r1, [pc, #56]	; (68a0 <gapc_param_update_cfm_handler+0x48>)
    6868:	2705      	movs	r7, #5
    686a:	6808      	ldr	r0, [r1, #0]
    686c:	2110      	movs	r1, #16
    686e:	468c      	mov	ip, r1
    6870:	7041      	strb	r1, [r0, #1]
    6872:	7105      	strb	r5, [r0, #4]
    6874:	210e      	movs	r1, #14
    6876:	4665      	mov	r5, ip
    6878:	7282      	strb	r2, [r0, #10]
    687a:	7303      	strb	r3, [r0, #12]
    687c:	0a12      	lsrs	r2, r2, #8
    687e:	0a1b      	lsrs	r3, r3, #8
    6880:	7007      	strb	r7, [r0, #0]
    6882:	7145      	strb	r5, [r0, #5]
    6884:	7246      	strb	r6, [r0, #9]
    6886:	71c7      	strb	r7, [r0, #7]
    6888:	7081      	strb	r1, [r0, #2]
    688a:	70c1      	strb	r1, [r0, #3]
    688c:	7184      	strb	r4, [r0, #6]
    688e:	7204      	strb	r4, [r0, #8]
    6890:	72c2      	strb	r2, [r0, #11]
    6892:	7343      	strb	r3, [r0, #13]
    6894:	4b03      	ldr	r3, [pc, #12]	; (68a4 <gapc_param_update_cfm_handler+0x4c>)
    6896:	4798      	blx	r3
    6898:	1c20      	adds	r0, r4, #0
    689a:	bdf8      	pop	{r3, r4, r5, r6, r7, pc}
    689c:	20001a5c 	.word	0x20001a5c
    68a0:	00009e74 	.word	0x00009e74
    68a4:	000055cd 	.word	0x000055cd

000068a8 <gapc_param_updated_ind>:
    68a8:	2300      	movs	r3, #0
    68aa:	0a00      	lsrs	r0, r0, #8
    68ac:	8010      	strh	r0, [r2, #0]
    68ae:	7093      	strb	r3, [r2, #2]
    68b0:	784b      	ldrb	r3, [r1, #1]
    68b2:	7808      	ldrb	r0, [r1, #0]
    68b4:	021b      	lsls	r3, r3, #8
    68b6:	4303      	orrs	r3, r0
    68b8:	8093      	strh	r3, [r2, #4]
    68ba:	78cb      	ldrb	r3, [r1, #3]
    68bc:	7888      	ldrb	r0, [r1, #2]
    68be:	021b      	lsls	r3, r3, #8
    68c0:	4303      	orrs	r3, r0
    68c2:	80d3      	strh	r3, [r2, #6]
    68c4:	794b      	ldrb	r3, [r1, #5]
    68c6:	7909      	ldrb	r1, [r1, #4]
    68c8:	021b      	lsls	r3, r3, #8
    68ca:	430b      	orrs	r3, r1
    68cc:	2007      	movs	r0, #7
    68ce:	8113      	strh	r3, [r2, #8]
    68d0:	4770      	bx	lr

000068d2 <gapc_param_updated_req_ind>:
    68d2:	0a00      	lsrs	r0, r0, #8
    68d4:	8010      	strh	r0, [r2, #0]
    68d6:	784b      	ldrb	r3, [r1, #1]
    68d8:	7808      	ldrb	r0, [r1, #0]
    68da:	021b      	lsls	r3, r3, #8
    68dc:	4303      	orrs	r3, r0
    68de:	8053      	strh	r3, [r2, #2]
    68e0:	78cb      	ldrb	r3, [r1, #3]
    68e2:	7888      	ldrb	r0, [r1, #2]
    68e4:	021b      	lsls	r3, r3, #8
    68e6:	4303      	orrs	r3, r0
    68e8:	8093      	strh	r3, [r2, #4]
    68ea:	794b      	ldrb	r3, [r1, #5]
    68ec:	7908      	ldrb	r0, [r1, #4]
    68ee:	021b      	lsls	r3, r3, #8
    68f0:	4303      	orrs	r3, r0
    68f2:	80d3      	strh	r3, [r2, #6]
    68f4:	79cb      	ldrb	r3, [r1, #7]
    68f6:	7989      	ldrb	r1, [r1, #6]
    68f8:	021b      	lsls	r3, r3, #8
    68fa:	430b      	orrs	r3, r1
    68fc:	2008      	movs	r0, #8
    68fe:	8113      	strh	r3, [r2, #8]
    6900:	4770      	bx	lr
	...

00006904 <gapc_dev_info_req_ind_handler>:
    6904:	b538      	push	{r3, r4, r5, lr}
    6906:	1c0b      	adds	r3, r1, #0
    6908:	0a01      	lsrs	r1, r0, #8
    690a:	8011      	strh	r1, [r2, #0]
    690c:	7818      	ldrb	r0, [r3, #0]
    690e:	7090      	strb	r0, [r2, #2]
    6910:	2800      	cmp	r0, #0
    6912:	d10f      	bne.n	6934 <gapc_dev_info_req_ind_handler+0x30>
    6914:	4b09      	ldr	r3, [pc, #36]	; (693c <gapc_dev_info_req_ind_handler+0x38>)
    6916:	33aa      	adds	r3, #170	; 0xaa
    6918:	881b      	ldrh	r3, [r3, #0]
    691a:	2b00      	cmp	r3, #0
    691c:	d10a      	bne.n	6934 <gapc_dev_info_req_ind_handler+0x30>
    691e:	4c08      	ldr	r4, [pc, #32]	; (6940 <gapc_dev_info_req_ind_handler+0x3c>)
    6920:	4908      	ldr	r1, [pc, #32]	; (6944 <gapc_dev_info_req_ind_handler+0x40>)
    6922:	4a09      	ldr	r2, [pc, #36]	; (6948 <gapc_dev_info_req_ind_handler+0x44>)
    6924:	4b09      	ldr	r3, [pc, #36]	; (694c <gapc_dev_info_req_ind_handler+0x48>)
    6926:	6825      	ldr	r5, [r4, #0]
    6928:	4809      	ldr	r0, [pc, #36]	; (6950 <gapc_dev_info_req_ind_handler+0x4c>)
    692a:	47a8      	blx	r5
    692c:	6823      	ldr	r3, [r4, #0]
    692e:	4809      	ldr	r0, [pc, #36]	; (6954 <gapc_dev_info_req_ind_handler+0x50>)
    6930:	4798      	blx	r3
    6932:	e001      	b.n	6938 <gapc_dev_info_req_ind_handler+0x34>
    6934:	4b08      	ldr	r3, [pc, #32]	; (6958 <gapc_dev_info_req_ind_handler+0x54>)
    6936:	4798      	blx	r3
    6938:	bd38      	pop	{r3, r4, r5, pc}
    693a:	46c0      	nop			; (mov r8, r8)
    693c:	20001afc 	.word	0x20001afc
    6940:	200000ec 	.word	0x200000ec
    6944:	0000a051 	.word	0x0000a051
    6948:	000002b2 	.word	0x000002b2
    694c:	0000a033 	.word	0x0000a033
    6950:	00009a19 	.word	0x00009a19
    6954:	0000a136 	.word	0x0000a136
    6958:	00005f35 	.word	0x00005f35

0000695c <gapc_sec_req_ind>:
    695c:	0a00      	lsrs	r0, r0, #8
    695e:	8010      	strh	r0, [r2, #0]
    6960:	7809      	ldrb	r1, [r1, #0]
    6962:	2301      	movs	r3, #1
    6964:	1c08      	adds	r0, r1, #0
    6966:	0889      	lsrs	r1, r1, #2
    6968:	4018      	ands	r0, r3
    696a:	400b      	ands	r3, r1
    696c:	70d0      	strb	r0, [r2, #3]
    696e:	7113      	strb	r3, [r2, #4]
    6970:	4770      	bx	lr

00006972 <gapc_sign_counter_ind_handler>:
    6972:	0a00      	lsrs	r0, r0, #8
    6974:	8010      	strh	r0, [r2, #0]
    6976:	784b      	ldrb	r3, [r1, #1]
    6978:	0218      	lsls	r0, r3, #8
    697a:	788b      	ldrb	r3, [r1, #2]
    697c:	041b      	lsls	r3, r3, #16
    697e:	4303      	orrs	r3, r0
    6980:	7808      	ldrb	r0, [r1, #0]
    6982:	4303      	orrs	r3, r0
    6984:	78c8      	ldrb	r0, [r1, #3]
    6986:	0600      	lsls	r0, r0, #24
    6988:	4303      	orrs	r3, r0
    698a:	6053      	str	r3, [r2, #4]
    698c:	794b      	ldrb	r3, [r1, #5]
    698e:	0218      	lsls	r0, r3, #8
    6990:	798b      	ldrb	r3, [r1, #6]
    6992:	041b      	lsls	r3, r3, #16
    6994:	4303      	orrs	r3, r0
    6996:	7908      	ldrb	r0, [r1, #4]
    6998:	79c9      	ldrb	r1, [r1, #7]
    699a:	4303      	orrs	r3, r0
    699c:	0609      	lsls	r1, r1, #24
    699e:	430b      	orrs	r3, r1
    69a0:	2000      	movs	r0, #0
    69a2:	6093      	str	r3, [r2, #8]
    69a4:	4770      	bx	lr
	...

000069a8 <gapc_peer_att_info_ind_handler>:
    69a8:	b510      	push	{r4, lr}
    69aa:	0a00      	lsrs	r0, r0, #8
    69ac:	8010      	strh	r0, [r2, #0]
    69ae:	7808      	ldrb	r0, [r1, #0]
    69b0:	7090      	strb	r0, [r2, #2]
    69b2:	788b      	ldrb	r3, [r1, #2]
    69b4:	784c      	ldrb	r4, [r1, #1]
    69b6:	021b      	lsls	r3, r3, #8
    69b8:	4323      	orrs	r3, r4
    69ba:	8093      	strh	r3, [r2, #4]
    69bc:	2801      	cmp	r0, #1
    69be:	d027      	beq.n	6a10 <gapc_peer_att_info_ind_handler+0x68>
    69c0:	2800      	cmp	r0, #0
    69c2:	d017      	beq.n	69f4 <gapc_peer_att_info_ind_handler+0x4c>
    69c4:	2802      	cmp	r0, #2
    69c6:	d12a      	bne.n	6a1e <gapc_peer_att_info_ind_handler+0x76>
    69c8:	790b      	ldrb	r3, [r1, #4]
    69ca:	78c8      	ldrb	r0, [r1, #3]
    69cc:	021b      	lsls	r3, r3, #8
    69ce:	4303      	orrs	r3, r0
    69d0:	8113      	strh	r3, [r2, #8]
    69d2:	798b      	ldrb	r3, [r1, #6]
    69d4:	7948      	ldrb	r0, [r1, #5]
    69d6:	021b      	lsls	r3, r3, #8
    69d8:	4303      	orrs	r3, r0
    69da:	80d3      	strh	r3, [r2, #6]
    69dc:	7a0b      	ldrb	r3, [r1, #8]
    69de:	79c8      	ldrb	r0, [r1, #7]
    69e0:	021b      	lsls	r3, r3, #8
    69e2:	4303      	orrs	r3, r0
    69e4:	8193      	strh	r3, [r2, #12]
    69e6:	7a8b      	ldrb	r3, [r1, #10]
    69e8:	7a49      	ldrb	r1, [r1, #9]
    69ea:	021b      	lsls	r3, r3, #8
    69ec:	430b      	orrs	r3, r1
    69ee:	8153      	strh	r3, [r2, #10]
    69f0:	2306      	movs	r3, #6
    69f2:	e013      	b.n	6a1c <gapc_peer_att_info_ind_handler+0x74>
    69f4:	1c14      	adds	r4, r2, #0
    69f6:	1c20      	adds	r0, r4, #0
    69f8:	790a      	ldrb	r2, [r1, #4]
    69fa:	78cb      	ldrb	r3, [r1, #3]
    69fc:	0212      	lsls	r2, r2, #8
    69fe:	431a      	orrs	r2, r3
    6a00:	80e2      	strh	r2, [r4, #6]
    6a02:	4b07      	ldr	r3, [pc, #28]	; (6a20 <gapc_peer_att_info_ind_handler+0x78>)
    6a04:	3008      	adds	r0, #8
    6a06:	3105      	adds	r1, #5
    6a08:	4798      	blx	r3
    6a0a:	2302      	movs	r3, #2
    6a0c:	70a3      	strb	r3, [r4, #2]
    6a0e:	e006      	b.n	6a1e <gapc_peer_att_info_ind_handler+0x76>
    6a10:	790b      	ldrb	r3, [r1, #4]
    6a12:	78c9      	ldrb	r1, [r1, #3]
    6a14:	021b      	lsls	r3, r3, #8
    6a16:	430b      	orrs	r3, r1
    6a18:	80d3      	strh	r3, [r2, #6]
    6a1a:	2305      	movs	r3, #5
    6a1c:	7093      	strb	r3, [r2, #2]
    6a1e:	bd10      	pop	{r4, pc}
    6a20:	00007dbf 	.word	0x00007dbf

00006a24 <gapc_con_channel_map_ind_handler>:
    6a24:	b508      	push	{r3, lr}
    6a26:	2300      	movs	r3, #0
    6a28:	0a00      	lsrs	r0, r0, #8
    6a2a:	7013      	strb	r3, [r2, #0]
    6a2c:	8050      	strh	r0, [r2, #2]
    6a2e:	4b02      	ldr	r3, [pc, #8]	; (6a38 <gapc_con_channel_map_ind_handler+0x14>)
    6a30:	1d10      	adds	r0, r2, #4
    6a32:	2205      	movs	r2, #5
    6a34:	4798      	blx	r3
    6a36:	bd08      	pop	{r3, pc}
    6a38:	00007dbf 	.word	0x00007dbf

00006a3c <gapc_lecb_connected>:
    6a3c:	7843      	ldrb	r3, [r0, #1]
    6a3e:	7802      	ldrb	r2, [r0, #0]
    6a40:	021b      	lsls	r3, r3, #8
    6a42:	4313      	orrs	r3, r2
    6a44:	800b      	strh	r3, [r1, #0]
    6a46:	78c3      	ldrb	r3, [r0, #3]
    6a48:	7882      	ldrb	r2, [r0, #2]
    6a4a:	021b      	lsls	r3, r3, #8
    6a4c:	4313      	orrs	r3, r2
    6a4e:	804b      	strh	r3, [r1, #2]
    6a50:	7943      	ldrb	r3, [r0, #5]
    6a52:	7902      	ldrb	r2, [r0, #4]
    6a54:	021b      	lsls	r3, r3, #8
    6a56:	4313      	orrs	r3, r2
    6a58:	808b      	strh	r3, [r1, #4]
    6a5a:	79c3      	ldrb	r3, [r0, #7]
    6a5c:	7982      	ldrb	r2, [r0, #6]
    6a5e:	021b      	lsls	r3, r3, #8
    6a60:	4313      	orrs	r3, r2
    6a62:	80cb      	strh	r3, [r1, #6]
    6a64:	2300      	movs	r3, #0
    6a66:	720b      	strb	r3, [r1, #8]
    6a68:	4770      	bx	lr

00006a6a <gapc_lecb_disconnected>:
    6a6a:	7843      	ldrb	r3, [r0, #1]
    6a6c:	7802      	ldrb	r2, [r0, #0]
    6a6e:	021b      	lsls	r3, r3, #8
    6a70:	4313      	orrs	r3, r2
    6a72:	800b      	strh	r3, [r1, #0]
    6a74:	78c3      	ldrb	r3, [r0, #3]
    6a76:	7882      	ldrb	r2, [r0, #2]
    6a78:	021b      	lsls	r3, r3, #8
    6a7a:	4313      	orrs	r3, r2
    6a7c:	804b      	strh	r3, [r1, #2]
    6a7e:	4770      	bx	lr

00006a80 <gapc_lecb_connect_req_ind>:
    6a80:	7843      	ldrb	r3, [r0, #1]
    6a82:	7802      	ldrb	r2, [r0, #0]
    6a84:	021b      	lsls	r3, r3, #8
    6a86:	4313      	orrs	r3, r2
    6a88:	800b      	strh	r3, [r1, #0]
    6a8a:	78c3      	ldrb	r3, [r0, #3]
    6a8c:	7882      	ldrb	r2, [r0, #2]
    6a8e:	021b      	lsls	r3, r3, #8
    6a90:	4313      	orrs	r3, r2
    6a92:	804b      	strh	r3, [r1, #2]
    6a94:	7943      	ldrb	r3, [r0, #5]
    6a96:	7902      	ldrb	r2, [r0, #4]
    6a98:	021b      	lsls	r3, r3, #8
    6a9a:	4313      	orrs	r3, r2
    6a9c:	808b      	strh	r3, [r1, #4]
    6a9e:	79c3      	ldrb	r3, [r0, #7]
    6aa0:	7982      	ldrb	r2, [r0, #6]
    6aa2:	021b      	lsls	r3, r3, #8
    6aa4:	4313      	orrs	r3, r2
    6aa6:	80cb      	strh	r3, [r1, #6]
    6aa8:	4770      	bx	lr

00006aaa <gapc_lecb_add_credit_resp_handler>:
    6aaa:	7843      	ldrb	r3, [r0, #1]
    6aac:	7802      	ldrb	r2, [r0, #0]
    6aae:	021b      	lsls	r3, r3, #8
    6ab0:	4313      	orrs	r3, r2
    6ab2:	800b      	strh	r3, [r1, #0]
    6ab4:	78c3      	ldrb	r3, [r0, #3]
    6ab6:	7882      	ldrb	r2, [r0, #2]
    6ab8:	021b      	lsls	r3, r3, #8
    6aba:	4313      	orrs	r3, r2
    6abc:	804b      	strh	r3, [r1, #2]
    6abe:	7943      	ldrb	r3, [r0, #5]
    6ac0:	7902      	ldrb	r2, [r0, #4]
    6ac2:	021b      	lsls	r3, r3, #8
    6ac4:	4313      	orrs	r3, r2
    6ac6:	808b      	strh	r3, [r1, #4]
    6ac8:	4770      	bx	lr
	...

00006acc <gapm_reset_req_handler>:
    6acc:	b5f8      	push	{r3, r4, r5, r6, r7, lr}
    6ace:	2300      	movs	r3, #0
    6ad0:	4a19      	ldr	r2, [pc, #100]	; (6b38 <gapm_reset_req_handler+0x6c>)
    6ad2:	4c1a      	ldr	r4, [pc, #104]	; (6b3c <gapm_reset_req_handler+0x70>)
    6ad4:	6810      	ldr	r0, [r2, #0]
    6ad6:	2205      	movs	r2, #5
    6ad8:	60a3      	str	r3, [r4, #8]
    6ada:	60e3      	str	r3, [r4, #12]
    6adc:	7103      	strb	r3, [r0, #4]
    6ade:	7183      	strb	r3, [r0, #6]
    6ae0:	7203      	strb	r3, [r0, #8]
    6ae2:	23d0      	movs	r3, #208	; 0xd0
    6ae4:	2110      	movs	r1, #16
    6ae6:	2501      	movs	r5, #1
    6ae8:	7002      	strb	r2, [r0, #0]
    6aea:	3a03      	subs	r2, #3
    6aec:	7042      	strb	r2, [r0, #1]
    6aee:	011b      	lsls	r3, r3, #4
    6af0:	320b      	adds	r2, #11
    6af2:	7082      	strb	r2, [r0, #2]
    6af4:	70c2      	strb	r2, [r0, #3]
    6af6:	7141      	strb	r1, [r0, #5]
    6af8:	8023      	strh	r3, [r4, #0]
    6afa:	3906      	subs	r1, #6
    6afc:	4b10      	ldr	r3, [pc, #64]	; (6b40 <gapm_reset_req_handler+0x74>)
    6afe:	7245      	strb	r5, [r0, #9]
    6b00:	71c5      	strb	r5, [r0, #7]
    6b02:	80a2      	strh	r2, [r4, #4]
    6b04:	4798      	blx	r3
    6b06:	4b0f      	ldr	r3, [pc, #60]	; (6b44 <gapm_reset_req_handler+0x78>)
    6b08:	4798      	blx	r3
    6b0a:	23d0      	movs	r3, #208	; 0xd0
    6b0c:	4298      	cmp	r0, r3
    6b0e:	d011      	beq.n	6b34 <gapm_reset_req_handler+0x68>
    6b10:	68a3      	ldr	r3, [r4, #8]
    6b12:	781c      	ldrb	r4, [r3, #0]
    6b14:	785b      	ldrb	r3, [r3, #1]
    6b16:	42ac      	cmp	r4, r5
    6b18:	d00c      	beq.n	6b34 <gapm_reset_req_handler+0x68>
    6b1a:	4e0b      	ldr	r6, [pc, #44]	; (6b48 <gapm_reset_req_handler+0x7c>)
    6b1c:	490b      	ldr	r1, [pc, #44]	; (6b4c <gapm_reset_req_handler+0x80>)
    6b1e:	2249      	movs	r2, #73	; 0x49
    6b20:	4b0b      	ldr	r3, [pc, #44]	; (6b50 <gapm_reset_req_handler+0x84>)
    6b22:	480c      	ldr	r0, [pc, #48]	; (6b54 <gapm_reset_req_handler+0x88>)
    6b24:	6837      	ldr	r7, [r6, #0]
    6b26:	47b8      	blx	r7
    6b28:	6833      	ldr	r3, [r6, #0]
    6b2a:	480b      	ldr	r0, [pc, #44]	; (6b58 <gapm_reset_req_handler+0x8c>)
    6b2c:	1c29      	adds	r1, r5, #0
    6b2e:	1c22      	adds	r2, r4, #0
    6b30:	4798      	blx	r3
    6b32:	23e2      	movs	r3, #226	; 0xe2
    6b34:	1c18      	adds	r0, r3, #0
    6b36:	bdf8      	pop	{r3, r4, r5, r6, r7, pc}
    6b38:	00009e74 	.word	0x00009e74
    6b3c:	20001a5c 	.word	0x20001a5c
    6b40:	000055cd 	.word	0x000055cd
    6b44:	00005831 	.word	0x00005831
    6b48:	200000ec 	.word	0x200000ec
    6b4c:	0000a181 	.word	0x0000a181
    6b50:	0000a14a 	.word	0x0000a14a
    6b54:	00009a19 	.word	0x00009a19
    6b58:	0000a1bc 	.word	0x0000a1bc

00006b5c <gapm_set_dev_config_cmd_handler>:
    6b5c:	b5f0      	push	{r4, r5, r6, r7, lr}
    6b5e:	b087      	sub	sp, #28
    6b60:	9303      	str	r3, [sp, #12]
    6b62:	ab0c      	add	r3, sp, #48	; 0x30
    6b64:	781b      	ldrb	r3, [r3, #0]
    6b66:	2605      	movs	r6, #5
    6b68:	9304      	str	r3, [sp, #16]
    6b6a:	ab0d      	add	r3, sp, #52	; 0x34
    6b6c:	781b      	ldrb	r3, [r3, #0]
    6b6e:	2710      	movs	r7, #16
    6b70:	9305      	str	r3, [sp, #20]
    6b72:	ab0e      	add	r3, sp, #56	; 0x38
    6b74:	881b      	ldrh	r3, [r3, #0]
    6b76:	4c38      	ldr	r4, [pc, #224]	; (6c58 <gapm_set_dev_config_cmd_handler+0xfc>)
    6b78:	9300      	str	r3, [sp, #0]
    6b7a:	ab0f      	add	r3, sp, #60	; 0x3c
    6b7c:	881b      	ldrh	r3, [r3, #0]
    6b7e:	6824      	ldr	r4, [r4, #0]
    6b80:	9301      	str	r3, [sp, #4]
    6b82:	ab10      	add	r3, sp, #64	; 0x40
    6b84:	881b      	ldrh	r3, [r3, #0]
    6b86:	4d35      	ldr	r5, [pc, #212]	; (6c5c <gapm_set_dev_config_cmd_handler+0x100>)
    6b88:	9302      	str	r3, [sp, #8]
    6b8a:	2300      	movs	r3, #0
    6b8c:	60eb      	str	r3, [r5, #12]
    6b8e:	60ab      	str	r3, [r5, #8]
    6b90:	7026      	strb	r6, [r4, #0]
    6b92:	3e01      	subs	r6, #1
    6b94:	7066      	strb	r6, [r4, #1]
    6b96:	7123      	strb	r3, [r4, #4]
    6b98:	3609      	adds	r6, #9
    6b9a:	71a3      	strb	r3, [r4, #6]
    6b9c:	71e3      	strb	r3, [r4, #7]
    6b9e:	7223      	strb	r3, [r4, #8]
    6ba0:	72e1      	strb	r1, [r4, #11]
    6ba2:	3303      	adds	r3, #3
    6ba4:	0a09      	lsrs	r1, r1, #8
    6ba6:	7263      	strb	r3, [r4, #9]
    6ba8:	7167      	strb	r7, [r4, #5]
    6baa:	72a0      	strb	r0, [r4, #10]
    6bac:	7321      	strb	r1, [r4, #12]
    6bae:	4f2c      	ldr	r7, [pc, #176]	; (6c60 <gapm_set_dev_config_cmd_handler+0x104>)
    6bb0:	1c11      	adds	r1, r2, #0
    6bb2:	70a6      	strb	r6, [r4, #2]
    6bb4:	2206      	movs	r2, #6
    6bb6:	70e6      	strb	r6, [r4, #3]
    6bb8:	19a0      	adds	r0, r4, r6
    6bba:	47b8      	blx	r7
    6bbc:	1c20      	adds	r0, r4, #0
    6bbe:	9903      	ldr	r1, [sp, #12]
    6bc0:	2210      	movs	r2, #16
    6bc2:	3013      	adds	r0, #19
    6bc4:	47b8      	blx	r7
    6bc6:	466a      	mov	r2, sp
    6bc8:	7c12      	ldrb	r2, [r2, #16]
    6bca:	1d23      	adds	r3, r4, #4
    6bcc:	77da      	strb	r2, [r3, #31]
    6bce:	466a      	mov	r2, sp
    6bd0:	7d12      	ldrb	r2, [r2, #20]
    6bd2:	1d63      	adds	r3, r4, #5
    6bd4:	77da      	strb	r2, [r3, #31]
    6bd6:	466a      	mov	r2, sp
    6bd8:	7812      	ldrb	r2, [r2, #0]
    6bda:	1da3      	adds	r3, r4, #6
    6bdc:	77da      	strb	r2, [r3, #31]
    6bde:	9b00      	ldr	r3, [sp, #0]
    6be0:	1de2      	adds	r2, r4, #7
    6be2:	0a1b      	lsrs	r3, r3, #8
    6be4:	77d3      	strb	r3, [r2, #31]
    6be6:	466a      	mov	r2, sp
    6be8:	1c23      	adds	r3, r4, #0
    6bea:	7912      	ldrb	r2, [r2, #4]
    6bec:	3308      	adds	r3, #8
    6bee:	77da      	strb	r2, [r3, #31]
    6bf0:	1c22      	adds	r2, r4, #0
    6bf2:	9b01      	ldr	r3, [sp, #4]
    6bf4:	3228      	adds	r2, #40	; 0x28
    6bf6:	0a1b      	lsrs	r3, r3, #8
    6bf8:	7013      	strb	r3, [r2, #0]
    6bfa:	466a      	mov	r2, sp
    6bfc:	1c23      	adds	r3, r4, #0
    6bfe:	7a12      	ldrb	r2, [r2, #8]
    6c00:	3329      	adds	r3, #41	; 0x29
    6c02:	701a      	strb	r2, [r3, #0]
    6c04:	1c22      	adds	r2, r4, #0
    6c06:	9b02      	ldr	r3, [sp, #8]
    6c08:	322a      	adds	r2, #42	; 0x2a
    6c0a:	0a1b      	lsrs	r3, r3, #8
    6c0c:	7013      	strb	r3, [r2, #0]
    6c0e:	23d0      	movs	r3, #208	; 0xd0
    6c10:	011b      	lsls	r3, r3, #4
    6c12:	802b      	strh	r3, [r5, #0]
    6c14:	2322      	movs	r3, #34	; 0x22
    6c16:	212b      	movs	r1, #43	; 0x2b
    6c18:	71e3      	strb	r3, [r4, #7]
    6c1a:	1c20      	adds	r0, r4, #0
    6c1c:	4b11      	ldr	r3, [pc, #68]	; (6c64 <gapm_set_dev_config_cmd_handler+0x108>)
    6c1e:	80ae      	strh	r6, [r5, #4]
    6c20:	4798      	blx	r3
    6c22:	4b11      	ldr	r3, [pc, #68]	; (6c68 <gapm_set_dev_config_cmd_handler+0x10c>)
    6c24:	4798      	blx	r3
    6c26:	23d0      	movs	r3, #208	; 0xd0
    6c28:	4298      	cmp	r0, r3
    6c2a:	d011      	beq.n	6c50 <gapm_set_dev_config_cmd_handler+0xf4>
    6c2c:	68ab      	ldr	r3, [r5, #8]
    6c2e:	781c      	ldrb	r4, [r3, #0]
    6c30:	785b      	ldrb	r3, [r3, #1]
    6c32:	2c03      	cmp	r4, #3
    6c34:	d00c      	beq.n	6c50 <gapm_set_dev_config_cmd_handler+0xf4>
    6c36:	4d0d      	ldr	r5, [pc, #52]	; (6c6c <gapm_set_dev_config_cmd_handler+0x110>)
    6c38:	490d      	ldr	r1, [pc, #52]	; (6c70 <gapm_set_dev_config_cmd_handler+0x114>)
    6c3a:	2265      	movs	r2, #101	; 0x65
    6c3c:	4b0d      	ldr	r3, [pc, #52]	; (6c74 <gapm_set_dev_config_cmd_handler+0x118>)
    6c3e:	480e      	ldr	r0, [pc, #56]	; (6c78 <gapm_set_dev_config_cmd_handler+0x11c>)
    6c40:	682e      	ldr	r6, [r5, #0]
    6c42:	47b0      	blx	r6
    6c44:	682b      	ldr	r3, [r5, #0]
    6c46:	480d      	ldr	r0, [pc, #52]	; (6c7c <gapm_set_dev_config_cmd_handler+0x120>)
    6c48:	2103      	movs	r1, #3
    6c4a:	1c22      	adds	r2, r4, #0
    6c4c:	4798      	blx	r3
    6c4e:	23e2      	movs	r3, #226	; 0xe2
    6c50:	1c18      	adds	r0, r3, #0
    6c52:	b007      	add	sp, #28
    6c54:	bdf0      	pop	{r4, r5, r6, r7, pc}
    6c56:	46c0      	nop			; (mov r8, r8)
    6c58:	00009e74 	.word	0x00009e74
    6c5c:	20001a5c 	.word	0x20001a5c
    6c60:	00007dbf 	.word	0x00007dbf
    6c64:	000055cd 	.word	0x000055cd
    6c68:	00005831 	.word	0x00005831
    6c6c:	200000ec 	.word	0x200000ec
    6c70:	0000a181 	.word	0x0000a181
    6c74:	0000a161 	.word	0x0000a161
    6c78:	00009a19 	.word	0x00009a19
    6c7c:	0000a1bc 	.word	0x0000a1bc

00006c80 <gapm_get_dev_config_cmd_handler>:
    6c80:	b5f8      	push	{r3, r4, r5, r6, r7, lr}
    6c82:	1c0d      	adds	r5, r1, #0
    6c84:	21cf      	movs	r1, #207	; 0xcf
    6c86:	2801      	cmp	r0, #1
    6c88:	d84b      	bhi.n	6d22 <gapm_get_dev_config_cmd_handler+0xa2>
    6c8a:	2d00      	cmp	r5, #0
    6c8c:	d049      	beq.n	6d22 <gapm_get_dev_config_cmd_handler+0xa2>
    6c8e:	2200      	movs	r2, #0
    6c90:	2605      	movs	r6, #5
    6c92:	4b25      	ldr	r3, [pc, #148]	; (6d28 <gapm_get_dev_config_cmd_handler+0xa8>)
    6c94:	4c25      	ldr	r4, [pc, #148]	; (6d2c <gapm_get_dev_config_cmd_handler+0xac>)
    6c96:	681b      	ldr	r3, [r3, #0]
    6c98:	60a2      	str	r2, [r4, #8]
    6c9a:	60e2      	str	r2, [r4, #12]
    6c9c:	701e      	strb	r6, [r3, #0]
    6c9e:	3601      	adds	r6, #1
    6ca0:	270d      	movs	r7, #13
    6ca2:	705e      	strb	r6, [r3, #1]
    6ca4:	2610      	movs	r6, #16
    6ca6:	709f      	strb	r7, [r3, #2]
    6ca8:	70df      	strb	r7, [r3, #3]
    6caa:	711a      	strb	r2, [r3, #4]
    6cac:	715e      	strb	r6, [r3, #5]
    6cae:	719a      	strb	r2, [r3, #6]
    6cb0:	71da      	strb	r2, [r3, #7]
    6cb2:	721a      	strb	r2, [r3, #8]
    6cb4:	2801      	cmp	r0, #1
    6cb6:	d134      	bne.n	6d22 <gapm_get_dev_config_cmd_handler+0xa2>
    6cb8:	3206      	adds	r2, #6
    6cba:	725a      	strb	r2, [r3, #9]
    6cbc:	22d0      	movs	r2, #208	; 0xd0
    6cbe:	0112      	lsls	r2, r2, #4
    6cc0:	8062      	strh	r2, [r4, #2]
    6cc2:	4a1b      	ldr	r2, [pc, #108]	; (6d30 <gapm_get_dev_config_cmd_handler+0xb0>)
    6cc4:	71d8      	strb	r0, [r3, #7]
    6cc6:	39c5      	subs	r1, #197	; 0xc5
    6cc8:	1c18      	adds	r0, r3, #0
    6cca:	4b1a      	ldr	r3, [pc, #104]	; (6d34 <gapm_get_dev_config_cmd_handler+0xb4>)
    6ccc:	8022      	strh	r2, [r4, #0]
    6cce:	80a7      	strh	r7, [r4, #4]
    6cd0:	4798      	blx	r3
    6cd2:	4b19      	ldr	r3, [pc, #100]	; (6d38 <gapm_get_dev_config_cmd_handler+0xb8>)
    6cd4:	4798      	blx	r3
    6cd6:	21d0      	movs	r1, #208	; 0xd0
    6cd8:	4288      	cmp	r0, r1
    6cda:	d022      	beq.n	6d22 <gapm_get_dev_config_cmd_handler+0xa2>
    6cdc:	2301      	movs	r3, #1
    6cde:	8821      	ldrh	r1, [r4, #0]
    6ce0:	4a16      	ldr	r2, [pc, #88]	; (6d3c <gapm_get_dev_config_cmd_handler+0xbc>)
    6ce2:	68a7      	ldr	r7, [r4, #8]
    6ce4:	425b      	negs	r3, r3
    6ce6:	4291      	cmp	r1, r2
    6ce8:	d001      	beq.n	6cee <gapm_get_dev_config_cmd_handler+0x6e>
    6cea:	8023      	strh	r3, [r4, #0]
    6cec:	e008      	b.n	6d00 <gapm_get_dev_config_cmd_handler+0x80>
    6cee:	8063      	strh	r3, [r4, #2]
    6cf0:	1c39      	adds	r1, r7, #0
    6cf2:	4b13      	ldr	r3, [pc, #76]	; (6d40 <gapm_get_dev_config_cmd_handler+0xc0>)
    6cf4:	1c68      	adds	r0, r5, #1
    6cf6:	2206      	movs	r2, #6
    6cf8:	4798      	blx	r3
    6cfa:	79bb      	ldrb	r3, [r7, #6]
    6cfc:	702b      	strb	r3, [r5, #0]
    6cfe:	68e7      	ldr	r7, [r4, #12]
    6d00:	783c      	ldrb	r4, [r7, #0]
    6d02:	7879      	ldrb	r1, [r7, #1]
    6d04:	2c06      	cmp	r4, #6
    6d06:	d00c      	beq.n	6d22 <gapm_get_dev_config_cmd_handler+0xa2>
    6d08:	4d0e      	ldr	r5, [pc, #56]	; (6d44 <gapm_get_dev_config_cmd_handler+0xc4>)
    6d0a:	490f      	ldr	r1, [pc, #60]	; (6d48 <gapm_get_dev_config_cmd_handler+0xc8>)
    6d0c:	2286      	movs	r2, #134	; 0x86
    6d0e:	4b0f      	ldr	r3, [pc, #60]	; (6d4c <gapm_get_dev_config_cmd_handler+0xcc>)
    6d10:	480f      	ldr	r0, [pc, #60]	; (6d50 <gapm_get_dev_config_cmd_handler+0xd0>)
    6d12:	682e      	ldr	r6, [r5, #0]
    6d14:	47b0      	blx	r6
    6d16:	2106      	movs	r1, #6
    6d18:	682b      	ldr	r3, [r5, #0]
    6d1a:	480e      	ldr	r0, [pc, #56]	; (6d54 <gapm_get_dev_config_cmd_handler+0xd4>)
    6d1c:	1c22      	adds	r2, r4, #0
    6d1e:	4798      	blx	r3
    6d20:	21e2      	movs	r1, #226	; 0xe2
    6d22:	1c08      	adds	r0, r1, #0
    6d24:	bdf8      	pop	{r3, r4, r5, r6, r7, pc}
    6d26:	46c0      	nop			; (mov r8, r8)
    6d28:	00009e74 	.word	0x00009e74
    6d2c:	20001a5c 	.word	0x20001a5c
    6d30:	00000d08 	.word	0x00000d08
    6d34:	000055cd 	.word	0x000055cd
    6d38:	00005831 	.word	0x00005831
    6d3c:	0000ffff 	.word	0x0000ffff
    6d40:	00007dbf 	.word	0x00007dbf
    6d44:	200000ec 	.word	0x200000ec
    6d48:	0000a181 	.word	0x0000a181
    6d4c:	0000a1ec 	.word	0x0000a1ec
    6d50:	00009a19 	.word	0x00009a19
    6d54:	0000a1bc 	.word	0x0000a1bc

00006d58 <gapm_cancel_cmd_handler>:
    6d58:	b538      	push	{r3, r4, r5, lr}
    6d5a:	2210      	movs	r2, #16
    6d5c:	2400      	movs	r4, #0
    6d5e:	4b13      	ldr	r3, [pc, #76]	; (6dac <gapm_cancel_cmd_handler+0x54>)
    6d60:	4d13      	ldr	r5, [pc, #76]	; (6db0 <gapm_cancel_cmd_handler+0x58>)
    6d62:	6818      	ldr	r0, [r3, #0]
    6d64:	2305      	movs	r3, #5
    6d66:	60ac      	str	r4, [r5, #8]
    6d68:	60ec      	str	r4, [r5, #12]
    6d6a:	7142      	strb	r2, [r0, #5]
    6d6c:	3a0e      	subs	r2, #14
    6d6e:	7242      	strb	r2, [r0, #9]
    6d70:	22d0      	movs	r2, #208	; 0xd0
    6d72:	7003      	strb	r3, [r0, #0]
    6d74:	3b02      	subs	r3, #2
    6d76:	7043      	strb	r3, [r0, #1]
    6d78:	330a      	adds	r3, #10
    6d7a:	7083      	strb	r3, [r0, #2]
    6d7c:	70c3      	strb	r3, [r0, #3]
    6d7e:	7104      	strb	r4, [r0, #4]
    6d80:	80ab      	strh	r3, [r5, #4]
    6d82:	3b0c      	subs	r3, #12
    6d84:	0112      	lsls	r2, r2, #4
    6d86:	71c3      	strb	r3, [r0, #7]
    6d88:	7184      	strb	r4, [r0, #6]
    6d8a:	4b0a      	ldr	r3, [pc, #40]	; (6db4 <gapm_cancel_cmd_handler+0x5c>)
    6d8c:	7204      	strb	r4, [r0, #8]
    6d8e:	210a      	movs	r1, #10
    6d90:	802a      	strh	r2, [r5, #0]
    6d92:	4798      	blx	r3
    6d94:	4b08      	ldr	r3, [pc, #32]	; (6db8 <gapm_cancel_cmd_handler+0x60>)
    6d96:	4798      	blx	r3
    6d98:	28d0      	cmp	r0, #208	; 0xd0
    6d9a:	d005      	beq.n	6da8 <gapm_cancel_cmd_handler+0x50>
    6d9c:	68ab      	ldr	r3, [r5, #8]
    6d9e:	1c20      	adds	r0, r4, #0
    6da0:	785b      	ldrb	r3, [r3, #1]
    6da2:	2b44      	cmp	r3, #68	; 0x44
    6da4:	d000      	beq.n	6da8 <gapm_cancel_cmd_handler+0x50>
    6da6:	1c18      	adds	r0, r3, #0
    6da8:	bd38      	pop	{r3, r4, r5, pc}
    6daa:	46c0      	nop			; (mov r8, r8)
    6dac:	00009e74 	.word	0x00009e74
    6db0:	20001a5c 	.word	0x20001a5c
    6db4:	000055cd 	.word	0x000055cd
    6db8:	00005831 	.word	0x00005831

00006dbc <gapm_dev_bdaddr_ind_handler>:
    6dbc:	b538      	push	{r3, r4, r5, lr}
    6dbe:	1c05      	adds	r5, r0, #0
    6dc0:	1c0c      	adds	r4, r1, #0
    6dc2:	1c48      	adds	r0, r1, #1
    6dc4:	2206      	movs	r2, #6
    6dc6:	1c29      	adds	r1, r5, #0
    6dc8:	4b02      	ldr	r3, [pc, #8]	; (6dd4 <gapm_dev_bdaddr_ind_handler+0x18>)
    6dca:	4798      	blx	r3
    6dcc:	79ab      	ldrb	r3, [r5, #6]
    6dce:	2000      	movs	r0, #0
    6dd0:	7023      	strb	r3, [r4, #0]
    6dd2:	bd38      	pop	{r3, r4, r5, pc}
    6dd4:	00007dbf 	.word	0x00007dbf

00006dd8 <gapm_cmp_evt>:
    6dd8:	b5f7      	push	{r0, r1, r2, r4, r5, r6, r7, lr}
    6dda:	7806      	ldrb	r6, [r0, #0]
    6ddc:	7845      	ldrb	r5, [r0, #1]
    6dde:	1c30      	adds	r0, r6, #0
    6de0:	380c      	subs	r0, #12
    6de2:	1c0c      	adds	r4, r1, #0
    6de4:	280b      	cmp	r0, #11
    6de6:	d900      	bls.n	6dea <gapm_cmp_evt+0x12>
    6de8:	e08c      	b.n	6f04 <gapm_cmp_evt+0x12c>
    6dea:	f000 fef1 	bl	7bd0 <__gnu_thumb1_case_uqi>
    6dee:	1952      	.short	0x1952
    6df0:	068b1919 	.word	0x068b1919
    6df4:	8b595906 	.word	0x8b595906
    6df8:	0d8b      	.short	0x0d8b
    6dfa:	2300      	movs	r3, #0
    6dfc:	2d45      	cmp	r5, #69	; 0x45
    6dfe:	d000      	beq.n	6e02 <gapm_cmp_evt+0x2a>
    6e00:	1c2b      	adds	r3, r5, #0
    6e02:	7023      	strb	r3, [r4, #0]
    6e04:	2002      	movs	r0, #2
    6e06:	e08a      	b.n	6f1e <gapm_cmp_evt+0x146>
    6e08:	203a      	movs	r0, #58	; 0x3a
    6e0a:	2d00      	cmp	r5, #0
    6e0c:	d100      	bne.n	6e10 <gapm_cmp_evt+0x38>
    6e0e:	e086      	b.n	6f1e <gapm_cmp_evt+0x146>
    6e10:	700d      	strb	r5, [r1, #0]
    6e12:	1c48      	adds	r0, r1, #1
    6e14:	2210      	movs	r2, #16
    6e16:	2100      	movs	r1, #0
    6e18:	4b41      	ldr	r3, [pc, #260]	; (6f20 <gapm_cmp_evt+0x148>)
    6e1a:	4798      	blx	r3
    6e1c:	200f      	movs	r0, #15
    6e1e:	e07e      	b.n	6f1e <gapm_cmp_evt+0x146>
    6e20:	2d00      	cmp	r5, #0
    6e22:	d134      	bne.n	6e8e <gapm_cmp_evt+0xb6>
    6e24:	4b3f      	ldr	r3, [pc, #252]	; (6f24 <gapm_cmp_evt+0x14c>)
    6e26:	4798      	blx	r3
    6e28:	1e43      	subs	r3, r0, #1
    6e2a:	b2db      	uxtb	r3, r3
    6e2c:	1c28      	adds	r0, r5, #0
    6e2e:	2b06      	cmp	r3, #6
    6e30:	d875      	bhi.n	6f1e <gapm_cmp_evt+0x146>
    6e32:	466b      	mov	r3, sp
    6e34:	4e3c      	ldr	r6, [pc, #240]	; (6f28 <gapm_cmp_evt+0x150>)
    6e36:	1dd9      	adds	r1, r3, #7
    6e38:	8db0      	ldrh	r0, [r6, #44]	; 0x2c
    6e3a:	4b3c      	ldr	r3, [pc, #240]	; (6f2c <gapm_cmp_evt+0x154>)
    6e3c:	4798      	blx	r3
    6e3e:	2312      	movs	r3, #18
    6e40:	4358      	muls	r0, r3
    6e42:	493b      	ldr	r1, [pc, #236]	; (6f30 <gapm_cmp_evt+0x158>)
    6e44:	1809      	adds	r1, r1, r0
    6e46:	1c0b      	adds	r3, r1, #0
    6e48:	894a      	ldrh	r2, [r1, #10]
    6e4a:	3308      	adds	r3, #8
    6e4c:	8122      	strh	r2, [r4, #8]
    6e4e:	784f      	ldrb	r7, [r1, #1]
    6e50:	72a5      	strb	r5, [r4, #10]
    6e52:	7027      	strb	r7, [r4, #0]
    6e54:	898a      	ldrh	r2, [r1, #12]
    6e56:	1c60      	adds	r0, r4, #1
    6e58:	81a2      	strh	r2, [r4, #12]
    6e5a:	88db      	ldrh	r3, [r3, #6]
    6e5c:	3102      	adds	r1, #2
    6e5e:	81e3      	strh	r3, [r4, #14]
    6e60:	89cb      	ldrh	r3, [r1, #14]
    6e62:	2206      	movs	r2, #6
    6e64:	8223      	strh	r3, [r4, #16]
    6e66:	4b33      	ldr	r3, [pc, #204]	; (6f34 <gapm_cmp_evt+0x15c>)
    6e68:	4798      	blx	r3
    6e6a:	2f00      	cmp	r7, #0
    6e6c:	d00a      	beq.n	6e84 <gapm_cmp_evt+0xac>
    6e6e:	79a3      	ldrb	r3, [r4, #6]
    6e70:	223f      	movs	r2, #63	; 0x3f
    6e72:	1c19      	adds	r1, r3, #0
    6e74:	3501      	adds	r5, #1
    6e76:	4391      	bics	r1, r2
    6e78:	29c0      	cmp	r1, #192	; 0xc0
    6e7a:	d003      	beq.n	6e84 <gapm_cmp_evt+0xac>
    6e7c:	065b      	lsls	r3, r3, #25
    6e7e:	0fdb      	lsrs	r3, r3, #31
    6e80:	3502      	adds	r5, #2
    6e82:	1aed      	subs	r5, r5, r3
    6e84:	2301      	movs	r3, #1
    6e86:	425b      	negs	r3, r3
    6e88:	7025      	strb	r5, [r4, #0]
    6e8a:	85b3      	strh	r3, [r6, #44]	; 0x2c
    6e8c:	e038      	b.n	6f00 <gapm_cmp_evt+0x128>
    6e8e:	700d      	strb	r5, [r1, #0]
    6e90:	e004      	b.n	6e9c <gapm_cmp_evt+0xc4>
    6e92:	2300      	movs	r3, #0
    6e94:	2d45      	cmp	r5, #69	; 0x45
    6e96:	d000      	beq.n	6e9a <gapm_cmp_evt+0xc2>
    6e98:	1c2b      	adds	r3, r5, #0
    6e9a:	7023      	strb	r3, [r4, #0]
    6e9c:	2003      	movs	r0, #3
    6e9e:	e03e      	b.n	6f1e <gapm_cmp_evt+0x146>
    6ea0:	4e21      	ldr	r6, [pc, #132]	; (6f28 <gapm_cmp_evt+0x150>)
    6ea2:	2100      	movs	r1, #0
    6ea4:	8db0      	ldrh	r0, [r6, #44]	; 0x2c
    6ea6:	4b21      	ldr	r3, [pc, #132]	; (6f2c <gapm_cmp_evt+0x154>)
    6ea8:	4798      	blx	r3
    6eaa:	2807      	cmp	r0, #7
    6eac:	d818      	bhi.n	6ee0 <gapm_cmp_evt+0x108>
    6eae:	2301      	movs	r3, #1
    6eb0:	425b      	negs	r3, r3
    6eb2:	85b3      	strh	r3, [r6, #44]	; 0x2c
    6eb4:	3313      	adds	r3, #19
    6eb6:	4358      	muls	r0, r3
    6eb8:	491d      	ldr	r1, [pc, #116]	; (6f30 <gapm_cmp_evt+0x158>)
    6eba:	1809      	adds	r1, r1, r0
    6ebc:	1c0b      	adds	r3, r1, #0
    6ebe:	894a      	ldrh	r2, [r1, #10]
    6ec0:	3308      	adds	r3, #8
    6ec2:	8122      	strh	r2, [r4, #8]
    6ec4:	784a      	ldrb	r2, [r1, #1]
    6ec6:	72a5      	strb	r5, [r4, #10]
    6ec8:	7022      	strb	r2, [r4, #0]
    6eca:	898a      	ldrh	r2, [r1, #12]
    6ecc:	1c60      	adds	r0, r4, #1
    6ece:	81a2      	strh	r2, [r4, #12]
    6ed0:	88db      	ldrh	r3, [r3, #6]
    6ed2:	3102      	adds	r1, #2
    6ed4:	81e3      	strh	r3, [r4, #14]
    6ed6:	89cb      	ldrh	r3, [r1, #14]
    6ed8:	2206      	movs	r2, #6
    6eda:	8223      	strh	r3, [r4, #16]
    6edc:	4b15      	ldr	r3, [pc, #84]	; (6f34 <gapm_cmp_evt+0x15c>)
    6ede:	4798      	blx	r3
    6ee0:	2200      	movs	r2, #0
    6ee2:	7823      	ldrb	r3, [r4, #0]
    6ee4:	4293      	cmp	r3, r2
    6ee6:	d00a      	beq.n	6efe <gapm_cmp_evt+0x126>
    6ee8:	79a3      	ldrb	r3, [r4, #6]
    6eea:	323f      	adds	r2, #63	; 0x3f
    6eec:	1c19      	adds	r1, r3, #0
    6eee:	4391      	bics	r1, r2
    6ef0:	3a3e      	subs	r2, #62	; 0x3e
    6ef2:	29c0      	cmp	r1, #192	; 0xc0
    6ef4:	d003      	beq.n	6efe <gapm_cmp_evt+0x126>
    6ef6:	065b      	lsls	r3, r3, #25
    6ef8:	0fdb      	lsrs	r3, r3, #31
    6efa:	3202      	adds	r2, #2
    6efc:	1ad2      	subs	r2, r2, r3
    6efe:	7022      	strb	r2, [r4, #0]
    6f00:	2005      	movs	r0, #5
    6f02:	e00c      	b.n	6f1e <gapm_cmp_evt+0x146>
    6f04:	2292      	movs	r2, #146	; 0x92
    6f06:	4c0c      	ldr	r4, [pc, #48]	; (6f38 <gapm_cmp_evt+0x160>)
    6f08:	490c      	ldr	r1, [pc, #48]	; (6f3c <gapm_cmp_evt+0x164>)
    6f0a:	0052      	lsls	r2, r2, #1
    6f0c:	4b0c      	ldr	r3, [pc, #48]	; (6f40 <gapm_cmp_evt+0x168>)
    6f0e:	480d      	ldr	r0, [pc, #52]	; (6f44 <gapm_cmp_evt+0x16c>)
    6f10:	6825      	ldr	r5, [r4, #0]
    6f12:	47a8      	blx	r5
    6f14:	6823      	ldr	r3, [r4, #0]
    6f16:	480c      	ldr	r0, [pc, #48]	; (6f48 <gapm_cmp_evt+0x170>)
    6f18:	1c31      	adds	r1, r6, #0
    6f1a:	4798      	blx	r3
    6f1c:	2000      	movs	r0, #0
    6f1e:	bdfe      	pop	{r1, r2, r3, r4, r5, r6, r7, pc}
    6f20:	00007dd1 	.word	0x00007dd1
    6f24:	00006049 	.word	0x00006049
    6f28:	20001afc 	.word	0x20001afc
    6f2c:	0000600d 	.word	0x0000600d
    6f30:	20001a6c 	.word	0x20001a6c
    6f34:	00007dbf 	.word	0x00007dbf
    6f38:	200000ec 	.word	0x200000ec
    6f3c:	0000a181 	.word	0x0000a181
    6f40:	0000a20c 	.word	0x0000a20c
    6f44:	00009a19 	.word	0x00009a19
    6f48:	0000a1d4 	.word	0x0000a1d4

00006f4c <gapm_start_adv_cmd_handler>:
    6f4c:	b5f0      	push	{r4, r5, r6, r7, lr}
    6f4e:	b089      	sub	sp, #36	; 0x24
    6f50:	9303      	str	r3, [sp, #12]
    6f52:	ab0e      	add	r3, sp, #56	; 0x38
    6f54:	9102      	str	r1, [sp, #8]
    6f56:	cb02      	ldmia	r3!, {r1}
    6f58:	aa08      	add	r2, sp, #32
    6f5a:	881e      	ldrh	r6, [r3, #0]
    6f5c:	ab10      	add	r3, sp, #64	; 0x40
    6f5e:	881b      	ldrh	r3, [r3, #0]
    6f60:	4c3b      	ldr	r4, [pc, #236]	; (7050 <gapm_start_adv_cmd_handler+0x104>)
    6f62:	9300      	str	r3, [sp, #0]
    6f64:	ab11      	add	r3, sp, #68	; 0x44
    6f66:	781b      	ldrb	r3, [r3, #0]
    6f68:	9304      	str	r3, [sp, #16]
    6f6a:	ab12      	add	r3, sp, #72	; 0x48
    6f6c:	781b      	ldrb	r3, [r3, #0]
    6f6e:	9305      	str	r3, [sp, #20]
    6f70:	ab13      	add	r3, sp, #76	; 0x4c
    6f72:	781b      	ldrb	r3, [r3, #0]
    6f74:	9306      	str	r3, [sp, #24]
    6f76:	ab14      	add	r3, sp, #80	; 0x50
    6f78:	781b      	ldrb	r3, [r3, #0]
    6f7a:	9301      	str	r3, [sp, #4]
    6f7c:	2319      	movs	r3, #25
    6f7e:	189b      	adds	r3, r3, r2
    6f80:	7fdd      	ldrb	r5, [r3, #31]
    6f82:	ab18      	add	r3, sp, #96	; 0x60
    6f84:	881f      	ldrh	r7, [r3, #0]
    6f86:	ab19      	add	r3, sp, #100	; 0x64
    6f88:	781b      	ldrb	r3, [r3, #0]
    6f8a:	2205      	movs	r2, #5
    6f8c:	9307      	str	r3, [sp, #28]
    6f8e:	2300      	movs	r3, #0
    6f90:	60a3      	str	r3, [r4, #8]
    6f92:	60e3      	str	r3, [r4, #12]
    6f94:	4c2f      	ldr	r4, [pc, #188]	; (7054 <gapm_start_adv_cmd_handler+0x108>)
    6f96:	6824      	ldr	r4, [r4, #0]
    6f98:	7022      	strb	r2, [r4, #0]
    6f9a:	220d      	movs	r2, #13
    6f9c:	7062      	strb	r2, [r4, #1]
    6f9e:	70a2      	strb	r2, [r4, #2]
    6fa0:	70e2      	strb	r2, [r4, #3]
    6fa2:	2210      	movs	r2, #16
    6fa4:	7123      	strb	r3, [r4, #4]
    6fa6:	7162      	strb	r2, [r4, #5]
    6fa8:	71a3      	strb	r3, [r4, #6]
    6faa:	71e3      	strb	r3, [r4, #7]
    6fac:	7223      	strb	r3, [r4, #8]
    6fae:	7260      	strb	r0, [r4, #9]
    6fb0:	72e3      	strb	r3, [r4, #11]
    6fb2:	7323      	strb	r3, [r4, #12]
    6fb4:	466b      	mov	r3, sp
    6fb6:	781b      	ldrb	r3, [r3, #0]
    6fb8:	466a      	mov	r2, sp
    6fba:	73e3      	strb	r3, [r4, #15]
    6fbc:	9b00      	ldr	r3, [sp, #0]
    6fbe:	7a12      	ldrb	r2, [r2, #8]
    6fc0:	0a1b      	lsrs	r3, r3, #8
    6fc2:	7423      	strb	r3, [r4, #16]
    6fc4:	466b      	mov	r3, sp
    6fc6:	7c1b      	ldrb	r3, [r3, #16]
    6fc8:	7366      	strb	r6, [r4, #13]
    6fca:	380e      	subs	r0, #14
    6fcc:	0a36      	lsrs	r6, r6, #8
    6fce:	72a2      	strb	r2, [r4, #10]
    6fd0:	73a6      	strb	r6, [r4, #14]
    6fd2:	7463      	strb	r3, [r4, #17]
    6fd4:	2801      	cmp	r0, #1
    6fd6:	d80a      	bhi.n	6fee <gapm_start_adv_cmd_handler+0xa2>
    6fd8:	2900      	cmp	r1, #0
    6fda:	d004      	beq.n	6fe6 <gapm_start_adv_cmd_handler+0x9a>
    6fdc:	1c20      	adds	r0, r4, #0
    6fde:	2206      	movs	r2, #6
    6fe0:	3012      	adds	r0, #18
    6fe2:	4b1d      	ldr	r3, [pc, #116]	; (7058 <gapm_start_adv_cmd_handler+0x10c>)
    6fe4:	4798      	blx	r3
    6fe6:	466b      	mov	r3, sp
    6fe8:	7b1b      	ldrb	r3, [r3, #12]
    6fea:	7623      	strb	r3, [r4, #24]
    6fec:	e016      	b.n	701c <gapm_start_adv_cmd_handler+0xd0>
    6fee:	466b      	mov	r3, sp
    6ff0:	7d1b      	ldrb	r3, [r3, #20]
    6ff2:	1c20      	adds	r0, r4, #0
    6ff4:	74a3      	strb	r3, [r4, #18]
    6ff6:	466b      	mov	r3, sp
    6ff8:	7e1b      	ldrb	r3, [r3, #24]
    6ffa:	9915      	ldr	r1, [sp, #84]	; 0x54
    6ffc:	74e3      	strb	r3, [r4, #19]
    6ffe:	466b      	mov	r3, sp
    7000:	791b      	ldrb	r3, [r3, #4]
    7002:	9a01      	ldr	r2, [sp, #4]
    7004:	7523      	strb	r3, [r4, #20]
    7006:	3015      	adds	r0, #21
    7008:	4e13      	ldr	r6, [pc, #76]	; (7058 <gapm_start_adv_cmd_handler+0x10c>)
    700a:	47b0      	blx	r6
    700c:	1c23      	adds	r3, r4, #0
    700e:	1c20      	adds	r0, r4, #0
    7010:	3331      	adds	r3, #49	; 0x31
    7012:	701d      	strb	r5, [r3, #0]
    7014:	3032      	adds	r0, #50	; 0x32
    7016:	9917      	ldr	r1, [sp, #92]	; 0x5c
    7018:	1c2a      	adds	r2, r5, #0
    701a:	47b0      	blx	r6
    701c:	1c22      	adds	r2, r4, #0
    701e:	23a5      	movs	r3, #165	; 0xa5
    7020:	3251      	adds	r2, #81	; 0x51
    7022:	7013      	strb	r3, [r2, #0]
    7024:	7053      	strb	r3, [r2, #1]
    7026:	1c23      	adds	r3, r4, #0
    7028:	3353      	adds	r3, #83	; 0x53
    702a:	701f      	strb	r7, [r3, #0]
    702c:	0a3b      	lsrs	r3, r7, #8
    702e:	70d3      	strb	r3, [r2, #3]
    7030:	466a      	mov	r2, sp
    7032:	1c23      	adds	r3, r4, #0
    7034:	7f12      	ldrb	r2, [r2, #28]
    7036:	3355      	adds	r3, #85	; 0x55
    7038:	701a      	strb	r2, [r3, #0]
    703a:	2500      	movs	r5, #0
    703c:	234d      	movs	r3, #77	; 0x4d
    703e:	7225      	strb	r5, [r4, #8]
    7040:	71e3      	strb	r3, [r4, #7]
    7042:	1c20      	adds	r0, r4, #0
    7044:	2156      	movs	r1, #86	; 0x56
    7046:	4b05      	ldr	r3, [pc, #20]	; (705c <gapm_start_adv_cmd_handler+0x110>)
    7048:	4798      	blx	r3
    704a:	1c28      	adds	r0, r5, #0
    704c:	b009      	add	sp, #36	; 0x24
    704e:	bdf0      	pop	{r4, r5, r6, r7, pc}
    7050:	20001a5c 	.word	0x20001a5c
    7054:	00009e74 	.word	0x00009e74
    7058:	00007dbf 	.word	0x00007dbf
    705c:	000055cd 	.word	0x000055cd

00007060 <get_gap_local_addr_type>:
    7060:	4b04      	ldr	r3, [pc, #16]	; (7074 <get_gap_local_addr_type+0x14>)
    7062:	2001      	movs	r0, #1
    7064:	791b      	ldrb	r3, [r3, #4]
    7066:	2b02      	cmp	r3, #2
    7068:	d003      	beq.n	7072 <get_gap_local_addr_type+0x12>
    706a:	3b03      	subs	r3, #3
    706c:	4258      	negs	r0, r3
    706e:	4158      	adcs	r0, r3
    7070:	0040      	lsls	r0, r0, #1
    7072:	4770      	bx	lr
    7074:	20001afc 	.word	0x20001afc

00007078 <gapm_adv_report_evt_handler>:
    7078:	b5f7      	push	{r0, r1, r2, r4, r5, r6, r7, lr}
    707a:	7843      	ldrb	r3, [r0, #1]
    707c:	1c05      	adds	r5, r0, #0
    707e:	9301      	str	r3, [sp, #4]
    7080:	466b      	mov	r3, sp
    7082:	1c0c      	adds	r4, r1, #0
    7084:	791b      	ldrb	r3, [r3, #4]
    7086:	7806      	ldrb	r6, [r0, #0]
    7088:	2206      	movs	r2, #6
    708a:	704b      	strb	r3, [r1, #1]
    708c:	1c88      	adds	r0, r1, #2
    708e:	4f1b      	ldr	r7, [pc, #108]	; (70fc <gapm_adv_report_evt_handler+0x84>)
    7090:	1ca9      	adds	r1, r5, #2
    7092:	47b8      	blx	r7
    7094:	1c20      	adds	r0, r4, #0
    7096:	1c29      	adds	r1, r5, #0
    7098:	7a2a      	ldrb	r2, [r5, #8]
    709a:	3008      	adds	r0, #8
    709c:	77c2      	strb	r2, [r0, #31]
    709e:	3109      	adds	r1, #9
    70a0:	3528      	adds	r5, #40	; 0x28
    70a2:	47b8      	blx	r7
    70a4:	782b      	ldrb	r3, [r5, #0]
    70a6:	b25a      	sxtb	r2, r3
    70a8:	2a00      	cmp	r2, #0
    70aa:	da01      	bge.n	70b0 <gapm_adv_report_evt_handler+0x38>
    70ac:	3301      	adds	r3, #1
    70ae:	b2db      	uxtb	r3, r3
    70b0:	1c22      	adds	r2, r4, #0
    70b2:	3228      	adds	r2, #40	; 0x28
    70b4:	7013      	strb	r3, [r2, #0]
    70b6:	2200      	movs	r2, #0
    70b8:	9b01      	ldr	r3, [sp, #4]
    70ba:	4293      	cmp	r3, r2
    70bc:	d00a      	beq.n	70d4 <gapm_adv_report_evt_handler+0x5c>
    70be:	79e3      	ldrb	r3, [r4, #7]
    70c0:	323f      	adds	r2, #63	; 0x3f
    70c2:	1c19      	adds	r1, r3, #0
    70c4:	4391      	bics	r1, r2
    70c6:	3a3e      	subs	r2, #62	; 0x3e
    70c8:	29c0      	cmp	r1, #192	; 0xc0
    70ca:	d003      	beq.n	70d4 <gapm_adv_report_evt_handler+0x5c>
    70cc:	065b      	lsls	r3, r3, #25
    70ce:	0fdb      	lsrs	r3, r3, #31
    70d0:	3202      	adds	r2, #2
    70d2:	1ad2      	subs	r2, r2, r3
    70d4:	7062      	strb	r2, [r4, #1]
    70d6:	2e04      	cmp	r6, #4
    70d8:	d80f      	bhi.n	70fa <gapm_adv_report_evt_handler+0x82>
    70da:	1c30      	adds	r0, r6, #0
    70dc:	f000 fd78 	bl	7bd0 <__gnu_thumb1_case_uqi>
    70e0:	09070503 	.word	0x09070503
    70e4:	0b          	.byte	0x0b
    70e5:	00          	.byte	0x00
    70e6:	2300      	movs	r3, #0
    70e8:	e006      	b.n	70f8 <gapm_adv_report_evt_handler+0x80>
    70ea:	2301      	movs	r3, #1
    70ec:	e004      	b.n	70f8 <gapm_adv_report_evt_handler+0x80>
    70ee:	2302      	movs	r3, #2
    70f0:	e002      	b.n	70f8 <gapm_adv_report_evt_handler+0x80>
    70f2:	2303      	movs	r3, #3
    70f4:	e000      	b.n	70f8 <gapm_adv_report_evt_handler+0x80>
    70f6:	2305      	movs	r3, #5
    70f8:	7023      	strb	r3, [r4, #0]
    70fa:	bdf7      	pop	{r0, r1, r2, r4, r5, r6, r7, pc}
    70fc:	00007dbf 	.word	0x00007dbf

00007100 <gapm_resolv_addr_cmd_handler>:
    7100:	b5f8      	push	{r3, r4, r5, r6, r7, lr}
    7102:	2300      	movs	r3, #0
    7104:	1c16      	adds	r6, r2, #0
    7106:	4a16      	ldr	r2, [pc, #88]	; (7160 <gapm_resolv_addr_cmd_handler+0x60>)
    7108:	1c05      	adds	r5, r0, #0
    710a:	6093      	str	r3, [r2, #8]
    710c:	60d3      	str	r3, [r2, #12]
    710e:	4a15      	ldr	r2, [pc, #84]	; (7164 <gapm_resolv_addr_cmd_handler+0x64>)
    7110:	4f15      	ldr	r7, [pc, #84]	; (7168 <gapm_resolv_addr_cmd_handler+0x68>)
    7112:	6814      	ldr	r4, [r2, #0]
    7114:	2205      	movs	r2, #5
    7116:	72a0      	strb	r0, [r4, #10]
    7118:	1c20      	adds	r0, r4, #0
    711a:	7022      	strb	r2, [r4, #0]
    711c:	320f      	adds	r2, #15
    711e:	7062      	strb	r2, [r4, #1]
    7120:	3a07      	subs	r2, #7
    7122:	70a2      	strb	r2, [r4, #2]
    7124:	70e2      	strb	r2, [r4, #3]
    7126:	7123      	strb	r3, [r4, #4]
    7128:	71a3      	strb	r3, [r4, #6]
    712a:	71e3      	strb	r3, [r4, #7]
    712c:	7223      	strb	r3, [r4, #8]
    712e:	3203      	adds	r2, #3
    7130:	3317      	adds	r3, #23
    7132:	7263      	strb	r3, [r4, #9]
    7134:	7162      	strb	r2, [r4, #5]
    7136:	300b      	adds	r0, #11
    7138:	3a0a      	subs	r2, #10
    713a:	47b8      	blx	r7
    713c:	1c20      	adds	r0, r4, #0
    713e:	012d      	lsls	r5, r5, #4
    7140:	1c31      	adds	r1, r6, #0
    7142:	1c2a      	adds	r2, r5, #0
    7144:	3011      	adds	r0, #17
    7146:	47b8      	blx	r7
    7148:	1c29      	adds	r1, r5, #0
    714a:	3111      	adds	r1, #17
    714c:	1c0b      	adds	r3, r1, #0
    714e:	3b09      	subs	r3, #9
    7150:	71e3      	strb	r3, [r4, #7]
    7152:	121b      	asrs	r3, r3, #8
    7154:	7223      	strb	r3, [r4, #8]
    7156:	1c20      	adds	r0, r4, #0
    7158:	4b04      	ldr	r3, [pc, #16]	; (716c <gapm_resolv_addr_cmd_handler+0x6c>)
    715a:	4798      	blx	r3
    715c:	bdf8      	pop	{r3, r4, r5, r6, r7, pc}
    715e:	46c0      	nop			; (mov r8, r8)
    7160:	20001a5c 	.word	0x20001a5c
    7164:	00009e74 	.word	0x00009e74
    7168:	00007dbf 	.word	0x00007dbf
    716c:	000055cd 	.word	0x000055cd

00007170 <gapm_addr_solved_ind_handler>:
    7170:	b570      	push	{r4, r5, r6, lr}
    7172:	1c04      	adds	r4, r0, #0
    7174:	1c08      	adds	r0, r1, #0
    7176:	1c0d      	adds	r5, r1, #0
    7178:	4e05      	ldr	r6, [pc, #20]	; (7190 <gapm_addr_solved_ind_handler+0x20>)
    717a:	1c21      	adds	r1, r4, #0
    717c:	2206      	movs	r2, #6
    717e:	3011      	adds	r0, #17
    7180:	47b0      	blx	r6
    7182:	1c68      	adds	r0, r5, #1
    7184:	1da1      	adds	r1, r4, #6
    7186:	2210      	movs	r2, #16
    7188:	47b0      	blx	r6
    718a:	2300      	movs	r3, #0
    718c:	702b      	strb	r3, [r5, #0]
    718e:	bd70      	pop	{r4, r5, r6, pc}
    7190:	00007dbf 	.word	0x00007dbf

00007194 <gapm_profile_added_ind_handler>:
    7194:	b510      	push	{r4, lr}
    7196:	7843      	ldrb	r3, [r0, #1]
    7198:	7902      	ldrb	r2, [r0, #4]
    719a:	7944      	ldrb	r4, [r0, #5]
    719c:	7800      	ldrb	r0, [r0, #0]
    719e:	021b      	lsls	r3, r3, #8
    71a0:	4303      	orrs	r3, r0
    71a2:	2b1b      	cmp	r3, #27
    71a4:	d104      	bne.n	71b0 <gapm_profile_added_ind_handler+0x1c>
    71a6:	2300      	movs	r3, #0
    71a8:	700b      	strb	r3, [r1, #0]
    71aa:	0223      	lsls	r3, r4, #8
    71ac:	4313      	orrs	r3, r2
    71ae:	804b      	strh	r3, [r1, #2]
    71b0:	203a      	movs	r0, #58	; 0x3a
    71b2:	bd10      	pop	{r4, pc}

000071b4 <gattc_read_req_ind_parser>:
    71b4:	7843      	ldrb	r3, [r0, #1]
    71b6:	7802      	ldrb	r2, [r0, #0]
    71b8:	021b      	lsls	r3, r3, #8
    71ba:	4313      	orrs	r3, r2
    71bc:	804b      	strh	r3, [r1, #2]
    71be:	4770      	bx	lr

000071c0 <gattc_write_req_ind_parser>:
    71c0:	b508      	push	{r3, lr}
    71c2:	1c13      	adds	r3, r2, #0
    71c4:	0a00      	lsrs	r0, r0, #8
    71c6:	8010      	strh	r0, [r2, #0]
    71c8:	784a      	ldrb	r2, [r1, #1]
    71ca:	7808      	ldrb	r0, [r1, #0]
    71cc:	0212      	lsls	r2, r2, #8
    71ce:	4302      	orrs	r2, r0
    71d0:	805a      	strh	r2, [r3, #2]
    71d2:	78ca      	ldrb	r2, [r1, #3]
    71d4:	7888      	ldrb	r0, [r1, #2]
    71d6:	0212      	lsls	r2, r2, #8
    71d8:	4302      	orrs	r2, r0
    71da:	809a      	strh	r2, [r3, #4]
    71dc:	794a      	ldrb	r2, [r1, #5]
    71de:	7908      	ldrb	r0, [r1, #4]
    71e0:	0212      	lsls	r2, r2, #8
    71e2:	4302      	orrs	r2, r0
    71e4:	80da      	strh	r2, [r3, #6]
    71e6:	3308      	adds	r3, #8
    71e8:	1c18      	adds	r0, r3, #0
    71ea:	3106      	adds	r1, #6
    71ec:	4b01      	ldr	r3, [pc, #4]	; (71f4 <gattc_write_req_ind_parser+0x34>)
    71ee:	4798      	blx	r3
    71f0:	bd08      	pop	{r3, pc}
    71f2:	46c0      	nop			; (mov r8, r8)
    71f4:	00007dbf 	.word	0x00007dbf

000071f8 <gattc_att_info_req_parser>:
    71f8:	7843      	ldrb	r3, [r0, #1]
    71fa:	7802      	ldrb	r2, [r0, #0]
    71fc:	021b      	lsls	r3, r3, #8
    71fe:	4313      	orrs	r3, r2
    7200:	800b      	strh	r3, [r1, #0]
    7202:	4770      	bx	lr

00007204 <gattc_read_cfm>:
    7204:	b570      	push	{r4, r5, r6, lr}
    7206:	1c1d      	adds	r5, r3, #0
    7208:	2300      	movs	r3, #0
    720a:	4c17      	ldr	r4, [pc, #92]	; (7268 <gattc_read_cfm+0x64>)
    720c:	2605      	movs	r6, #5
    720e:	60a3      	str	r3, [r4, #8]
    7210:	60e3      	str	r3, [r4, #12]
    7212:	4c16      	ldr	r4, [pc, #88]	; (726c <gattc_read_cfm+0x68>)
    7214:	6824      	ldr	r4, [r4, #0]
    7216:	7121      	strb	r1, [r4, #4]
    7218:	2110      	movs	r1, #16
    721a:	7026      	strb	r6, [r4, #0]
    721c:	360f      	adds	r6, #15
    721e:	7066      	strb	r6, [r4, #1]
    7220:	71a3      	strb	r3, [r4, #6]
    7222:	3e08      	subs	r6, #8
    7224:	71e3      	strb	r3, [r4, #7]
    7226:	7223      	strb	r3, [r4, #8]
    7228:	7260      	strb	r0, [r4, #9]
    722a:	0a2b      	lsrs	r3, r5, #8
    722c:	0a00      	lsrs	r0, r0, #8
    722e:	70a6      	strb	r6, [r4, #2]
    7230:	70e6      	strb	r6, [r4, #3]
    7232:	7161      	strb	r1, [r4, #5]
    7234:	72a0      	strb	r0, [r4, #10]
    7236:	72e5      	strb	r5, [r4, #11]
    7238:	7323      	strb	r3, [r4, #12]
    723a:	7362      	strb	r2, [r4, #13]
    723c:	2d00      	cmp	r5, #0
    723e:	d008      	beq.n	7252 <gattc_read_cfm+0x4e>
    7240:	1c20      	adds	r0, r4, #0
    7242:	9904      	ldr	r1, [sp, #16]
    7244:	1c2a      	adds	r2, r5, #0
    7246:	300e      	adds	r0, #14
    7248:	4b09      	ldr	r3, [pc, #36]	; (7270 <gattc_read_cfm+0x6c>)
    724a:	350e      	adds	r5, #14
    724c:	4798      	blx	r3
    724e:	b2a9      	uxth	r1, r5
    7250:	e001      	b.n	7256 <gattc_read_cfm+0x52>
    7252:	210f      	movs	r1, #15
    7254:	73a5      	strb	r5, [r4, #14]
    7256:	1c0b      	adds	r3, r1, #0
    7258:	3b09      	subs	r3, #9
    725a:	71e3      	strb	r3, [r4, #7]
    725c:	121b      	asrs	r3, r3, #8
    725e:	7223      	strb	r3, [r4, #8]
    7260:	1c20      	adds	r0, r4, #0
    7262:	4b04      	ldr	r3, [pc, #16]	; (7274 <gattc_read_cfm+0x70>)
    7264:	4798      	blx	r3
    7266:	bd70      	pop	{r4, r5, r6, pc}
    7268:	20001a5c 	.word	0x20001a5c
    726c:	00009e74 	.word	0x00009e74
    7270:	00007dbf 	.word	0x00007dbf
    7274:	000055cd 	.word	0x000055cd

00007278 <gattc_write_cfm>:
    7278:	b538      	push	{r3, r4, r5, lr}
    727a:	2400      	movs	r4, #0
    727c:	1c0d      	adds	r5, r1, #0
    727e:	4b0d      	ldr	r3, [pc, #52]	; (72b4 <gattc_write_cfm+0x3c>)
    7280:	2105      	movs	r1, #5
    7282:	609c      	str	r4, [r3, #8]
    7284:	60dc      	str	r4, [r3, #12]
    7286:	4b0c      	ldr	r3, [pc, #48]	; (72b8 <gattc_write_cfm+0x40>)
    7288:	681b      	ldr	r3, [r3, #0]
    728a:	711d      	strb	r5, [r3, #4]
    728c:	72da      	strb	r2, [r3, #11]
    728e:	2510      	movs	r5, #16
    7290:	2203      	movs	r2, #3
    7292:	7019      	strb	r1, [r3, #0]
    7294:	3111      	adds	r1, #17
    7296:	7059      	strb	r1, [r3, #1]
    7298:	7258      	strb	r0, [r3, #9]
    729a:	390a      	subs	r1, #10
    729c:	0a00      	lsrs	r0, r0, #8
    729e:	715d      	strb	r5, [r3, #5]
    72a0:	7099      	strb	r1, [r3, #2]
    72a2:	70d9      	strb	r1, [r3, #3]
    72a4:	719c      	strb	r4, [r3, #6]
    72a6:	721c      	strb	r4, [r3, #8]
    72a8:	7298      	strb	r0, [r3, #10]
    72aa:	71da      	strb	r2, [r3, #7]
    72ac:	1c18      	adds	r0, r3, #0
    72ae:	4b03      	ldr	r3, [pc, #12]	; (72bc <gattc_write_cfm+0x44>)
    72b0:	4798      	blx	r3
    72b2:	bd38      	pop	{r3, r4, r5, pc}
    72b4:	20001a5c 	.word	0x20001a5c
    72b8:	00009e74 	.word	0x00009e74
    72bc:	000055cd 	.word	0x000055cd

000072c0 <gattc_att_info_cfm>:
    72c0:	b5f8      	push	{r3, r4, r5, r6, r7, lr}
    72c2:	2500      	movs	r5, #0
    72c4:	4c0e      	ldr	r4, [pc, #56]	; (7300 <gattc_att_info_cfm+0x40>)
    72c6:	2718      	movs	r7, #24
    72c8:	60a5      	str	r5, [r4, #8]
    72ca:	60e5      	str	r5, [r4, #12]
    72cc:	4c0d      	ldr	r4, [pc, #52]	; (7304 <gattc_att_info_cfm+0x44>)
    72ce:	2605      	movs	r6, #5
    72d0:	6824      	ldr	r4, [r4, #0]
    72d2:	7121      	strb	r1, [r4, #4]
    72d4:	2110      	movs	r1, #16
    72d6:	7067      	strb	r7, [r4, #1]
    72d8:	7260      	strb	r0, [r4, #9]
    72da:	3f0c      	subs	r7, #12
    72dc:	72e2      	strb	r2, [r4, #11]
    72de:	0a00      	lsrs	r0, r0, #8
    72e0:	0a12      	lsrs	r2, r2, #8
    72e2:	7026      	strb	r6, [r4, #0]
    72e4:	70a7      	strb	r7, [r4, #2]
    72e6:	70e7      	strb	r7, [r4, #3]
    72e8:	7161      	strb	r1, [r4, #5]
    72ea:	71a5      	strb	r5, [r4, #6]
    72ec:	7225      	strb	r5, [r4, #8]
    72ee:	72a0      	strb	r0, [r4, #10]
    72f0:	7363      	strb	r3, [r4, #13]
    72f2:	71e6      	strb	r6, [r4, #7]
    72f4:	7322      	strb	r2, [r4, #12]
    72f6:	1c20      	adds	r0, r4, #0
    72f8:	3902      	subs	r1, #2
    72fa:	4b03      	ldr	r3, [pc, #12]	; (7308 <gattc_att_info_cfm+0x48>)
    72fc:	4798      	blx	r3
    72fe:	bdf8      	pop	{r3, r4, r5, r6, r7, pc}
    7300:	20001a5c 	.word	0x20001a5c
    7304:	00009e74 	.word	0x00009e74
    7308:	000055cd 	.word	0x000055cd

0000730c <gattc_send_evt_cmd_handler>:
    730c:	b5f7      	push	{r0, r1, r2, r4, r5, r6, r7, lr}
    730e:	2600      	movs	r6, #0
    7310:	ac08      	add	r4, sp, #32
    7312:	2705      	movs	r7, #5
    7314:	8825      	ldrh	r5, [r4, #0]
    7316:	4c18      	ldr	r4, [pc, #96]	; (7378 <gattc_send_evt_cmd_handler+0x6c>)
    7318:	9301      	str	r3, [sp, #4]
    731a:	60a6      	str	r6, [r4, #8]
    731c:	60e6      	str	r6, [r4, #12]
    731e:	4c17      	ldr	r4, [pc, #92]	; (737c <gattc_send_evt_cmd_handler+0x70>)
    7320:	230c      	movs	r3, #12
    7322:	6824      	ldr	r4, [r4, #0]
    7324:	7260      	strb	r0, [r4, #9]
    7326:	1c20      	adds	r0, r4, #0
    7328:	7027      	strb	r7, [r4, #0]
    732a:	7122      	strb	r2, [r4, #4]
    732c:	370b      	adds	r7, #11
    732e:	4a14      	ldr	r2, [pc, #80]	; (7380 <gattc_send_evt_cmd_handler+0x74>)
    7330:	7067      	strb	r7, [r4, #1]
    7332:	8812      	ldrh	r2, [r2, #0]
    7334:	7361      	strb	r1, [r4, #13]
    7336:	3201      	adds	r2, #1
    7338:	72a2      	strb	r2, [r4, #10]
    733a:	1212      	asrs	r2, r2, #8
    733c:	72e2      	strb	r2, [r4, #11]
    733e:	0a09      	lsrs	r1, r1, #8
    7340:	0a2a      	lsrs	r2, r5, #8
    7342:	70a3      	strb	r3, [r4, #2]
    7344:	70e3      	strb	r3, [r4, #3]
    7346:	7167      	strb	r7, [r4, #5]
    7348:	71a6      	strb	r6, [r4, #6]
    734a:	71e6      	strb	r6, [r4, #7]
    734c:	7226      	strb	r6, [r4, #8]
    734e:	7326      	strb	r6, [r4, #12]
    7350:	73a1      	strb	r1, [r4, #14]
    7352:	73e5      	strb	r5, [r4, #15]
    7354:	7422      	strb	r2, [r4, #16]
    7356:	9901      	ldr	r1, [sp, #4]
    7358:	1c2a      	adds	r2, r5, #0
    735a:	4b0a      	ldr	r3, [pc, #40]	; (7384 <gattc_send_evt_cmd_handler+0x78>)
    735c:	3511      	adds	r5, #17
    735e:	3011      	adds	r0, #17
    7360:	4798      	blx	r3
    7362:	b2a9      	uxth	r1, r5
    7364:	1c0b      	adds	r3, r1, #0
    7366:	3b09      	subs	r3, #9
    7368:	71e3      	strb	r3, [r4, #7]
    736a:	121b      	asrs	r3, r3, #8
    736c:	7223      	strb	r3, [r4, #8]
    736e:	1c20      	adds	r0, r4, #0
    7370:	4b05      	ldr	r3, [pc, #20]	; (7388 <gattc_send_evt_cmd_handler+0x7c>)
    7372:	4798      	blx	r3
    7374:	bdf7      	pop	{r0, r1, r2, r4, r5, r6, r7, pc}
    7376:	46c0      	nop			; (mov r8, r8)
    7378:	20001a5c 	.word	0x20001a5c
    737c:	00009e74 	.word	0x00009e74
    7380:	20000f7a 	.word	0x20000f7a
    7384:	00007dbf 	.word	0x00007dbf
    7388:	000055cd 	.word	0x000055cd

0000738c <gattc_write_cmd_handler>:
    738c:	b5f8      	push	{r3, r4, r5, r6, r7, lr}
    738e:	2600      	movs	r6, #0
    7390:	ac06      	add	r4, sp, #24
    7392:	8825      	ldrh	r5, [r4, #0]
    7394:	ac08      	add	r4, sp, #32
    7396:	8824      	ldrh	r4, [r4, #0]
    7398:	2705      	movs	r7, #5
    739a:	46a4      	mov	ip, r4
    739c:	4c1b      	ldr	r4, [pc, #108]	; (740c <gattc_write_cmd_handler+0x80>)
    739e:	60a6      	str	r6, [r4, #8]
    73a0:	60e6      	str	r6, [r4, #12]
    73a2:	4c1b      	ldr	r4, [pc, #108]	; (7410 <gattc_write_cmd_handler+0x84>)
    73a4:	6824      	ldr	r4, [r4, #0]
    73a6:	7027      	strb	r7, [r4, #0]
    73a8:	19ff      	adds	r7, r7, r7
    73aa:	7067      	strb	r7, [r4, #1]
    73ac:	3702      	adds	r7, #2
    73ae:	70a7      	strb	r7, [r4, #2]
    73b0:	70e7      	strb	r7, [r4, #3]
    73b2:	4667      	mov	r7, ip
    73b4:	7127      	strb	r7, [r4, #4]
    73b6:	2710      	movs	r7, #16
    73b8:	7260      	strb	r0, [r4, #9]
    73ba:	4816      	ldr	r0, [pc, #88]	; (7414 <gattc_write_cmd_handler+0x88>)
    73bc:	72a1      	strb	r1, [r4, #10]
    73be:	8801      	ldrh	r1, [r0, #0]
    73c0:	7167      	strb	r7, [r4, #5]
    73c2:	72e1      	strb	r1, [r4, #11]
    73c4:	0a0f      	lsrs	r7, r1, #8
    73c6:	3101      	adds	r1, #1
    73c8:	8001      	strh	r1, [r0, #0]
    73ca:	1c20      	adds	r0, r4, #0
    73cc:	73e3      	strb	r3, [r4, #15]
    73ce:	0a1b      	lsrs	r3, r3, #8
    73d0:	7362      	strb	r2, [r4, #13]
    73d2:	7423      	strb	r3, [r4, #16]
    73d4:	0a12      	lsrs	r2, r2, #8
    73d6:	0a2b      	lsrs	r3, r5, #8
    73d8:	9907      	ldr	r1, [sp, #28]
    73da:	71a6      	strb	r6, [r4, #6]
    73dc:	71e6      	strb	r6, [r4, #7]
    73de:	7226      	strb	r6, [r4, #8]
    73e0:	7327      	strb	r7, [r4, #12]
    73e2:	73a2      	strb	r2, [r4, #14]
    73e4:	7465      	strb	r5, [r4, #17]
    73e6:	1c2a      	adds	r2, r5, #0
    73e8:	74e6      	strb	r6, [r4, #19]
    73ea:	7526      	strb	r6, [r4, #20]
    73ec:	3515      	adds	r5, #21
    73ee:	74a3      	strb	r3, [r4, #18]
    73f0:	3015      	adds	r0, #21
    73f2:	4b09      	ldr	r3, [pc, #36]	; (7418 <gattc_write_cmd_handler+0x8c>)
    73f4:	4798      	blx	r3
    73f6:	b2a9      	uxth	r1, r5
    73f8:	1c0b      	adds	r3, r1, #0
    73fa:	3b09      	subs	r3, #9
    73fc:	71e3      	strb	r3, [r4, #7]
    73fe:	121b      	asrs	r3, r3, #8
    7400:	7223      	strb	r3, [r4, #8]
    7402:	1c20      	adds	r0, r4, #0
    7404:	4b05      	ldr	r3, [pc, #20]	; (741c <gattc_write_cmd_handler+0x90>)
    7406:	4798      	blx	r3
    7408:	bdf8      	pop	{r3, r4, r5, r6, r7, pc}
    740a:	46c0      	nop			; (mov r8, r8)
    740c:	20001a5c 	.word	0x20001a5c
    7410:	00009e74 	.word	0x00009e74
    7414:	20000f78 	.word	0x20000f78
    7418:	00007dbf 	.word	0x00007dbf
    741c:	000055cd 	.word	0x000055cd

00007420 <gattc_event_cfm_handler>:
    7420:	2200      	movs	r2, #0
    7422:	4b0e      	ldr	r3, [pc, #56]	; (745c <gattc_event_cfm_handler+0x3c>)
    7424:	b510      	push	{r4, lr}
    7426:	609a      	str	r2, [r3, #8]
    7428:	60da      	str	r2, [r3, #12]
    742a:	4b0d      	ldr	r3, [pc, #52]	; (7460 <gattc_event_cfm_handler+0x40>)
    742c:	2405      	movs	r4, #5
    742e:	681b      	ldr	r3, [r3, #0]
    7430:	7118      	strb	r0, [r3, #4]
    7432:	2010      	movs	r0, #16
    7434:	701c      	strb	r4, [r3, #0]
    7436:	3409      	adds	r4, #9
    7438:	705c      	strb	r4, [r3, #1]
    743a:	719a      	strb	r2, [r3, #6]
    743c:	3c02      	subs	r4, #2
    743e:	721a      	strb	r2, [r3, #8]
    7440:	7259      	strb	r1, [r3, #9]
    7442:	3202      	adds	r2, #2
    7444:	0a09      	lsrs	r1, r1, #8
    7446:	709c      	strb	r4, [r3, #2]
    7448:	70dc      	strb	r4, [r3, #3]
    744a:	7158      	strb	r0, [r3, #5]
    744c:	7299      	strb	r1, [r3, #10]
    744e:	71da      	strb	r2, [r3, #7]
    7450:	1c18      	adds	r0, r3, #0
    7452:	210b      	movs	r1, #11
    7454:	4b03      	ldr	r3, [pc, #12]	; (7464 <gattc_event_cfm_handler+0x44>)
    7456:	4798      	blx	r3
    7458:	bd10      	pop	{r4, pc}
    745a:	46c0      	nop			; (mov r8, r8)
    745c:	20001a5c 	.word	0x20001a5c
    7460:	00009e74 	.word	0x00009e74
    7464:	000055cd 	.word	0x000055cd

00007468 <gattc_disc_svc_ind_parser>:
    7468:	b570      	push	{r4, r5, r6, lr}
    746a:	1c15      	adds	r5, r2, #0
    746c:	0a00      	lsrs	r0, r0, #8
    746e:	8010      	strh	r0, [r2, #0]
    7470:	784b      	ldrb	r3, [r1, #1]
    7472:	780a      	ldrb	r2, [r1, #0]
    7474:	021b      	lsls	r3, r3, #8
    7476:	4313      	orrs	r3, r2
    7478:	806b      	strh	r3, [r5, #2]
    747a:	78cb      	ldrb	r3, [r1, #3]
    747c:	788a      	ldrb	r2, [r1, #2]
    747e:	021b      	lsls	r3, r3, #8
    7480:	4313      	orrs	r3, r2
    7482:	80ab      	strh	r3, [r5, #4]
    7484:	790e      	ldrb	r6, [r1, #4]
    7486:	4b05      	ldr	r3, [pc, #20]	; (749c <gattc_disc_svc_ind_parser+0x34>)
    7488:	1c30      	adds	r0, r6, #0
    748a:	1c0c      	adds	r4, r1, #0
    748c:	4798      	blx	r3
    748e:	1c32      	adds	r2, r6, #0
    7490:	71a8      	strb	r0, [r5, #6]
    7492:	1d61      	adds	r1, r4, #5
    7494:	1de8      	adds	r0, r5, #7
    7496:	4b02      	ldr	r3, [pc, #8]	; (74a0 <gattc_disc_svc_ind_parser+0x38>)
    7498:	4798      	blx	r3
    749a:	bd70      	pop	{r4, r5, r6, pc}
    749c:	000047f9 	.word	0x000047f9
    74a0:	00007dbf 	.word	0x00007dbf

000074a4 <gattc_disc_svc_incl_ind_parser>:
    74a4:	b570      	push	{r4, r5, r6, lr}
    74a6:	1c15      	adds	r5, r2, #0
    74a8:	0a00      	lsrs	r0, r0, #8
    74aa:	8010      	strh	r0, [r2, #0]
    74ac:	784b      	ldrb	r3, [r1, #1]
    74ae:	780a      	ldrb	r2, [r1, #0]
    74b0:	021b      	lsls	r3, r3, #8
    74b2:	4313      	orrs	r3, r2
    74b4:	806b      	strh	r3, [r5, #2]
    74b6:	78cb      	ldrb	r3, [r1, #3]
    74b8:	788a      	ldrb	r2, [r1, #2]
    74ba:	021b      	lsls	r3, r3, #8
    74bc:	4313      	orrs	r3, r2
    74be:	80ab      	strh	r3, [r5, #4]
    74c0:	794b      	ldrb	r3, [r1, #5]
    74c2:	790a      	ldrb	r2, [r1, #4]
    74c4:	021b      	lsls	r3, r3, #8
    74c6:	4313      	orrs	r3, r2
    74c8:	80eb      	strh	r3, [r5, #6]
    74ca:	798e      	ldrb	r6, [r1, #6]
    74cc:	4b05      	ldr	r3, [pc, #20]	; (74e4 <gattc_disc_svc_incl_ind_parser+0x40>)
    74ce:	1c30      	adds	r0, r6, #0
    74d0:	1c0c      	adds	r4, r1, #0
    74d2:	4798      	blx	r3
    74d4:	7228      	strb	r0, [r5, #8]
    74d6:	1c28      	adds	r0, r5, #0
    74d8:	1c32      	adds	r2, r6, #0
    74da:	1de1      	adds	r1, r4, #7
    74dc:	4b02      	ldr	r3, [pc, #8]	; (74e8 <gattc_disc_svc_incl_ind_parser+0x44>)
    74de:	3009      	adds	r0, #9
    74e0:	4798      	blx	r3
    74e2:	bd70      	pop	{r4, r5, r6, pc}
    74e4:	000047f9 	.word	0x000047f9
    74e8:	00007dbf 	.word	0x00007dbf

000074ec <gattc_disc_char_ind_parser>:
    74ec:	b570      	push	{r4, r5, r6, lr}
    74ee:	1c15      	adds	r5, r2, #0
    74f0:	0a00      	lsrs	r0, r0, #8
    74f2:	8010      	strh	r0, [r2, #0]
    74f4:	784b      	ldrb	r3, [r1, #1]
    74f6:	780a      	ldrb	r2, [r1, #0]
    74f8:	021b      	lsls	r3, r3, #8
    74fa:	4313      	orrs	r3, r2
    74fc:	806b      	strh	r3, [r5, #2]
    74fe:	78cb      	ldrb	r3, [r1, #3]
    7500:	788a      	ldrb	r2, [r1, #2]
    7502:	021b      	lsls	r3, r3, #8
    7504:	4313      	orrs	r3, r2
    7506:	80ab      	strh	r3, [r5, #4]
    7508:	790b      	ldrb	r3, [r1, #4]
    750a:	1c0c      	adds	r4, r1, #0
    750c:	71ab      	strb	r3, [r5, #6]
    750e:	794e      	ldrb	r6, [r1, #5]
    7510:	4b05      	ldr	r3, [pc, #20]	; (7528 <gattc_disc_char_ind_parser+0x3c>)
    7512:	1c30      	adds	r0, r6, #0
    7514:	4798      	blx	r3
    7516:	71e8      	strb	r0, [r5, #7]
    7518:	1c28      	adds	r0, r5, #0
    751a:	1c32      	adds	r2, r6, #0
    751c:	1da1      	adds	r1, r4, #6
    751e:	4b03      	ldr	r3, [pc, #12]	; (752c <gattc_disc_char_ind_parser+0x40>)
    7520:	3008      	adds	r0, #8
    7522:	4798      	blx	r3
    7524:	bd70      	pop	{r4, r5, r6, pc}
    7526:	46c0      	nop			; (mov r8, r8)
    7528:	000047f9 	.word	0x000047f9
    752c:	00007dbf 	.word	0x00007dbf

00007530 <gattc_disc_char_desc_ind_parser>:
    7530:	b570      	push	{r4, r5, r6, lr}
    7532:	1c15      	adds	r5, r2, #0
    7534:	0a00      	lsrs	r0, r0, #8
    7536:	8010      	strh	r0, [r2, #0]
    7538:	784b      	ldrb	r3, [r1, #1]
    753a:	780a      	ldrb	r2, [r1, #0]
    753c:	021b      	lsls	r3, r3, #8
    753e:	4313      	orrs	r3, r2
    7540:	806b      	strh	r3, [r5, #2]
    7542:	788e      	ldrb	r6, [r1, #2]
    7544:	4b05      	ldr	r3, [pc, #20]	; (755c <gattc_disc_char_desc_ind_parser+0x2c>)
    7546:	1c30      	adds	r0, r6, #0
    7548:	1c0c      	adds	r4, r1, #0
    754a:	4798      	blx	r3
    754c:	1c32      	adds	r2, r6, #0
    754e:	7128      	strb	r0, [r5, #4]
    7550:	1ce1      	adds	r1, r4, #3
    7552:	1d68      	adds	r0, r5, #5
    7554:	4b02      	ldr	r3, [pc, #8]	; (7560 <gattc_disc_char_desc_ind_parser+0x30>)
    7556:	4798      	blx	r3
    7558:	bd70      	pop	{r4, r5, r6, pc}
    755a:	46c0      	nop			; (mov r8, r8)
    755c:	000047f9 	.word	0x000047f9
    7560:	00007dbf 	.word	0x00007dbf

00007564 <gattc_event_ind_and_notification_parser>:
    7564:	b510      	push	{r4, lr}
    7566:	780c      	ldrb	r4, [r1, #0]
    7568:	1c13      	adds	r3, r2, #0
    756a:	2c12      	cmp	r4, #18
    756c:	d10e      	bne.n	758c <gattc_event_ind_and_notification_parser+0x28>
    756e:	0a00      	lsrs	r0, r0, #8
    7570:	8010      	strh	r0, [r2, #0]
    7572:	788a      	ldrb	r2, [r1, #2]
    7574:	709a      	strb	r2, [r3, #2]
    7576:	7948      	ldrb	r0, [r1, #5]
    7578:	790c      	ldrb	r4, [r1, #4]
    757a:	0200      	lsls	r0, r0, #8
    757c:	4320      	orrs	r0, r4
    757e:	8098      	strh	r0, [r3, #4]
    7580:	3106      	adds	r1, #6
    7582:	1d98      	adds	r0, r3, #6
    7584:	4b0b      	ldr	r3, [pc, #44]	; (75b4 <gattc_event_ind_and_notification_parser+0x50>)
    7586:	4798      	blx	r3
    7588:	221b      	movs	r2, #27
    758a:	e010      	b.n	75ae <gattc_event_ind_and_notification_parser+0x4a>
    758c:	2200      	movs	r2, #0
    758e:	2c13      	cmp	r4, #19
    7590:	d10d      	bne.n	75ae <gattc_event_ind_and_notification_parser+0x4a>
    7592:	0a00      	lsrs	r0, r0, #8
    7594:	8018      	strh	r0, [r3, #0]
    7596:	788a      	ldrb	r2, [r1, #2]
    7598:	709a      	strb	r2, [r3, #2]
    759a:	7908      	ldrb	r0, [r1, #4]
    759c:	78cc      	ldrb	r4, [r1, #3]
    759e:	0200      	lsls	r0, r0, #8
    75a0:	4320      	orrs	r0, r4
    75a2:	8098      	strh	r0, [r3, #4]
    75a4:	3106      	adds	r1, #6
    75a6:	1d98      	adds	r0, r3, #6
    75a8:	4b02      	ldr	r3, [pc, #8]	; (75b4 <gattc_event_ind_and_notification_parser+0x50>)
    75aa:	4798      	blx	r3
    75ac:	221c      	movs	r2, #28
    75ae:	1c10      	adds	r0, r2, #0
    75b0:	bd10      	pop	{r4, pc}
    75b2:	46c0      	nop			; (mov r8, r8)
    75b4:	00007dbf 	.word	0x00007dbf

000075b8 <gattc_complete_evt_handler>:
    75b8:	b570      	push	{r4, r5, r6, lr}
    75ba:	1c14      	adds	r4, r2, #0
    75bc:	0a00      	lsrs	r0, r0, #8
    75be:	8010      	strh	r0, [r2, #0]
    75c0:	7808      	ldrb	r0, [r1, #0]
    75c2:	7090      	strb	r0, [r2, #2]
    75c4:	78cb      	ldrb	r3, [r1, #3]
    75c6:	784a      	ldrb	r2, [r1, #1]
    75c8:	7889      	ldrb	r1, [r1, #2]
    75ca:	021b      	lsls	r3, r3, #8
    75cc:	430b      	orrs	r3, r1
    75ce:	4926      	ldr	r1, [pc, #152]	; (7668 <gattc_complete_evt_handler+0xb0>)
    75d0:	3801      	subs	r0, #1
    75d2:	800b      	strh	r3, [r1, #0]
    75d4:	70e2      	strb	r2, [r4, #3]
    75d6:	2813      	cmp	r0, #19
    75d8:	d835      	bhi.n	7646 <gattc_complete_evt_handler+0x8e>
    75da:	f000 faf9 	bl	7bd0 <__gnu_thumb1_case_uqi>
    75de:	420c      	.short	0x420c
    75e0:	42424242 	.word	0x42424242
    75e4:	1f1f1f42 	.word	0x1f1f1f42
    75e8:	0a0a0a1d 	.word	0x0a0a0a1d
    75ec:	1134340a 	.word	0x1134340a
    75f0:	3217      	.short	0x3217
    75f2:	2025      	movs	r0, #37	; 0x25
    75f4:	e036      	b.n	7664 <gattc_complete_evt_handler+0xac>
    75f6:	2024      	movs	r0, #36	; 0x24
    75f8:	2a00      	cmp	r2, #0
    75fa:	d133      	bne.n	7664 <gattc_complete_evt_handler+0xac>
    75fc:	3016      	adds	r0, #22
    75fe:	e031      	b.n	7664 <gattc_complete_evt_handler+0xac>
    7600:	4a1a      	ldr	r2, [pc, #104]	; (766c <gattc_complete_evt_handler+0xb4>)
    7602:	201d      	movs	r0, #29
    7604:	6813      	ldr	r3, [r2, #0]
    7606:	3b01      	subs	r3, #1
    7608:	6013      	str	r3, [r2, #0]
    760a:	e02b      	b.n	7664 <gattc_complete_evt_handler+0xac>
    760c:	4a17      	ldr	r2, [pc, #92]	; (766c <gattc_complete_evt_handler+0xb4>)
    760e:	201e      	movs	r0, #30
    7610:	6813      	ldr	r3, [r2, #0]
    7612:	3b01      	subs	r3, #1
    7614:	6013      	str	r3, [r2, #0]
    7616:	e025      	b.n	7664 <gattc_complete_evt_handler+0xac>
    7618:	2019      	movs	r0, #25
    761a:	e023      	b.n	7664 <gattc_complete_evt_handler+0xac>
    761c:	203a      	movs	r0, #58	; 0x3a
    761e:	2a00      	cmp	r2, #0
    7620:	d020      	beq.n	7664 <gattc_complete_evt_handler+0xac>
    7622:	2382      	movs	r3, #130	; 0x82
    7624:	009b      	lsls	r3, r3, #2
    7626:	54e2      	strb	r2, [r4, r3]
    7628:	22c8      	movs	r2, #200	; 0xc8
    762a:	4c11      	ldr	r4, [pc, #68]	; (7670 <gattc_complete_evt_handler+0xb8>)
    762c:	4911      	ldr	r1, [pc, #68]	; (7674 <gattc_complete_evt_handler+0xbc>)
    762e:	32ff      	adds	r2, #255	; 0xff
    7630:	4b11      	ldr	r3, [pc, #68]	; (7678 <gattc_complete_evt_handler+0xc0>)
    7632:	4812      	ldr	r0, [pc, #72]	; (767c <gattc_complete_evt_handler+0xc4>)
    7634:	6825      	ldr	r5, [r4, #0]
    7636:	47a8      	blx	r5
    7638:	6823      	ldr	r3, [r4, #0]
    763a:	4811      	ldr	r0, [pc, #68]	; (7680 <gattc_complete_evt_handler+0xc8>)
    763c:	4798      	blx	r3
    763e:	2018      	movs	r0, #24
    7640:	e010      	b.n	7664 <gattc_complete_evt_handler+0xac>
    7642:	2021      	movs	r0, #33	; 0x21
    7644:	e00e      	b.n	7664 <gattc_complete_evt_handler+0xac>
    7646:	22d8      	movs	r2, #216	; 0xd8
    7648:	4d09      	ldr	r5, [pc, #36]	; (7670 <gattc_complete_evt_handler+0xb8>)
    764a:	490a      	ldr	r1, [pc, #40]	; (7674 <gattc_complete_evt_handler+0xbc>)
    764c:	32ff      	adds	r2, #255	; 0xff
    764e:	4b0a      	ldr	r3, [pc, #40]	; (7678 <gattc_complete_evt_handler+0xc0>)
    7650:	480a      	ldr	r0, [pc, #40]	; (767c <gattc_complete_evt_handler+0xc4>)
    7652:	682e      	ldr	r6, [r5, #0]
    7654:	47b0      	blx	r6
    7656:	78a1      	ldrb	r1, [r4, #2]
    7658:	682b      	ldr	r3, [r5, #0]
    765a:	480a      	ldr	r0, [pc, #40]	; (7684 <gattc_complete_evt_handler+0xcc>)
    765c:	4798      	blx	r3
    765e:	2000      	movs	r0, #0
    7660:	e000      	b.n	7664 <gattc_complete_evt_handler+0xac>
    7662:	2017      	movs	r0, #23
    7664:	bd70      	pop	{r4, r5, r6, pc}
    7666:	46c0      	nop			; (mov r8, r8)
    7668:	20000f7c 	.word	0x20000f7c
    766c:	20000f80 	.word	0x20000f80
    7670:	200000ec 	.word	0x200000ec
    7674:	0000a219 	.word	0x0000a219
    7678:	0000a275 	.word	0x0000a275
    767c:	00009a19 	.word	0x00009a19
    7680:	0000a255 	.word	0x0000a255
    7684:	0000a120 	.word	0x0000a120

00007688 <gattc_event_mtu_changed_ind_parser>:
    7688:	0a00      	lsrs	r0, r0, #8
    768a:	8010      	strh	r0, [r2, #0]
    768c:	784b      	ldrb	r3, [r1, #1]
    768e:	7809      	ldrb	r1, [r1, #0]
    7690:	021b      	lsls	r3, r3, #8
    7692:	430b      	orrs	r3, r1
    7694:	8053      	strh	r3, [r2, #2]
    7696:	4770      	bx	lr

00007698 <gattc_read_ind_parser>:
    7698:	0a00      	lsrs	r0, r0, #8
    769a:	b508      	push	{r3, lr}
    769c:	8010      	strh	r0, [r2, #0]
    769e:	1c13      	adds	r3, r2, #0
    76a0:	2282      	movs	r2, #130	; 0x82
    76a2:	2000      	movs	r0, #0
    76a4:	0092      	lsls	r2, r2, #2
    76a6:	5498      	strb	r0, [r3, r2]
    76a8:	784a      	ldrb	r2, [r1, #1]
    76aa:	7808      	ldrb	r0, [r1, #0]
    76ac:	0212      	lsls	r2, r2, #8
    76ae:	4302      	orrs	r2, r0
    76b0:	805a      	strh	r2, [r3, #2]
    76b2:	78ca      	ldrb	r2, [r1, #3]
    76b4:	7888      	ldrb	r0, [r1, #2]
    76b6:	0212      	lsls	r2, r2, #8
    76b8:	4302      	orrs	r2, r0
    76ba:	80da      	strh	r2, [r3, #6]
    76bc:	794a      	ldrb	r2, [r1, #5]
    76be:	7908      	ldrb	r0, [r1, #4]
    76c0:	0212      	lsls	r2, r2, #8
    76c2:	4302      	orrs	r2, r0
    76c4:	809a      	strh	r2, [r3, #4]
    76c6:	3308      	adds	r3, #8
    76c8:	1c18      	adds	r0, r3, #0
    76ca:	3106      	adds	r1, #6
    76cc:	4b01      	ldr	r3, [pc, #4]	; (76d4 <gattc_read_ind_parser+0x3c>)
    76ce:	4798      	blx	r3
    76d0:	bd08      	pop	{r3, pc}
    76d2:	46c0      	nop			; (mov r8, r8)
    76d4:	00007dbf 	.word	0x00007dbf

000076d8 <gattc_svc_changed_cfg_ind_parser>:
    76d8:	0a00      	lsrs	r0, r0, #8
    76da:	8010      	strh	r0, [r2, #0]
    76dc:	784b      	ldrb	r3, [r1, #1]
    76de:	7809      	ldrb	r1, [r1, #0]
    76e0:	021b      	lsls	r3, r3, #8
    76e2:	430b      	orrs	r3, r1
    76e4:	8053      	strh	r3, [r2, #2]
    76e6:	4770      	bx	lr

000076e8 <gattm_add_svc_req_handler>:
    76e8:	b5f7      	push	{r0, r1, r2, r4, r5, r6, r7, lr}
    76ea:	7943      	ldrb	r3, [r0, #5]
    76ec:	4a3a      	ldr	r2, [pc, #232]	; (77d8 <gattm_add_svc_req_handler+0xf0>)
    76ee:	9301      	str	r3, [sp, #4]
    76f0:	2300      	movs	r3, #0
    76f2:	60d3      	str	r3, [r2, #12]
    76f4:	6093      	str	r3, [r2, #8]
    76f6:	4a39      	ldr	r2, [pc, #228]	; (77dc <gattm_add_svc_req_handler+0xf4>)
    76f8:	1c05      	adds	r5, r0, #0
    76fa:	6814      	ldr	r4, [r2, #0]
    76fc:	2205      	movs	r2, #5
    76fe:	7022      	strb	r2, [r4, #0]
    7700:	3206      	adds	r2, #6
    7702:	70a2      	strb	r2, [r4, #2]
    7704:	70e2      	strb	r2, [r4, #3]
    7706:	3205      	adds	r2, #5
    7708:	7063      	strb	r3, [r4, #1]
    770a:	7123      	strb	r3, [r4, #4]
    770c:	7162      	strb	r2, [r4, #5]
    770e:	71a3      	strb	r3, [r4, #6]
    7710:	71e3      	strb	r3, [r4, #7]
    7712:	7223      	strb	r3, [r4, #8]
    7714:	8802      	ldrh	r2, [r0, #0]
    7716:	7262      	strb	r2, [r4, #9]
    7718:	8802      	ldrh	r2, [r0, #0]
    771a:	0a12      	lsrs	r2, r2, #8
    771c:	72a2      	strb	r2, [r4, #10]
    771e:	8842      	ldrh	r2, [r0, #2]
    7720:	72e2      	strb	r2, [r4, #11]
    7722:	8842      	ldrh	r2, [r0, #2]
    7724:	0a12      	lsrs	r2, r2, #8
    7726:	7322      	strb	r2, [r4, #12]
    7728:	7902      	ldrb	r2, [r0, #4]
    772a:	7362      	strb	r2, [r4, #13]
    772c:	466a      	mov	r2, sp
    772e:	7912      	ldrb	r2, [r2, #4]
    7730:	73a2      	strb	r2, [r4, #14]
    7732:	18ea      	adds	r2, r5, r3
    7734:	7991      	ldrb	r1, [r2, #6]
    7736:	18e2      	adds	r2, r4, r3
    7738:	3301      	adds	r3, #1
    773a:	73d1      	strb	r1, [r2, #15]
    773c:	2b10      	cmp	r3, #16
    773e:	d1f8      	bne.n	7732 <gattm_add_svc_req_handler+0x4a>
    7740:	2300      	movs	r3, #0
    7742:	1c29      	adds	r1, r5, #0
    7744:	9300      	str	r3, [sp, #0]
    7746:	1c0e      	adds	r6, r1, #0
    7748:	b2af      	uxth	r7, r5
    774a:	1bc8      	subs	r0, r1, r7
    774c:	9b00      	ldr	r3, [sp, #0]
    774e:	9a01      	ldr	r2, [sp, #4]
    7750:	301f      	adds	r0, #31
    7752:	b280      	uxth	r0, r0
    7754:	3614      	adds	r6, #20
    7756:	4293      	cmp	r3, r2
    7758:	da20      	bge.n	779c <gattm_add_svc_req_handler+0xb4>
    775a:	3116      	adds	r1, #22
    775c:	2210      	movs	r2, #16
    775e:	4b20      	ldr	r3, [pc, #128]	; (77e0 <gattm_add_svc_req_handler+0xf8>)
    7760:	1820      	adds	r0, r4, r0
    7762:	4798      	blx	r3
    7764:	b2b3      	uxth	r3, r6
    7766:	1bda      	subs	r2, r3, r7
    7768:	8a71      	ldrh	r1, [r6, #18]
    776a:	321b      	adds	r2, #27
    776c:	b292      	uxth	r2, r2
    776e:	54a1      	strb	r1, [r4, r2]
    7770:	8a71      	ldrh	r1, [r6, #18]
    7772:	1bda      	subs	r2, r3, r7
    7774:	321c      	adds	r2, #28
    7776:	b292      	uxth	r2, r2
    7778:	0a09      	lsrs	r1, r1, #8
    777a:	54a1      	strb	r1, [r4, r2]
    777c:	1bda      	subs	r2, r3, r7
    777e:	8ab1      	ldrh	r1, [r6, #20]
    7780:	321d      	adds	r2, #29
    7782:	b292      	uxth	r2, r2
    7784:	54a1      	strb	r1, [r4, r2]
    7786:	1bdf      	subs	r7, r3, r7
    7788:	8ab3      	ldrh	r3, [r6, #20]
    778a:	371e      	adds	r7, #30
    778c:	0a1b      	lsrs	r3, r3, #8
    778e:	b2bf      	uxth	r7, r7
    7790:	55e3      	strb	r3, [r4, r7]
    7792:	9b00      	ldr	r3, [sp, #0]
    7794:	1c31      	adds	r1, r6, #0
    7796:	3301      	adds	r3, #1
    7798:	9300      	str	r3, [sp, #0]
    779a:	e7d4      	b.n	7746 <gattm_add_svc_req_handler+0x5e>
    779c:	2114      	movs	r1, #20
    779e:	4e0e      	ldr	r6, [pc, #56]	; (77d8 <gattm_add_svc_req_handler+0xf0>)
    77a0:	4b10      	ldr	r3, [pc, #64]	; (77e4 <gattm_add_svc_req_handler+0xfc>)
    77a2:	4351      	muls	r1, r2
    77a4:	8033      	strh	r3, [r6, #0]
    77a6:	230b      	movs	r3, #11
    77a8:	311f      	adds	r1, #31
    77aa:	80b3      	strh	r3, [r6, #4]
    77ac:	1c0b      	adds	r3, r1, #0
    77ae:	3b09      	subs	r3, #9
    77b0:	71e3      	strb	r3, [r4, #7]
    77b2:	121b      	asrs	r3, r3, #8
    77b4:	7223      	strb	r3, [r4, #8]
    77b6:	1c20      	adds	r0, r4, #0
    77b8:	4b0b      	ldr	r3, [pc, #44]	; (77e8 <gattm_add_svc_req_handler+0x100>)
    77ba:	4798      	blx	r3
    77bc:	4b0b      	ldr	r3, [pc, #44]	; (77ec <gattm_add_svc_req_handler+0x104>)
    77be:	4798      	blx	r3
    77c0:	23d0      	movs	r3, #208	; 0xd0
    77c2:	4298      	cmp	r0, r3
    77c4:	d006      	beq.n	77d4 <gattm_add_svc_req_handler+0xec>
    77c6:	68b2      	ldr	r2, [r6, #8]
    77c8:	7853      	ldrb	r3, [r2, #1]
    77ca:	7811      	ldrb	r1, [r2, #0]
    77cc:	021b      	lsls	r3, r3, #8
    77ce:	430b      	orrs	r3, r1
    77d0:	802b      	strh	r3, [r5, #0]
    77d2:	7893      	ldrb	r3, [r2, #2]
    77d4:	1c18      	adds	r0, r3, #0
    77d6:	bdfe      	pop	{r1, r2, r3, r4, r5, r6, r7, pc}
    77d8:	20001a5c 	.word	0x20001a5c
    77dc:	00009e74 	.word	0x00009e74
    77e0:	00007dbf 	.word	0x00007dbf
    77e4:	00000b01 	.word	0x00000b01
    77e8:	000055cd 	.word	0x000055cd
    77ec:	00005831 	.word	0x00005831

000077f0 <gattm_add_attribute_req_handler>:
    77f0:	b5f7      	push	{r0, r1, r2, r4, r5, r6, r7, lr}
    77f2:	1c1f      	adds	r7, r3, #0
    77f4:	4b1b      	ldr	r3, [pc, #108]	; (7864 <gattm_add_attribute_req_handler+0x74>)
    77f6:	9100      	str	r1, [sp, #0]
    77f8:	9201      	str	r2, [sp, #4]
    77fa:	7946      	ldrb	r6, [r0, #5]
    77fc:	1c05      	adds	r5, r0, #0
    77fe:	6818      	ldr	r0, [r3, #0]
    7800:	2114      	movs	r1, #20
    7802:	382a      	subs	r0, #42	; 0x2a
    7804:	4b18      	ldr	r3, [pc, #96]	; (7868 <gattm_add_attribute_req_handler+0x78>)
    7806:	4798      	blx	r3
    7808:	4286      	cmp	r6, r0
    780a:	d30b      	bcc.n	7824 <gattm_add_attribute_req_handler+0x34>
    780c:	4c17      	ldr	r4, [pc, #92]	; (786c <gattm_add_attribute_req_handler+0x7c>)
    780e:	4918      	ldr	r1, [pc, #96]	; (7870 <gattm_add_attribute_req_handler+0x80>)
    7810:	222c      	movs	r2, #44	; 0x2c
    7812:	4b18      	ldr	r3, [pc, #96]	; (7874 <gattm_add_attribute_req_handler+0x84>)
    7814:	4818      	ldr	r0, [pc, #96]	; (7878 <gattm_add_attribute_req_handler+0x88>)
    7816:	6825      	ldr	r5, [r4, #0]
    7818:	47a8      	blx	r5
    781a:	6823      	ldr	r3, [r4, #0]
    781c:	4817      	ldr	r0, [pc, #92]	; (787c <gattm_add_attribute_req_handler+0x8c>)
    781e:	4798      	blx	r3
    7820:	2011      	movs	r0, #17
    7822:	e01e      	b.n	7862 <gattm_add_attribute_req_handler+0x72>
    7824:	2414      	movs	r4, #20
    7826:	4366      	muls	r6, r4
    7828:	19a8      	adds	r0, r5, r6
    782a:	2100      	movs	r1, #0
    782c:	2210      	movs	r2, #16
    782e:	4b14      	ldr	r3, [pc, #80]	; (7880 <gattm_add_attribute_req_handler+0x90>)
    7830:	3016      	adds	r0, #22
    7832:	4798      	blx	r3
    7834:	7968      	ldrb	r0, [r5, #5]
    7836:	1c3a      	adds	r2, r7, #0
    7838:	4360      	muls	r0, r4
    783a:	1828      	adds	r0, r5, r0
    783c:	4b11      	ldr	r3, [pc, #68]	; (7884 <gattm_add_attribute_req_handler+0x94>)
    783e:	3016      	adds	r0, #22
    7840:	9908      	ldr	r1, [sp, #32]
    7842:	4798      	blx	r3
    7844:	466a      	mov	r2, sp
    7846:	796b      	ldrb	r3, [r5, #5]
    7848:	8812      	ldrh	r2, [r2, #0]
    784a:	435c      	muls	r4, r3
    784c:	192c      	adds	r4, r5, r4
    784e:	8522      	strh	r2, [r4, #40]	; 0x28
    7850:	466a      	mov	r2, sp
    7852:	2000      	movs	r0, #0
    7854:	8892      	ldrh	r2, [r2, #4]
    7856:	84e2      	strh	r2, [r4, #38]	; 0x26
    7858:	9a09      	ldr	r2, [sp, #36]	; 0x24
    785a:	8013      	strh	r3, [r2, #0]
    785c:	796b      	ldrb	r3, [r5, #5]
    785e:	3301      	adds	r3, #1
    7860:	716b      	strb	r3, [r5, #5]
    7862:	bdfe      	pop	{r1, r2, r3, r4, r5, r6, r7, pc}
    7864:	20000864 	.word	0x20000864
    7868:	00007be5 	.word	0x00007be5
    786c:	200000ec 	.word	0x200000ec
    7870:	0000a290 	.word	0x0000a290
    7874:	0000a2cc 	.word	0x0000a2cc
    7878:	00009a19 	.word	0x00009a19
    787c:	00009b95 	.word	0x00009b95
    7880:	00007dd1 	.word	0x00007dd1
    7884:	00007dbf 	.word	0x00007dbf

00007888 <gattm_att_set_value_req_handler>:
    7888:	b5f8      	push	{r3, r4, r5, r6, r7, lr}
    788a:	2300      	movs	r3, #0
    788c:	1c0d      	adds	r5, r1, #0
    788e:	491a      	ldr	r1, [pc, #104]	; (78f8 <gattm_att_set_value_req_handler+0x70>)
    7890:	4e1a      	ldr	r6, [pc, #104]	; (78fc <gattm_att_set_value_req_handler+0x74>)
    7892:	680c      	ldr	r4, [r1, #0]
    7894:	2105      	movs	r1, #5
    7896:	60f3      	str	r3, [r6, #12]
    7898:	60b3      	str	r3, [r6, #8]
    789a:	7260      	strb	r0, [r4, #9]
    789c:	0a00      	lsrs	r0, r0, #8
    789e:	270b      	movs	r7, #11
    78a0:	72a0      	strb	r0, [r4, #10]
    78a2:	1c20      	adds	r0, r4, #0
    78a4:	7021      	strb	r1, [r4, #0]
    78a6:	3107      	adds	r1, #7
    78a8:	7061      	strb	r1, [r4, #1]
    78aa:	7123      	strb	r3, [r4, #4]
    78ac:	3104      	adds	r1, #4
    78ae:	71a3      	strb	r3, [r4, #6]
    78b0:	71e3      	strb	r3, [r4, #7]
    78b2:	7223      	strb	r3, [r4, #8]
    78b4:	0a2b      	lsrs	r3, r5, #8
    78b6:	7161      	strb	r1, [r4, #5]
    78b8:	72e5      	strb	r5, [r4, #11]
    78ba:	1c11      	adds	r1, r2, #0
    78bc:	7323      	strb	r3, [r4, #12]
    78be:	1c2a      	adds	r2, r5, #0
    78c0:	4b0f      	ldr	r3, [pc, #60]	; (7900 <gattm_att_set_value_req_handler+0x78>)
    78c2:	70a7      	strb	r7, [r4, #2]
    78c4:	70e7      	strb	r7, [r4, #3]
    78c6:	300d      	adds	r0, #13
    78c8:	4798      	blx	r3
    78ca:	350d      	adds	r5, #13
    78cc:	4b0d      	ldr	r3, [pc, #52]	; (7904 <gattm_att_set_value_req_handler+0x7c>)
    78ce:	b2a9      	uxth	r1, r5
    78d0:	8033      	strh	r3, [r6, #0]
    78d2:	1c0b      	adds	r3, r1, #0
    78d4:	3b09      	subs	r3, #9
    78d6:	71e3      	strb	r3, [r4, #7]
    78d8:	121b      	asrs	r3, r3, #8
    78da:	7223      	strb	r3, [r4, #8]
    78dc:	1c20      	adds	r0, r4, #0
    78de:	4b0a      	ldr	r3, [pc, #40]	; (7908 <gattm_att_set_value_req_handler+0x80>)
    78e0:	80b7      	strh	r7, [r6, #4]
    78e2:	4798      	blx	r3
    78e4:	4b09      	ldr	r3, [pc, #36]	; (790c <gattm_att_set_value_req_handler+0x84>)
    78e6:	4798      	blx	r3
    78e8:	23d0      	movs	r3, #208	; 0xd0
    78ea:	4298      	cmp	r0, r3
    78ec:	d001      	beq.n	78f2 <gattm_att_set_value_req_handler+0x6a>
    78ee:	68b3      	ldr	r3, [r6, #8]
    78f0:	789b      	ldrb	r3, [r3, #2]
    78f2:	1c18      	adds	r0, r3, #0
    78f4:	bdf8      	pop	{r3, r4, r5, r6, r7, pc}
    78f6:	46c0      	nop			; (mov r8, r8)
    78f8:	00009e74 	.word	0x00009e74
    78fc:	20001a5c 	.word	0x20001a5c
    7900:	00007dbf 	.word	0x00007dbf
    7904:	00000b0d 	.word	0x00000b0d
    7908:	000055cd 	.word	0x000055cd
    790c:	00005831 	.word	0x00005831

00007910 <gattm_att_get_value_req_handler>:
    7910:	b5f7      	push	{r0, r1, r2, r4, r5, r6, r7, lr}
    7912:	2300      	movs	r3, #0
    7914:	1c06      	adds	r6, r0, #0
    7916:	9201      	str	r2, [sp, #4]
    7918:	4a1a      	ldr	r2, [pc, #104]	; (7984 <gattm_att_get_value_req_handler+0x74>)
    791a:	4c1b      	ldr	r4, [pc, #108]	; (7988 <gattm_att_get_value_req_handler+0x78>)
    791c:	6810      	ldr	r0, [r2, #0]
    791e:	2205      	movs	r2, #5
    7920:	60a3      	str	r3, [r4, #8]
    7922:	60e3      	str	r3, [r4, #12]
    7924:	7103      	strb	r3, [r0, #4]
    7926:	7183      	strb	r3, [r0, #6]
    7928:	7203      	strb	r3, [r0, #8]
    792a:	0a33      	lsrs	r3, r6, #8
    792c:	7283      	strb	r3, [r0, #10]
    792e:	4b17      	ldr	r3, [pc, #92]	; (798c <gattm_att_get_value_req_handler+0x7c>)
    7930:	7002      	strb	r2, [r0, #0]
    7932:	1892      	adds	r2, r2, r2
    7934:	7042      	strb	r2, [r0, #1]
    7936:	1c0f      	adds	r7, r1, #0
    7938:	8023      	strh	r3, [r4, #0]
    793a:	210b      	movs	r1, #11
    793c:	2302      	movs	r3, #2
    793e:	3206      	adds	r2, #6
    7940:	7081      	strb	r1, [r0, #2]
    7942:	70c1      	strb	r1, [r0, #3]
    7944:	7142      	strb	r2, [r0, #5]
    7946:	71c3      	strb	r3, [r0, #7]
    7948:	7246      	strb	r6, [r0, #9]
    794a:	4b11      	ldr	r3, [pc, #68]	; (7990 <gattm_att_get_value_req_handler+0x80>)
    794c:	80a1      	strh	r1, [r4, #4]
    794e:	4798      	blx	r3
    7950:	4b10      	ldr	r3, [pc, #64]	; (7994 <gattm_att_get_value_req_handler+0x84>)
    7952:	4798      	blx	r3
    7954:	25d0      	movs	r5, #208	; 0xd0
    7956:	42a8      	cmp	r0, r5
    7958:	d011      	beq.n	797e <gattm_att_get_value_req_handler+0x6e>
    795a:	68a1      	ldr	r1, [r4, #8]
    795c:	9801      	ldr	r0, [sp, #4]
    795e:	784c      	ldrb	r4, [r1, #1]
    7960:	780b      	ldrb	r3, [r1, #0]
    7962:	78ca      	ldrb	r2, [r1, #3]
    7964:	0224      	lsls	r4, r4, #8
    7966:	431c      	orrs	r4, r3
    7968:	788b      	ldrb	r3, [r1, #2]
    796a:	0212      	lsls	r2, r2, #8
    796c:	431a      	orrs	r2, r3
    796e:	803a      	strh	r2, [r7, #0]
    7970:	790d      	ldrb	r5, [r1, #4]
    7972:	4b09      	ldr	r3, [pc, #36]	; (7998 <gattm_att_get_value_req_handler+0x88>)
    7974:	3105      	adds	r1, #5
    7976:	4798      	blx	r3
    7978:	42a6      	cmp	r6, r4
    797a:	d000      	beq.n	797e <gattm_att_get_value_req_handler+0x6e>
    797c:	25e2      	movs	r5, #226	; 0xe2
    797e:	1c28      	adds	r0, r5, #0
    7980:	bdfe      	pop	{r1, r2, r3, r4, r5, r6, r7, pc}
    7982:	46c0      	nop			; (mov r8, r8)
    7984:	00009e74 	.word	0x00009e74
    7988:	20001a5c 	.word	0x20001a5c
    798c:	00000b0b 	.word	0x00000b0b
    7990:	000055cd 	.word	0x000055cd
    7994:	00005831 	.word	0x00005831
    7998:	00007dbf 	.word	0x00007dbf

0000799c <htpt_enable_rsp_handler>:
    799c:	780b      	ldrb	r3, [r1, #0]
    799e:	7013      	strb	r3, [r2, #0]
    79a0:	784b      	ldrb	r3, [r1, #1]
    79a2:	7053      	strb	r3, [r2, #1]
    79a4:	4770      	bx	lr

000079a6 <htpt_temp_send_rsp_handler>:
    79a6:	780b      	ldrb	r3, [r1, #0]
    79a8:	7013      	strb	r3, [r2, #0]
    79aa:	4770      	bx	lr

000079ac <htpt_meas_intv_upd_rsp_handler>:
    79ac:	780b      	ldrb	r3, [r1, #0]
    79ae:	7013      	strb	r3, [r2, #0]
    79b0:	4770      	bx	lr

000079b2 <htpt_meas_intv_chg_req_ind_handler>:
    79b2:	78cb      	ldrb	r3, [r1, #3]
    79b4:	7889      	ldrb	r1, [r1, #2]
    79b6:	021b      	lsls	r3, r3, #8
    79b8:	430b      	orrs	r3, r1
    79ba:	8013      	strh	r3, [r2, #0]
    79bc:	4770      	bx	lr

000079be <htpt_cfg_indntf_ind_handler>:
    79be:	780b      	ldrb	r3, [r1, #0]
    79c0:	7013      	strb	r3, [r2, #0]
    79c2:	784b      	ldrb	r3, [r1, #1]
    79c4:	7053      	strb	r3, [r2, #1]
    79c6:	4770      	bx	lr

000079c8 <write_32_to_BTLC1000>:
    79c8:	b51f      	push	{r0, r1, r2, r3, r4, lr}
    79ca:	2206      	movs	r2, #6
    79cc:	ab01      	add	r3, sp, #4
    79ce:	701a      	strb	r2, [r3, #0]
    79d0:	0e02      	lsrs	r2, r0, #24
    79d2:	705a      	strb	r2, [r3, #1]
    79d4:	0c02      	lsrs	r2, r0, #16
    79d6:	709a      	strb	r2, [r3, #2]
    79d8:	0a02      	lsrs	r2, r0, #8
    79da:	70da      	strb	r2, [r3, #3]
    79dc:	0e0a      	lsrs	r2, r1, #24
    79de:	715a      	strb	r2, [r3, #5]
    79e0:	0c0a      	lsrs	r2, r1, #16
    79e2:	719a      	strb	r2, [r3, #6]
    79e4:	0a0a      	lsrs	r2, r1, #8
    79e6:	7118      	strb	r0, [r3, #4]
    79e8:	71da      	strb	r2, [r3, #7]
    79ea:	7219      	strb	r1, [r3, #8]
    79ec:	1c18      	adds	r0, r3, #0
    79ee:	2109      	movs	r1, #9
    79f0:	4b01      	ldr	r3, [pc, #4]	; (79f8 <write_32_to_BTLC1000+0x30>)
    79f2:	4798      	blx	r3
    79f4:	b005      	add	sp, #20
    79f6:	bd00      	pop	{pc}
    79f8:	000055cd 	.word	0x000055cd

000079fc <patch_init>:
    79fc:	b5f0      	push	{r4, r5, r6, r7, lr}
    79fe:	b085      	sub	sp, #20
    7a00:	4935      	ldr	r1, [pc, #212]	; (7ad8 <patch_init+0xdc>)
    7a02:	2202      	movs	r2, #2
    7a04:	4b35      	ldr	r3, [pc, #212]	; (7adc <patch_init+0xe0>)
    7a06:	1c05      	adds	r5, r0, #0
    7a08:	a803      	add	r0, sp, #12
    7a0a:	4798      	blx	r3
    7a0c:	a803      	add	r0, sp, #12
    7a0e:	2101      	movs	r1, #1
    7a10:	4e33      	ldr	r6, [pc, #204]	; (7ae0 <patch_init+0xe4>)
    7a12:	47b0      	blx	r6
    7a14:	24fa      	movs	r4, #250	; 0xfa
    7a16:	1c07      	adds	r7, r0, #0
    7a18:	00e4      	lsls	r4, r4, #3
    7a1a:	4b32      	ldr	r3, [pc, #200]	; (7ae4 <patch_init+0xe8>)
    7a1c:	781a      	ldrb	r2, [r3, #0]
    7a1e:	9300      	str	r3, [sp, #0]
    7a20:	2a00      	cmp	r2, #0
    7a22:	d111      	bne.n	7a48 <patch_init+0x4c>
    7a24:	69ab      	ldr	r3, [r5, #24]
    7a26:	2001      	movs	r0, #1
    7a28:	4798      	blx	r3
    7a2a:	1c2b      	adds	r3, r5, #0
    7a2c:	332c      	adds	r3, #44	; 0x2c
    7a2e:	781b      	ldrb	r3, [r3, #0]
    7a30:	2b02      	cmp	r3, #2
    7a32:	d106      	bne.n	7a42 <patch_init+0x46>
    7a34:	ab02      	add	r3, sp, #8
    7a36:	1cd8      	adds	r0, r3, #3
    7a38:	23fe      	movs	r3, #254	; 0xfe
    7a3a:	2101      	movs	r1, #1
    7a3c:	7003      	strb	r3, [r0, #0]
    7a3e:	6a2b      	ldr	r3, [r5, #32]
    7a40:	4798      	blx	r3
    7a42:	3c01      	subs	r4, #1
    7a44:	2c00      	cmp	r4, #0
    7a46:	d1e8      	bne.n	7a1a <patch_init+0x1e>
    7a48:	9b00      	ldr	r3, [sp, #0]
    7a4a:	781b      	ldrb	r3, [r3, #0]
    7a4c:	2b00      	cmp	r3, #0
    7a4e:	d03f      	beq.n	7ad0 <patch_init+0xd4>
    7a50:	2302      	movs	r3, #2
    7a52:	8daa      	ldrh	r2, [r5, #44]	; 0x2c
    7a54:	33ff      	adds	r3, #255	; 0xff
    7a56:	4c24      	ldr	r4, [pc, #144]	; (7ae8 <patch_init+0xec>)
    7a58:	429a      	cmp	r2, r3
    7a5a:	d110      	bne.n	7a7e <patch_init+0x82>
    7a5c:	4823      	ldr	r0, [pc, #140]	; (7aec <patch_init+0xf0>)
    7a5e:	4924      	ldr	r1, [pc, #144]	; (7af0 <patch_init+0xf4>)
    7a60:	47a0      	blx	r4
    7a62:	4824      	ldr	r0, [pc, #144]	; (7af4 <patch_init+0xf8>)
    7a64:	4924      	ldr	r1, [pc, #144]	; (7af8 <patch_init+0xfc>)
    7a66:	47a0      	blx	r4
    7a68:	4824      	ldr	r0, [pc, #144]	; (7afc <patch_init+0x100>)
    7a6a:	4925      	ldr	r1, [pc, #148]	; (7b00 <patch_init+0x104>)
    7a6c:	47a0      	blx	r4
    7a6e:	4825      	ldr	r0, [pc, #148]	; (7b04 <patch_init+0x108>)
    7a70:	2122      	movs	r1, #34	; 0x22
    7a72:	47a0      	blx	r4
    7a74:	6aab      	ldr	r3, [r5, #40]	; 0x28
    7a76:	4798      	blx	r3
    7a78:	4823      	ldr	r0, [pc, #140]	; (7b08 <patch_init+0x10c>)
    7a7a:	6a6b      	ldr	r3, [r5, #36]	; 0x24
    7a7c:	4798      	blx	r3
    7a7e:	352c      	adds	r5, #44	; 0x2c
    7a80:	2103      	movs	r1, #3
    7a82:	4822      	ldr	r0, [pc, #136]	; (7b0c <patch_init+0x110>)
    7a84:	9501      	str	r5, [sp, #4]
    7a86:	47b0      	blx	r6
    7a88:	4821      	ldr	r0, [pc, #132]	; (7b10 <patch_init+0x114>)
    7a8a:	4922      	ldr	r1, [pc, #136]	; (7b14 <patch_init+0x118>)
    7a8c:	47a0      	blx	r4
    7a8e:	4d22      	ldr	r5, [pc, #136]	; (7b18 <patch_init+0x11c>)
    7a90:	4e22      	ldr	r6, [pc, #136]	; (7b1c <patch_init+0x120>)
    7a92:	3501      	adds	r5, #1
    7a94:	4b22      	ldr	r3, [pc, #136]	; (7b20 <patch_init+0x124>)
    7a96:	4a20      	ldr	r2, [pc, #128]	; (7b18 <patch_init+0x11c>)
    7a98:	7829      	ldrb	r1, [r5, #0]
    7a9a:	18f3      	adds	r3, r6, r3
    7a9c:	5cd3      	ldrb	r3, [r2, r3]
    7a9e:	0209      	lsls	r1, r1, #8
    7aa0:	4319      	orrs	r1, r3
    7aa2:	786b      	ldrb	r3, [r5, #1]
    7aa4:	1c30      	adds	r0, r6, #0
    7aa6:	041b      	lsls	r3, r3, #16
    7aa8:	4319      	orrs	r1, r3
    7aaa:	78ab      	ldrb	r3, [r5, #2]
    7aac:	3604      	adds	r6, #4
    7aae:	061b      	lsls	r3, r3, #24
    7ab0:	4319      	orrs	r1, r3
    7ab2:	47a0      	blx	r4
    7ab4:	4b1b      	ldr	r3, [pc, #108]	; (7b24 <patch_init+0x128>)
    7ab6:	3504      	adds	r5, #4
    7ab8:	429e      	cmp	r6, r3
    7aba:	d1eb      	bne.n	7a94 <patch_init+0x98>
    7abc:	481a      	ldr	r0, [pc, #104]	; (7b28 <patch_init+0x12c>)
    7abe:	2178      	movs	r1, #120	; 0x78
    7ac0:	47a0      	blx	r4
    7ac2:	4b1a      	ldr	r3, [pc, #104]	; (7b2c <patch_init+0x130>)
    7ac4:	9801      	ldr	r0, [sp, #4]
    7ac6:	4798      	blx	r3
    7ac8:	2302      	movs	r3, #2
    7aca:	9a00      	ldr	r2, [sp, #0]
    7acc:	7013      	strb	r3, [r2, #0]
    7ace:	e000      	b.n	7ad2 <patch_init+0xd6>
    7ad0:	27d1      	movs	r7, #209	; 0xd1
    7ad2:	1c38      	adds	r0, r7, #0
    7ad4:	b005      	add	sp, #20
    7ad6:	bdf0      	pop	{r4, r5, r6, r7, pc}
    7ad8:	0000a2ec 	.word	0x0000a2ec
    7adc:	00007dbf 	.word	0x00007dbf
    7ae0:	000055cd 	.word	0x000055cd
    7ae4:	20000f84 	.word	0x20000f84
    7ae8:	000079c9 	.word	0x000079c9
    7aec:	4000b1a8 	.word	0x4000b1a8
    7af0:	02033f3f 	.word	0x02033f3f
    7af4:	4000b1ac 	.word	0x4000b1ac
    7af8:	3f3f0001 	.word	0x3f3f0001
    7afc:	4000b048 	.word	0x4000b048
    7b00:	00111133 	.word	0x00111133
    7b04:	4000b044 	.word	0x4000b044
    7b08:	00005281 	.word	0x00005281
    7b0c:	00009e78 	.word	0x00009e78
    7b10:	4000f408 	.word	0x4000f408
    7b14:	00000c06 	.word	0x00000c06
    7b18:	0000a2ee 	.word	0x0000a2ee
    7b1c:	10005184 	.word	0x10005184
    7b20:	efffae7c 	.word	0xefffae7c
    7b24:	10007d40 	.word	0x10007d40
    7b28:	4000f044 	.word	0x4000f044
    7b2c:	00005d65 	.word	0x00005d65

00007b30 <fifo_init>:
    7b30:	b510      	push	{r4, lr}
    7b32:	1e03      	subs	r3, r0, #0
    7b34:	d00b      	beq.n	7b4e <fifo_init+0x1e>
    7b36:	2000      	movs	r0, #0
    7b38:	4282      	cmp	r2, r0
    7b3a:	d008      	beq.n	7b4e <fifo_init+0x1e>
    7b3c:	1e54      	subs	r4, r2, #1
    7b3e:	4222      	tst	r2, r4
    7b40:	d105      	bne.n	7b4e <fifo_init+0x1e>
    7b42:	6018      	str	r0, [r3, #0]
    7b44:	6119      	str	r1, [r3, #16]
    7b46:	6058      	str	r0, [r3, #4]
    7b48:	609a      	str	r2, [r3, #8]
    7b4a:	60dc      	str	r4, [r3, #12]
    7b4c:	3001      	adds	r0, #1
    7b4e:	bd10      	pop	{r4, pc}

00007b50 <fifo_empty>:
    7b50:	6803      	ldr	r3, [r0, #0]
    7b52:	6840      	ldr	r0, [r0, #4]
    7b54:	1a18      	subs	r0, r3, r0
    7b56:	4243      	negs	r3, r0
    7b58:	4158      	adcs	r0, r3
    7b5a:	b2c0      	uxtb	r0, r0
    7b5c:	4770      	bx	lr

00007b5e <fifo_full>:
    7b5e:	6803      	ldr	r3, [r0, #0]
    7b60:	6842      	ldr	r2, [r0, #4]
    7b62:	6880      	ldr	r0, [r0, #8]
    7b64:	1a9b      	subs	r3, r3, r2
    7b66:	1a18      	subs	r0, r3, r0
    7b68:	4243      	negs	r3, r0
    7b6a:	4158      	adcs	r0, r3
    7b6c:	b2c0      	uxtb	r0, r0
    7b6e:	4770      	bx	lr

00007b70 <fifo_get>:
    7b70:	b530      	push	{r4, r5, lr}
    7b72:	6804      	ldr	r4, [r0, #0]
    7b74:	6842      	ldr	r2, [r0, #4]
    7b76:	1c03      	adds	r3, r0, #0
    7b78:	2000      	movs	r0, #0
    7b7a:	4294      	cmp	r4, r2
    7b7c:	d008      	beq.n	7b90 <fifo_get+0x20>
    7b7e:	685a      	ldr	r2, [r3, #4]
    7b80:	68dc      	ldr	r4, [r3, #12]
    7b82:	6918      	ldr	r0, [r3, #16]
    7b84:	1c55      	adds	r5, r2, #1
    7b86:	605d      	str	r5, [r3, #4]
    7b88:	4022      	ands	r2, r4
    7b8a:	5c83      	ldrb	r3, [r0, r2]
    7b8c:	2001      	movs	r0, #1
    7b8e:	700b      	strb	r3, [r1, #0]
    7b90:	bd30      	pop	{r4, r5, pc}
	...

00007b94 <fifo_put>:
    7b94:	b538      	push	{r3, r4, r5, lr}
    7b96:	4b08      	ldr	r3, [pc, #32]	; (7bb8 <fifo_put+0x24>)
    7b98:	1c04      	adds	r4, r0, #0
    7b9a:	1c0d      	adds	r5, r1, #0
    7b9c:	4798      	blx	r3
    7b9e:	2300      	movs	r3, #0
    7ba0:	4298      	cmp	r0, r3
    7ba2:	d107      	bne.n	7bb4 <fifo_put+0x20>
    7ba4:	6823      	ldr	r3, [r4, #0]
    7ba6:	68e1      	ldr	r1, [r4, #12]
    7ba8:	6922      	ldr	r2, [r4, #16]
    7baa:	1c58      	adds	r0, r3, #1
    7bac:	400b      	ands	r3, r1
    7bae:	6020      	str	r0, [r4, #0]
    7bb0:	54d5      	strb	r5, [r2, r3]
    7bb2:	2301      	movs	r3, #1
    7bb4:	1c18      	adds	r0, r3, #0
    7bb6:	bd38      	pop	{r3, r4, r5, pc}
    7bb8:	00007b5f 	.word	0x00007b5f

00007bbc <__gnu_thumb1_case_sqi>:
    7bbc:	b402      	push	{r1}
    7bbe:	4671      	mov	r1, lr
    7bc0:	0849      	lsrs	r1, r1, #1
    7bc2:	0049      	lsls	r1, r1, #1
    7bc4:	5609      	ldrsb	r1, [r1, r0]
    7bc6:	0049      	lsls	r1, r1, #1
    7bc8:	448e      	add	lr, r1
    7bca:	bc02      	pop	{r1}
    7bcc:	4770      	bx	lr
    7bce:	46c0      	nop			; (mov r8, r8)

00007bd0 <__gnu_thumb1_case_uqi>:
    7bd0:	b402      	push	{r1}
    7bd2:	4671      	mov	r1, lr
    7bd4:	0849      	lsrs	r1, r1, #1
    7bd6:	0049      	lsls	r1, r1, #1
    7bd8:	5c09      	ldrb	r1, [r1, r0]
    7bda:	0049      	lsls	r1, r1, #1
    7bdc:	448e      	add	lr, r1
    7bde:	bc02      	pop	{r1}
    7be0:	4770      	bx	lr
    7be2:	46c0      	nop			; (mov r8, r8)

00007be4 <__aeabi_uidiv>:
    7be4:	2200      	movs	r2, #0
    7be6:	0843      	lsrs	r3, r0, #1
    7be8:	428b      	cmp	r3, r1
    7bea:	d374      	bcc.n	7cd6 <__aeabi_uidiv+0xf2>
    7bec:	0903      	lsrs	r3, r0, #4
    7bee:	428b      	cmp	r3, r1
    7bf0:	d35f      	bcc.n	7cb2 <__aeabi_uidiv+0xce>
    7bf2:	0a03      	lsrs	r3, r0, #8
    7bf4:	428b      	cmp	r3, r1
    7bf6:	d344      	bcc.n	7c82 <__aeabi_uidiv+0x9e>
    7bf8:	0b03      	lsrs	r3, r0, #12
    7bfa:	428b      	cmp	r3, r1
    7bfc:	d328      	bcc.n	7c50 <__aeabi_uidiv+0x6c>
    7bfe:	0c03      	lsrs	r3, r0, #16
    7c00:	428b      	cmp	r3, r1
    7c02:	d30d      	bcc.n	7c20 <__aeabi_uidiv+0x3c>
    7c04:	22ff      	movs	r2, #255	; 0xff
    7c06:	0209      	lsls	r1, r1, #8
    7c08:	ba12      	rev	r2, r2
    7c0a:	0c03      	lsrs	r3, r0, #16
    7c0c:	428b      	cmp	r3, r1
    7c0e:	d302      	bcc.n	7c16 <__aeabi_uidiv+0x32>
    7c10:	1212      	asrs	r2, r2, #8
    7c12:	0209      	lsls	r1, r1, #8
    7c14:	d065      	beq.n	7ce2 <__aeabi_uidiv+0xfe>
    7c16:	0b03      	lsrs	r3, r0, #12
    7c18:	428b      	cmp	r3, r1
    7c1a:	d319      	bcc.n	7c50 <__aeabi_uidiv+0x6c>
    7c1c:	e000      	b.n	7c20 <__aeabi_uidiv+0x3c>
    7c1e:	0a09      	lsrs	r1, r1, #8
    7c20:	0bc3      	lsrs	r3, r0, #15
    7c22:	428b      	cmp	r3, r1
    7c24:	d301      	bcc.n	7c2a <__aeabi_uidiv+0x46>
    7c26:	03cb      	lsls	r3, r1, #15
    7c28:	1ac0      	subs	r0, r0, r3
    7c2a:	4152      	adcs	r2, r2
    7c2c:	0b83      	lsrs	r3, r0, #14
    7c2e:	428b      	cmp	r3, r1
    7c30:	d301      	bcc.n	7c36 <__aeabi_uidiv+0x52>
    7c32:	038b      	lsls	r3, r1, #14
    7c34:	1ac0      	subs	r0, r0, r3
    7c36:	4152      	adcs	r2, r2
    7c38:	0b43      	lsrs	r3, r0, #13
    7c3a:	428b      	cmp	r3, r1
    7c3c:	d301      	bcc.n	7c42 <__aeabi_uidiv+0x5e>
    7c3e:	034b      	lsls	r3, r1, #13
    7c40:	1ac0      	subs	r0, r0, r3
    7c42:	4152      	adcs	r2, r2
    7c44:	0b03      	lsrs	r3, r0, #12
    7c46:	428b      	cmp	r3, r1
    7c48:	d301      	bcc.n	7c4e <__aeabi_uidiv+0x6a>
    7c4a:	030b      	lsls	r3, r1, #12
    7c4c:	1ac0      	subs	r0, r0, r3
    7c4e:	4152      	adcs	r2, r2
    7c50:	0ac3      	lsrs	r3, r0, #11
    7c52:	428b      	cmp	r3, r1
    7c54:	d301      	bcc.n	7c5a <__aeabi_uidiv+0x76>
    7c56:	02cb      	lsls	r3, r1, #11
    7c58:	1ac0      	subs	r0, r0, r3
    7c5a:	4152      	adcs	r2, r2
    7c5c:	0a83      	lsrs	r3, r0, #10
    7c5e:	428b      	cmp	r3, r1
    7c60:	d301      	bcc.n	7c66 <__aeabi_uidiv+0x82>
    7c62:	028b      	lsls	r3, r1, #10
    7c64:	1ac0      	subs	r0, r0, r3
    7c66:	4152      	adcs	r2, r2
    7c68:	0a43      	lsrs	r3, r0, #9
    7c6a:	428b      	cmp	r3, r1
    7c6c:	d301      	bcc.n	7c72 <__aeabi_uidiv+0x8e>
    7c6e:	024b      	lsls	r3, r1, #9
    7c70:	1ac0      	subs	r0, r0, r3
    7c72:	4152      	adcs	r2, r2
    7c74:	0a03      	lsrs	r3, r0, #8
    7c76:	428b      	cmp	r3, r1
    7c78:	d301      	bcc.n	7c7e <__aeabi_uidiv+0x9a>
    7c7a:	020b      	lsls	r3, r1, #8
    7c7c:	1ac0      	subs	r0, r0, r3
    7c7e:	4152      	adcs	r2, r2
    7c80:	d2cd      	bcs.n	7c1e <__aeabi_uidiv+0x3a>
    7c82:	09c3      	lsrs	r3, r0, #7
    7c84:	428b      	cmp	r3, r1
    7c86:	d301      	bcc.n	7c8c <__aeabi_uidiv+0xa8>
    7c88:	01cb      	lsls	r3, r1, #7
    7c8a:	1ac0      	subs	r0, r0, r3
    7c8c:	4152      	adcs	r2, r2
    7c8e:	0983      	lsrs	r3, r0, #6
    7c90:	428b      	cmp	r3, r1
    7c92:	d301      	bcc.n	7c98 <__aeabi_uidiv+0xb4>
    7c94:	018b      	lsls	r3, r1, #6
    7c96:	1ac0      	subs	r0, r0, r3
    7c98:	4152      	adcs	r2, r2
    7c9a:	0943      	lsrs	r3, r0, #5
    7c9c:	428b      	cmp	r3, r1
    7c9e:	d301      	bcc.n	7ca4 <__aeabi_uidiv+0xc0>
    7ca0:	014b      	lsls	r3, r1, #5
    7ca2:	1ac0      	subs	r0, r0, r3
    7ca4:	4152      	adcs	r2, r2
    7ca6:	0903      	lsrs	r3, r0, #4
    7ca8:	428b      	cmp	r3, r1
    7caa:	d301      	bcc.n	7cb0 <__aeabi_uidiv+0xcc>
    7cac:	010b      	lsls	r3, r1, #4
    7cae:	1ac0      	subs	r0, r0, r3
    7cb0:	4152      	adcs	r2, r2
    7cb2:	08c3      	lsrs	r3, r0, #3
    7cb4:	428b      	cmp	r3, r1
    7cb6:	d301      	bcc.n	7cbc <__aeabi_uidiv+0xd8>
    7cb8:	00cb      	lsls	r3, r1, #3
    7cba:	1ac0      	subs	r0, r0, r3
    7cbc:	4152      	adcs	r2, r2
    7cbe:	0883      	lsrs	r3, r0, #2
    7cc0:	428b      	cmp	r3, r1
    7cc2:	d301      	bcc.n	7cc8 <__aeabi_uidiv+0xe4>
    7cc4:	008b      	lsls	r3, r1, #2
    7cc6:	1ac0      	subs	r0, r0, r3
    7cc8:	4152      	adcs	r2, r2
    7cca:	0843      	lsrs	r3, r0, #1
    7ccc:	428b      	cmp	r3, r1
    7cce:	d301      	bcc.n	7cd4 <__aeabi_uidiv+0xf0>
    7cd0:	004b      	lsls	r3, r1, #1
    7cd2:	1ac0      	subs	r0, r0, r3
    7cd4:	4152      	adcs	r2, r2
    7cd6:	1a41      	subs	r1, r0, r1
    7cd8:	d200      	bcs.n	7cdc <__aeabi_uidiv+0xf8>
    7cda:	4601      	mov	r1, r0
    7cdc:	4152      	adcs	r2, r2
    7cde:	4610      	mov	r0, r2
    7ce0:	4770      	bx	lr
    7ce2:	e7ff      	b.n	7ce4 <__aeabi_uidiv+0x100>
    7ce4:	b501      	push	{r0, lr}
    7ce6:	2000      	movs	r0, #0
    7ce8:	f000 f806 	bl	7cf8 <__aeabi_idiv0>
    7cec:	bd02      	pop	{r1, pc}
    7cee:	46c0      	nop			; (mov r8, r8)

00007cf0 <__aeabi_uidivmod>:
    7cf0:	2900      	cmp	r1, #0
    7cf2:	d0f7      	beq.n	7ce4 <__aeabi_uidiv+0x100>
    7cf4:	e776      	b.n	7be4 <__aeabi_uidiv>
    7cf6:	4770      	bx	lr

00007cf8 <__aeabi_idiv0>:
    7cf8:	4770      	bx	lr
    7cfa:	46c0      	nop			; (mov r8, r8)

00007cfc <__aeabi_lmul>:
    7cfc:	b5f0      	push	{r4, r5, r6, r7, lr}
    7cfe:	464f      	mov	r7, r9
    7d00:	4646      	mov	r6, r8
    7d02:	b4c0      	push	{r6, r7}
    7d04:	0416      	lsls	r6, r2, #16
    7d06:	0c36      	lsrs	r6, r6, #16
    7d08:	4699      	mov	r9, r3
    7d0a:	0033      	movs	r3, r6
    7d0c:	0405      	lsls	r5, r0, #16
    7d0e:	0c2c      	lsrs	r4, r5, #16
    7d10:	0c07      	lsrs	r7, r0, #16
    7d12:	0c15      	lsrs	r5, r2, #16
    7d14:	4363      	muls	r3, r4
    7d16:	437e      	muls	r6, r7
    7d18:	436f      	muls	r7, r5
    7d1a:	4365      	muls	r5, r4
    7d1c:	0c1c      	lsrs	r4, r3, #16
    7d1e:	19ad      	adds	r5, r5, r6
    7d20:	1964      	adds	r4, r4, r5
    7d22:	469c      	mov	ip, r3
    7d24:	42a6      	cmp	r6, r4
    7d26:	d903      	bls.n	7d30 <__aeabi_lmul+0x34>
    7d28:	2380      	movs	r3, #128	; 0x80
    7d2a:	025b      	lsls	r3, r3, #9
    7d2c:	4698      	mov	r8, r3
    7d2e:	4447      	add	r7, r8
    7d30:	4663      	mov	r3, ip
    7d32:	0c25      	lsrs	r5, r4, #16
    7d34:	19ef      	adds	r7, r5, r7
    7d36:	041d      	lsls	r5, r3, #16
    7d38:	464b      	mov	r3, r9
    7d3a:	434a      	muls	r2, r1
    7d3c:	4343      	muls	r3, r0
    7d3e:	0c2d      	lsrs	r5, r5, #16
    7d40:	0424      	lsls	r4, r4, #16
    7d42:	1964      	adds	r4, r4, r5
    7d44:	1899      	adds	r1, r3, r2
    7d46:	19c9      	adds	r1, r1, r7
    7d48:	0020      	movs	r0, r4
    7d4a:	bc0c      	pop	{r2, r3}
    7d4c:	4690      	mov	r8, r2
    7d4e:	4699      	mov	r9, r3
    7d50:	bdf0      	pop	{r4, r5, r6, r7, pc}
    7d52:	46c0      	nop			; (mov r8, r8)

00007d54 <__libc_init_array>:
    7d54:	4b0e      	ldr	r3, [pc, #56]	; (7d90 <__libc_init_array+0x3c>)
    7d56:	b570      	push	{r4, r5, r6, lr}
    7d58:	2500      	movs	r5, #0
    7d5a:	001e      	movs	r6, r3
    7d5c:	4c0d      	ldr	r4, [pc, #52]	; (7d94 <__libc_init_array+0x40>)
    7d5e:	1ae4      	subs	r4, r4, r3
    7d60:	10a4      	asrs	r4, r4, #2
    7d62:	42a5      	cmp	r5, r4
    7d64:	d004      	beq.n	7d70 <__libc_init_array+0x1c>
    7d66:	00ab      	lsls	r3, r5, #2
    7d68:	58f3      	ldr	r3, [r6, r3]
    7d6a:	4798      	blx	r3
    7d6c:	3501      	adds	r5, #1
    7d6e:	e7f8      	b.n	7d62 <__libc_init_array+0xe>
    7d70:	f005 f8e8 	bl	cf44 <_init>
    7d74:	4b08      	ldr	r3, [pc, #32]	; (7d98 <__libc_init_array+0x44>)
    7d76:	2500      	movs	r5, #0
    7d78:	001e      	movs	r6, r3
    7d7a:	4c08      	ldr	r4, [pc, #32]	; (7d9c <__libc_init_array+0x48>)
    7d7c:	1ae4      	subs	r4, r4, r3
    7d7e:	10a4      	asrs	r4, r4, #2
    7d80:	42a5      	cmp	r5, r4
    7d82:	d004      	beq.n	7d8e <__libc_init_array+0x3a>
    7d84:	00ab      	lsls	r3, r5, #2
    7d86:	58f3      	ldr	r3, [r6, r3]
    7d88:	4798      	blx	r3
    7d8a:	3501      	adds	r5, #1
    7d8c:	e7f8      	b.n	7d80 <__libc_init_array+0x2c>
    7d8e:	bd70      	pop	{r4, r5, r6, pc}
    7d90:	0000cf50 	.word	0x0000cf50
    7d94:	0000cf50 	.word	0x0000cf50
    7d98:	0000cf50 	.word	0x0000cf50
    7d9c:	0000cf54 	.word	0x0000cf54

00007da0 <memcmp>:
    7da0:	b530      	push	{r4, r5, lr}
    7da2:	2400      	movs	r4, #0
    7da4:	42a2      	cmp	r2, r4
    7da6:	d008      	beq.n	7dba <memcmp+0x1a>
    7da8:	5d03      	ldrb	r3, [r0, r4]
    7daa:	1c65      	adds	r5, r4, #1
    7dac:	5d0c      	ldrb	r4, [r1, r4]
    7dae:	42a3      	cmp	r3, r4
    7db0:	d001      	beq.n	7db6 <memcmp+0x16>
    7db2:	1b18      	subs	r0, r3, r4
    7db4:	e002      	b.n	7dbc <memcmp+0x1c>
    7db6:	002c      	movs	r4, r5
    7db8:	e7f4      	b.n	7da4 <memcmp+0x4>
    7dba:	2000      	movs	r0, #0
    7dbc:	bd30      	pop	{r4, r5, pc}

00007dbe <memcpy>:
    7dbe:	2300      	movs	r3, #0
    7dc0:	b510      	push	{r4, lr}
    7dc2:	429a      	cmp	r2, r3
    7dc4:	d003      	beq.n	7dce <memcpy+0x10>
    7dc6:	5ccc      	ldrb	r4, [r1, r3]
    7dc8:	54c4      	strb	r4, [r0, r3]
    7dca:	3301      	adds	r3, #1
    7dcc:	e7f9      	b.n	7dc2 <memcpy+0x4>
    7dce:	bd10      	pop	{r4, pc}

00007dd0 <memset>:
    7dd0:	0003      	movs	r3, r0
    7dd2:	1882      	adds	r2, r0, r2
    7dd4:	4293      	cmp	r3, r2
    7dd6:	d002      	beq.n	7dde <memset+0xe>
    7dd8:	7019      	strb	r1, [r3, #0]
    7dda:	3301      	adds	r3, #1
    7ddc:	e7fa      	b.n	7dd4 <memset+0x4>
    7dde:	4770      	bx	lr

00007de0 <iprintf>:
    7de0:	b40f      	push	{r0, r1, r2, r3}
    7de2:	4b0b      	ldr	r3, [pc, #44]	; (7e10 <iprintf+0x30>)
    7de4:	b513      	push	{r0, r1, r4, lr}
    7de6:	681c      	ldr	r4, [r3, #0]
    7de8:	2c00      	cmp	r4, #0
    7dea:	d005      	beq.n	7df8 <iprintf+0x18>
    7dec:	69a3      	ldr	r3, [r4, #24]
    7dee:	2b00      	cmp	r3, #0
    7df0:	d102      	bne.n	7df8 <iprintf+0x18>
    7df2:	0020      	movs	r0, r4
    7df4:	f000 fb46 	bl	8484 <__sinit>
    7df8:	ab05      	add	r3, sp, #20
    7dfa:	9a04      	ldr	r2, [sp, #16]
    7dfc:	68a1      	ldr	r1, [r4, #8]
    7dfe:	0020      	movs	r0, r4
    7e00:	9301      	str	r3, [sp, #4]
    7e02:	f000 fd05 	bl	8810 <_vfiprintf_r>
    7e06:	bc16      	pop	{r1, r2, r4}
    7e08:	bc08      	pop	{r3}
    7e0a:	b004      	add	sp, #16
    7e0c:	4718      	bx	r3
    7e0e:	46c0      	nop			; (mov r8, r8)
    7e10:	20000150 	.word	0x20000150

00007e14 <putchar>:
    7e14:	4b08      	ldr	r3, [pc, #32]	; (7e38 <putchar+0x24>)
    7e16:	b570      	push	{r4, r5, r6, lr}
    7e18:	681c      	ldr	r4, [r3, #0]
    7e1a:	0005      	movs	r5, r0
    7e1c:	2c00      	cmp	r4, #0
    7e1e:	d005      	beq.n	7e2c <putchar+0x18>
    7e20:	69a3      	ldr	r3, [r4, #24]
    7e22:	2b00      	cmp	r3, #0
    7e24:	d102      	bne.n	7e2c <putchar+0x18>
    7e26:	0020      	movs	r0, r4
    7e28:	f000 fb2c 	bl	8484 <__sinit>
    7e2c:	0029      	movs	r1, r5
    7e2e:	68a2      	ldr	r2, [r4, #8]
    7e30:	0020      	movs	r0, r4
    7e32:	f000 ff99 	bl	8d68 <_putc_r>
    7e36:	bd70      	pop	{r4, r5, r6, pc}
    7e38:	20000150 	.word	0x20000150

00007e3c <_puts_r>:
    7e3c:	b570      	push	{r4, r5, r6, lr}
    7e3e:	0005      	movs	r5, r0
    7e40:	000e      	movs	r6, r1
    7e42:	2800      	cmp	r0, #0
    7e44:	d004      	beq.n	7e50 <_puts_r+0x14>
    7e46:	6983      	ldr	r3, [r0, #24]
    7e48:	2b00      	cmp	r3, #0
    7e4a:	d101      	bne.n	7e50 <_puts_r+0x14>
    7e4c:	f000 fb1a 	bl	8484 <__sinit>
    7e50:	69ab      	ldr	r3, [r5, #24]
    7e52:	68ac      	ldr	r4, [r5, #8]
    7e54:	2b00      	cmp	r3, #0
    7e56:	d102      	bne.n	7e5e <_puts_r+0x22>
    7e58:	0028      	movs	r0, r5
    7e5a:	f000 fb13 	bl	8484 <__sinit>
    7e5e:	4b25      	ldr	r3, [pc, #148]	; (7ef4 <_puts_r+0xb8>)
    7e60:	429c      	cmp	r4, r3
    7e62:	d101      	bne.n	7e68 <_puts_r+0x2c>
    7e64:	686c      	ldr	r4, [r5, #4]
    7e66:	e008      	b.n	7e7a <_puts_r+0x3e>
    7e68:	4b23      	ldr	r3, [pc, #140]	; (7ef8 <_puts_r+0xbc>)
    7e6a:	429c      	cmp	r4, r3
    7e6c:	d101      	bne.n	7e72 <_puts_r+0x36>
    7e6e:	68ac      	ldr	r4, [r5, #8]
    7e70:	e003      	b.n	7e7a <_puts_r+0x3e>
    7e72:	4b22      	ldr	r3, [pc, #136]	; (7efc <_puts_r+0xc0>)
    7e74:	429c      	cmp	r4, r3
    7e76:	d100      	bne.n	7e7a <_puts_r+0x3e>
    7e78:	68ec      	ldr	r4, [r5, #12]
    7e7a:	89a3      	ldrh	r3, [r4, #12]
    7e7c:	071b      	lsls	r3, r3, #28
    7e7e:	d502      	bpl.n	7e86 <_puts_r+0x4a>
    7e80:	6923      	ldr	r3, [r4, #16]
    7e82:	2b00      	cmp	r3, #0
    7e84:	d111      	bne.n	7eaa <_puts_r+0x6e>
    7e86:	0021      	movs	r1, r4
    7e88:	0028      	movs	r0, r5
    7e8a:	f000 f991 	bl	81b0 <__swsetup_r>
    7e8e:	2800      	cmp	r0, #0
    7e90:	d00b      	beq.n	7eaa <_puts_r+0x6e>
    7e92:	2001      	movs	r0, #1
    7e94:	4240      	negs	r0, r0
    7e96:	e02b      	b.n	7ef0 <_puts_r+0xb4>
    7e98:	3b01      	subs	r3, #1
    7e9a:	3601      	adds	r6, #1
    7e9c:	60a3      	str	r3, [r4, #8]
    7e9e:	2b00      	cmp	r3, #0
    7ea0:	db08      	blt.n	7eb4 <_puts_r+0x78>
    7ea2:	6823      	ldr	r3, [r4, #0]
    7ea4:	1c5a      	adds	r2, r3, #1
    7ea6:	6022      	str	r2, [r4, #0]
    7ea8:	7019      	strb	r1, [r3, #0]
    7eaa:	7831      	ldrb	r1, [r6, #0]
    7eac:	68a3      	ldr	r3, [r4, #8]
    7eae:	2900      	cmp	r1, #0
    7eb0:	d1f2      	bne.n	7e98 <_puts_r+0x5c>
    7eb2:	e00b      	b.n	7ecc <_puts_r+0x90>
    7eb4:	69a2      	ldr	r2, [r4, #24]
    7eb6:	4293      	cmp	r3, r2
    7eb8:	db01      	blt.n	7ebe <_puts_r+0x82>
    7eba:	290a      	cmp	r1, #10
    7ebc:	d1f1      	bne.n	7ea2 <_puts_r+0x66>
    7ebe:	0022      	movs	r2, r4
    7ec0:	0028      	movs	r0, r5
    7ec2:	f000 f91d 	bl	8100 <__swbuf_r>
    7ec6:	1c43      	adds	r3, r0, #1
    7ec8:	d1ef      	bne.n	7eaa <_puts_r+0x6e>
    7eca:	e7e2      	b.n	7e92 <_puts_r+0x56>
    7ecc:	3b01      	subs	r3, #1
    7ece:	60a3      	str	r3, [r4, #8]
    7ed0:	2b00      	cmp	r3, #0
    7ed2:	da08      	bge.n	7ee6 <_puts_r+0xaa>
    7ed4:	0022      	movs	r2, r4
    7ed6:	310a      	adds	r1, #10
    7ed8:	0028      	movs	r0, r5
    7eda:	f000 f911 	bl	8100 <__swbuf_r>
    7ede:	1c43      	adds	r3, r0, #1
    7ee0:	d0d7      	beq.n	7e92 <_puts_r+0x56>
    7ee2:	200a      	movs	r0, #10
    7ee4:	e004      	b.n	7ef0 <_puts_r+0xb4>
    7ee6:	200a      	movs	r0, #10
    7ee8:	6823      	ldr	r3, [r4, #0]
    7eea:	1c5a      	adds	r2, r3, #1
    7eec:	6022      	str	r2, [r4, #0]
    7eee:	7018      	strb	r0, [r3, #0]
    7ef0:	bd70      	pop	{r4, r5, r6, pc}
    7ef2:	46c0      	nop			; (mov r8, r8)
    7ef4:	0000ceb0 	.word	0x0000ceb0
    7ef8:	0000ced0 	.word	0x0000ced0
    7efc:	0000cef0 	.word	0x0000cef0

00007f00 <puts>:
    7f00:	b510      	push	{r4, lr}
    7f02:	4b03      	ldr	r3, [pc, #12]	; (7f10 <puts+0x10>)
    7f04:	0001      	movs	r1, r0
    7f06:	6818      	ldr	r0, [r3, #0]
    7f08:	f7ff ff98 	bl	7e3c <_puts_r>
    7f0c:	bd10      	pop	{r4, pc}
    7f0e:	46c0      	nop			; (mov r8, r8)
    7f10:	20000150 	.word	0x20000150

00007f14 <rand>:
    7f14:	4b15      	ldr	r3, [pc, #84]	; (7f6c <rand+0x58>)
    7f16:	b510      	push	{r4, lr}
    7f18:	681c      	ldr	r4, [r3, #0]
    7f1a:	6ba3      	ldr	r3, [r4, #56]	; 0x38
    7f1c:	2b00      	cmp	r3, #0
    7f1e:	d115      	bne.n	7f4c <rand+0x38>
    7f20:	2018      	movs	r0, #24
    7f22:	f000 fba7 	bl	8674 <malloc>
    7f26:	4b12      	ldr	r3, [pc, #72]	; (7f70 <rand+0x5c>)
    7f28:	63a0      	str	r0, [r4, #56]	; 0x38
    7f2a:	8003      	strh	r3, [r0, #0]
    7f2c:	4b11      	ldr	r3, [pc, #68]	; (7f74 <rand+0x60>)
    7f2e:	2201      	movs	r2, #1
    7f30:	8043      	strh	r3, [r0, #2]
    7f32:	4b11      	ldr	r3, [pc, #68]	; (7f78 <rand+0x64>)
    7f34:	8083      	strh	r3, [r0, #4]
    7f36:	4b11      	ldr	r3, [pc, #68]	; (7f7c <rand+0x68>)
    7f38:	80c3      	strh	r3, [r0, #6]
    7f3a:	4b11      	ldr	r3, [pc, #68]	; (7f80 <rand+0x6c>)
    7f3c:	8103      	strh	r3, [r0, #8]
    7f3e:	2305      	movs	r3, #5
    7f40:	8143      	strh	r3, [r0, #10]
    7f42:	3306      	adds	r3, #6
    7f44:	8183      	strh	r3, [r0, #12]
    7f46:	2300      	movs	r3, #0
    7f48:	6102      	str	r2, [r0, #16]
    7f4a:	6143      	str	r3, [r0, #20]
    7f4c:	6ba4      	ldr	r4, [r4, #56]	; 0x38
    7f4e:	4a0d      	ldr	r2, [pc, #52]	; (7f84 <rand+0x70>)
    7f50:	6920      	ldr	r0, [r4, #16]
    7f52:	6961      	ldr	r1, [r4, #20]
    7f54:	4b0c      	ldr	r3, [pc, #48]	; (7f88 <rand+0x74>)
    7f56:	f7ff fed1 	bl	7cfc <__aeabi_lmul>
    7f5a:	2201      	movs	r2, #1
    7f5c:	2300      	movs	r3, #0
    7f5e:	1880      	adds	r0, r0, r2
    7f60:	4159      	adcs	r1, r3
    7f62:	6120      	str	r0, [r4, #16]
    7f64:	6161      	str	r1, [r4, #20]
    7f66:	0048      	lsls	r0, r1, #1
    7f68:	0840      	lsrs	r0, r0, #1
    7f6a:	bd10      	pop	{r4, pc}
    7f6c:	20000150 	.word	0x20000150
    7f70:	0000330e 	.word	0x0000330e
    7f74:	ffffabcd 	.word	0xffffabcd
    7f78:	00001234 	.word	0x00001234
    7f7c:	ffffe66d 	.word	0xffffe66d
    7f80:	ffffdeec 	.word	0xffffdeec
    7f84:	4c957f2d 	.word	0x4c957f2d
    7f88:	5851f42d 	.word	0x5851f42d

00007f8c <setbuf>:
    7f8c:	424a      	negs	r2, r1
    7f8e:	414a      	adcs	r2, r1
    7f90:	2380      	movs	r3, #128	; 0x80
    7f92:	b510      	push	{r4, lr}
    7f94:	0052      	lsls	r2, r2, #1
    7f96:	00db      	lsls	r3, r3, #3
    7f98:	f000 f802 	bl	7fa0 <setvbuf>
    7f9c:	bd10      	pop	{r4, pc}
	...

00007fa0 <setvbuf>:
    7fa0:	b5f0      	push	{r4, r5, r6, r7, lr}
    7fa2:	001d      	movs	r5, r3
    7fa4:	4b51      	ldr	r3, [pc, #324]	; (80ec <setvbuf+0x14c>)
    7fa6:	b085      	sub	sp, #20
    7fa8:	681e      	ldr	r6, [r3, #0]
    7faa:	0004      	movs	r4, r0
    7fac:	000f      	movs	r7, r1
    7fae:	9200      	str	r2, [sp, #0]
    7fb0:	2e00      	cmp	r6, #0
    7fb2:	d005      	beq.n	7fc0 <setvbuf+0x20>
    7fb4:	69b3      	ldr	r3, [r6, #24]
    7fb6:	2b00      	cmp	r3, #0
    7fb8:	d102      	bne.n	7fc0 <setvbuf+0x20>
    7fba:	0030      	movs	r0, r6
    7fbc:	f000 fa62 	bl	8484 <__sinit>
    7fc0:	4b4b      	ldr	r3, [pc, #300]	; (80f0 <setvbuf+0x150>)
    7fc2:	429c      	cmp	r4, r3
    7fc4:	d101      	bne.n	7fca <setvbuf+0x2a>
    7fc6:	6874      	ldr	r4, [r6, #4]
    7fc8:	e008      	b.n	7fdc <setvbuf+0x3c>
    7fca:	4b4a      	ldr	r3, [pc, #296]	; (80f4 <setvbuf+0x154>)
    7fcc:	429c      	cmp	r4, r3
    7fce:	d101      	bne.n	7fd4 <setvbuf+0x34>
    7fd0:	68b4      	ldr	r4, [r6, #8]
    7fd2:	e003      	b.n	7fdc <setvbuf+0x3c>
    7fd4:	4b48      	ldr	r3, [pc, #288]	; (80f8 <setvbuf+0x158>)
    7fd6:	429c      	cmp	r4, r3
    7fd8:	d100      	bne.n	7fdc <setvbuf+0x3c>
    7fda:	68f4      	ldr	r4, [r6, #12]
    7fdc:	9b00      	ldr	r3, [sp, #0]
    7fde:	2b02      	cmp	r3, #2
    7fe0:	d005      	beq.n	7fee <setvbuf+0x4e>
    7fe2:	2b01      	cmp	r3, #1
    7fe4:	d900      	bls.n	7fe8 <setvbuf+0x48>
    7fe6:	e07c      	b.n	80e2 <setvbuf+0x142>
    7fe8:	2d00      	cmp	r5, #0
    7fea:	da00      	bge.n	7fee <setvbuf+0x4e>
    7fec:	e079      	b.n	80e2 <setvbuf+0x142>
    7fee:	0021      	movs	r1, r4
    7ff0:	0030      	movs	r0, r6
    7ff2:	f000 f9d9 	bl	83a8 <_fflush_r>
    7ff6:	6b61      	ldr	r1, [r4, #52]	; 0x34
    7ff8:	2900      	cmp	r1, #0
    7ffa:	d008      	beq.n	800e <setvbuf+0x6e>
    7ffc:	0023      	movs	r3, r4
    7ffe:	3344      	adds	r3, #68	; 0x44
    8000:	4299      	cmp	r1, r3
    8002:	d002      	beq.n	800a <setvbuf+0x6a>
    8004:	0030      	movs	r0, r6
    8006:	f000 fb3f 	bl	8688 <_free_r>
    800a:	2300      	movs	r3, #0
    800c:	6363      	str	r3, [r4, #52]	; 0x34
    800e:	2300      	movs	r3, #0
    8010:	61a3      	str	r3, [r4, #24]
    8012:	6063      	str	r3, [r4, #4]
    8014:	89a3      	ldrh	r3, [r4, #12]
    8016:	061b      	lsls	r3, r3, #24
    8018:	d503      	bpl.n	8022 <setvbuf+0x82>
    801a:	6921      	ldr	r1, [r4, #16]
    801c:	0030      	movs	r0, r6
    801e:	f000 fb33 	bl	8688 <_free_r>
    8022:	89a2      	ldrh	r2, [r4, #12]
    8024:	4b35      	ldr	r3, [pc, #212]	; (80fc <setvbuf+0x15c>)
    8026:	4013      	ands	r3, r2
    8028:	81a3      	strh	r3, [r4, #12]
    802a:	9b00      	ldr	r3, [sp, #0]
    802c:	2b02      	cmp	r3, #2
    802e:	d021      	beq.n	8074 <setvbuf+0xd4>
    8030:	ab03      	add	r3, sp, #12
    8032:	aa02      	add	r2, sp, #8
    8034:	0021      	movs	r1, r4
    8036:	0030      	movs	r0, r6
    8038:	f000 fab8 	bl	85ac <__swhatbuf_r>
    803c:	89a3      	ldrh	r3, [r4, #12]
    803e:	4318      	orrs	r0, r3
    8040:	81a0      	strh	r0, [r4, #12]
    8042:	2d00      	cmp	r5, #0
    8044:	d101      	bne.n	804a <setvbuf+0xaa>
    8046:	9d02      	ldr	r5, [sp, #8]
    8048:	e001      	b.n	804e <setvbuf+0xae>
    804a:	2f00      	cmp	r7, #0
    804c:	d125      	bne.n	809a <setvbuf+0xfa>
    804e:	0028      	movs	r0, r5
    8050:	f000 fb10 	bl	8674 <malloc>
    8054:	9501      	str	r5, [sp, #4]
    8056:	1e07      	subs	r7, r0, #0
    8058:	d11a      	bne.n	8090 <setvbuf+0xf0>
    805a:	9b02      	ldr	r3, [sp, #8]
    805c:	9301      	str	r3, [sp, #4]
    805e:	42ab      	cmp	r3, r5
    8060:	d102      	bne.n	8068 <setvbuf+0xc8>
    8062:	2001      	movs	r0, #1
    8064:	4240      	negs	r0, r0
    8066:	e006      	b.n	8076 <setvbuf+0xd6>
    8068:	9801      	ldr	r0, [sp, #4]
    806a:	f000 fb03 	bl	8674 <malloc>
    806e:	1e07      	subs	r7, r0, #0
    8070:	d10e      	bne.n	8090 <setvbuf+0xf0>
    8072:	e7f6      	b.n	8062 <setvbuf+0xc2>
    8074:	2000      	movs	r0, #0
    8076:	2202      	movs	r2, #2
    8078:	89a3      	ldrh	r3, [r4, #12]
    807a:	4313      	orrs	r3, r2
    807c:	81a3      	strh	r3, [r4, #12]
    807e:	2300      	movs	r3, #0
    8080:	60a3      	str	r3, [r4, #8]
    8082:	0023      	movs	r3, r4
    8084:	3347      	adds	r3, #71	; 0x47
    8086:	6023      	str	r3, [r4, #0]
    8088:	6123      	str	r3, [r4, #16]
    808a:	2301      	movs	r3, #1
    808c:	6163      	str	r3, [r4, #20]
    808e:	e02a      	b.n	80e6 <setvbuf+0x146>
    8090:	2280      	movs	r2, #128	; 0x80
    8092:	89a3      	ldrh	r3, [r4, #12]
    8094:	9d01      	ldr	r5, [sp, #4]
    8096:	4313      	orrs	r3, r2
    8098:	81a3      	strh	r3, [r4, #12]
    809a:	69b3      	ldr	r3, [r6, #24]
    809c:	2b00      	cmp	r3, #0
    809e:	d102      	bne.n	80a6 <setvbuf+0x106>
    80a0:	0030      	movs	r0, r6
    80a2:	f000 f9ef 	bl	8484 <__sinit>
    80a6:	9b00      	ldr	r3, [sp, #0]
    80a8:	2b01      	cmp	r3, #1
    80aa:	d103      	bne.n	80b4 <setvbuf+0x114>
    80ac:	89a3      	ldrh	r3, [r4, #12]
    80ae:	9a00      	ldr	r2, [sp, #0]
    80b0:	431a      	orrs	r2, r3
    80b2:	81a2      	strh	r2, [r4, #12]
    80b4:	2308      	movs	r3, #8
    80b6:	89a2      	ldrh	r2, [r4, #12]
    80b8:	6027      	str	r7, [r4, #0]
    80ba:	4013      	ands	r3, r2
    80bc:	6127      	str	r7, [r4, #16]
    80be:	6165      	str	r5, [r4, #20]
    80c0:	1e18      	subs	r0, r3, #0
    80c2:	d00c      	beq.n	80de <setvbuf+0x13e>
    80c4:	2301      	movs	r3, #1
    80c6:	401a      	ands	r2, r3
    80c8:	2300      	movs	r3, #0
    80ca:	1e10      	subs	r0, r2, #0
    80cc:	4298      	cmp	r0, r3
    80ce:	d004      	beq.n	80da <setvbuf+0x13a>
    80d0:	426d      	negs	r5, r5
    80d2:	60a3      	str	r3, [r4, #8]
    80d4:	61a5      	str	r5, [r4, #24]
    80d6:	0018      	movs	r0, r3
    80d8:	e005      	b.n	80e6 <setvbuf+0x146>
    80da:	60a5      	str	r5, [r4, #8]
    80dc:	e003      	b.n	80e6 <setvbuf+0x146>
    80de:	60a3      	str	r3, [r4, #8]
    80e0:	e001      	b.n	80e6 <setvbuf+0x146>
    80e2:	2001      	movs	r0, #1
    80e4:	4240      	negs	r0, r0
    80e6:	b005      	add	sp, #20
    80e8:	bdf0      	pop	{r4, r5, r6, r7, pc}
    80ea:	46c0      	nop			; (mov r8, r8)
    80ec:	20000150 	.word	0x20000150
    80f0:	0000ceb0 	.word	0x0000ceb0
    80f4:	0000ced0 	.word	0x0000ced0
    80f8:	0000cef0 	.word	0x0000cef0
    80fc:	fffff35c 	.word	0xfffff35c

00008100 <__swbuf_r>:
    8100:	b5f8      	push	{r3, r4, r5, r6, r7, lr}
    8102:	0005      	movs	r5, r0
    8104:	000f      	movs	r7, r1
    8106:	0014      	movs	r4, r2
    8108:	2800      	cmp	r0, #0
    810a:	d004      	beq.n	8116 <__swbuf_r+0x16>
    810c:	6983      	ldr	r3, [r0, #24]
    810e:	2b00      	cmp	r3, #0
    8110:	d101      	bne.n	8116 <__swbuf_r+0x16>
    8112:	f000 f9b7 	bl	8484 <__sinit>
    8116:	4b23      	ldr	r3, [pc, #140]	; (81a4 <__swbuf_r+0xa4>)
    8118:	429c      	cmp	r4, r3
    811a:	d101      	bne.n	8120 <__swbuf_r+0x20>
    811c:	686c      	ldr	r4, [r5, #4]
    811e:	e008      	b.n	8132 <__swbuf_r+0x32>
    8120:	4b21      	ldr	r3, [pc, #132]	; (81a8 <__swbuf_r+0xa8>)
    8122:	429c      	cmp	r4, r3
    8124:	d101      	bne.n	812a <__swbuf_r+0x2a>
    8126:	68ac      	ldr	r4, [r5, #8]
    8128:	e003      	b.n	8132 <__swbuf_r+0x32>
    812a:	4b20      	ldr	r3, [pc, #128]	; (81ac <__swbuf_r+0xac>)
    812c:	429c      	cmp	r4, r3
    812e:	d100      	bne.n	8132 <__swbuf_r+0x32>
    8130:	68ec      	ldr	r4, [r5, #12]
    8132:	69a3      	ldr	r3, [r4, #24]
    8134:	60a3      	str	r3, [r4, #8]
    8136:	89a3      	ldrh	r3, [r4, #12]
    8138:	071b      	lsls	r3, r3, #28
    813a:	d50a      	bpl.n	8152 <__swbuf_r+0x52>
    813c:	6923      	ldr	r3, [r4, #16]
    813e:	2b00      	cmp	r3, #0
    8140:	d007      	beq.n	8152 <__swbuf_r+0x52>
    8142:	6823      	ldr	r3, [r4, #0]
    8144:	6922      	ldr	r2, [r4, #16]
    8146:	b2fe      	uxtb	r6, r7
    8148:	1a98      	subs	r0, r3, r2
    814a:	6963      	ldr	r3, [r4, #20]
    814c:	4298      	cmp	r0, r3
    814e:	db0f      	blt.n	8170 <__swbuf_r+0x70>
    8150:	e008      	b.n	8164 <__swbuf_r+0x64>
    8152:	0021      	movs	r1, r4
    8154:	0028      	movs	r0, r5
    8156:	f000 f82b 	bl	81b0 <__swsetup_r>
    815a:	2800      	cmp	r0, #0
    815c:	d0f1      	beq.n	8142 <__swbuf_r+0x42>
    815e:	2001      	movs	r0, #1
    8160:	4240      	negs	r0, r0
    8162:	e01d      	b.n	81a0 <__swbuf_r+0xa0>
    8164:	0021      	movs	r1, r4
    8166:	0028      	movs	r0, r5
    8168:	f000 f91e 	bl	83a8 <_fflush_r>
    816c:	2800      	cmp	r0, #0
    816e:	d1f6      	bne.n	815e <__swbuf_r+0x5e>
    8170:	68a3      	ldr	r3, [r4, #8]
    8172:	3001      	adds	r0, #1
    8174:	3b01      	subs	r3, #1
    8176:	60a3      	str	r3, [r4, #8]
    8178:	6823      	ldr	r3, [r4, #0]
    817a:	1c5a      	adds	r2, r3, #1
    817c:	6022      	str	r2, [r4, #0]
    817e:	701f      	strb	r7, [r3, #0]
    8180:	6963      	ldr	r3, [r4, #20]
    8182:	4298      	cmp	r0, r3
    8184:	d005      	beq.n	8192 <__swbuf_r+0x92>
    8186:	89a3      	ldrh	r3, [r4, #12]
    8188:	0030      	movs	r0, r6
    818a:	07db      	lsls	r3, r3, #31
    818c:	d508      	bpl.n	81a0 <__swbuf_r+0xa0>
    818e:	2e0a      	cmp	r6, #10
    8190:	d106      	bne.n	81a0 <__swbuf_r+0xa0>
    8192:	0021      	movs	r1, r4
    8194:	0028      	movs	r0, r5
    8196:	f000 f907 	bl	83a8 <_fflush_r>
    819a:	2800      	cmp	r0, #0
    819c:	d1df      	bne.n	815e <__swbuf_r+0x5e>
    819e:	0030      	movs	r0, r6
    81a0:	bdf8      	pop	{r3, r4, r5, r6, r7, pc}
    81a2:	46c0      	nop			; (mov r8, r8)
    81a4:	0000ceb0 	.word	0x0000ceb0
    81a8:	0000ced0 	.word	0x0000ced0
    81ac:	0000cef0 	.word	0x0000cef0

000081b0 <__swsetup_r>:
    81b0:	4b36      	ldr	r3, [pc, #216]	; (828c <__swsetup_r+0xdc>)
    81b2:	b570      	push	{r4, r5, r6, lr}
    81b4:	681d      	ldr	r5, [r3, #0]
    81b6:	0006      	movs	r6, r0
    81b8:	000c      	movs	r4, r1
    81ba:	2d00      	cmp	r5, #0
    81bc:	d005      	beq.n	81ca <__swsetup_r+0x1a>
    81be:	69ab      	ldr	r3, [r5, #24]
    81c0:	2b00      	cmp	r3, #0
    81c2:	d102      	bne.n	81ca <__swsetup_r+0x1a>
    81c4:	0028      	movs	r0, r5
    81c6:	f000 f95d 	bl	8484 <__sinit>
    81ca:	4b31      	ldr	r3, [pc, #196]	; (8290 <__swsetup_r+0xe0>)
    81cc:	429c      	cmp	r4, r3
    81ce:	d101      	bne.n	81d4 <__swsetup_r+0x24>
    81d0:	686c      	ldr	r4, [r5, #4]
    81d2:	e008      	b.n	81e6 <__swsetup_r+0x36>
    81d4:	4b2f      	ldr	r3, [pc, #188]	; (8294 <__swsetup_r+0xe4>)
    81d6:	429c      	cmp	r4, r3
    81d8:	d101      	bne.n	81de <__swsetup_r+0x2e>
    81da:	68ac      	ldr	r4, [r5, #8]
    81dc:	e003      	b.n	81e6 <__swsetup_r+0x36>
    81de:	4b2e      	ldr	r3, [pc, #184]	; (8298 <__swsetup_r+0xe8>)
    81e0:	429c      	cmp	r4, r3
    81e2:	d100      	bne.n	81e6 <__swsetup_r+0x36>
    81e4:	68ec      	ldr	r4, [r5, #12]
    81e6:	220c      	movs	r2, #12
    81e8:	5ea3      	ldrsh	r3, [r4, r2]
    81ea:	b29a      	uxth	r2, r3
    81ec:	0711      	lsls	r1, r2, #28
    81ee:	d423      	bmi.n	8238 <__swsetup_r+0x88>
    81f0:	06d1      	lsls	r1, r2, #27
    81f2:	d407      	bmi.n	8204 <__swsetup_r+0x54>
    81f4:	2209      	movs	r2, #9
    81f6:	2001      	movs	r0, #1
    81f8:	6032      	str	r2, [r6, #0]
    81fa:	3237      	adds	r2, #55	; 0x37
    81fc:	4313      	orrs	r3, r2
    81fe:	81a3      	strh	r3, [r4, #12]
    8200:	4240      	negs	r0, r0
    8202:	e042      	b.n	828a <__swsetup_r+0xda>
    8204:	0753      	lsls	r3, r2, #29
    8206:	d513      	bpl.n	8230 <__swsetup_r+0x80>
    8208:	6b61      	ldr	r1, [r4, #52]	; 0x34
    820a:	2900      	cmp	r1, #0
    820c:	d008      	beq.n	8220 <__swsetup_r+0x70>
    820e:	0023      	movs	r3, r4
    8210:	3344      	adds	r3, #68	; 0x44
    8212:	4299      	cmp	r1, r3
    8214:	d002      	beq.n	821c <__swsetup_r+0x6c>
    8216:	0030      	movs	r0, r6
    8218:	f000 fa36 	bl	8688 <_free_r>
    821c:	2300      	movs	r3, #0
    821e:	6363      	str	r3, [r4, #52]	; 0x34
    8220:	2224      	movs	r2, #36	; 0x24
    8222:	89a3      	ldrh	r3, [r4, #12]
    8224:	4393      	bics	r3, r2
    8226:	81a3      	strh	r3, [r4, #12]
    8228:	2300      	movs	r3, #0
    822a:	6063      	str	r3, [r4, #4]
    822c:	6923      	ldr	r3, [r4, #16]
    822e:	6023      	str	r3, [r4, #0]
    8230:	2208      	movs	r2, #8
    8232:	89a3      	ldrh	r3, [r4, #12]
    8234:	4313      	orrs	r3, r2
    8236:	81a3      	strh	r3, [r4, #12]
    8238:	6923      	ldr	r3, [r4, #16]
    823a:	2b00      	cmp	r3, #0
    823c:	d10b      	bne.n	8256 <__swsetup_r+0xa6>
    823e:	23a0      	movs	r3, #160	; 0xa0
    8240:	89a2      	ldrh	r2, [r4, #12]
    8242:	009b      	lsls	r3, r3, #2
    8244:	4013      	ands	r3, r2
    8246:	2280      	movs	r2, #128	; 0x80
    8248:	0092      	lsls	r2, r2, #2
    824a:	4293      	cmp	r3, r2
    824c:	d003      	beq.n	8256 <__swsetup_r+0xa6>
    824e:	0021      	movs	r1, r4
    8250:	0030      	movs	r0, r6
    8252:	f000 f9d1 	bl	85f8 <__smakebuf_r>
    8256:	2301      	movs	r3, #1
    8258:	89a2      	ldrh	r2, [r4, #12]
    825a:	4013      	ands	r3, r2
    825c:	d005      	beq.n	826a <__swsetup_r+0xba>
    825e:	2300      	movs	r3, #0
    8260:	60a3      	str	r3, [r4, #8]
    8262:	6963      	ldr	r3, [r4, #20]
    8264:	425b      	negs	r3, r3
    8266:	61a3      	str	r3, [r4, #24]
    8268:	e003      	b.n	8272 <__swsetup_r+0xc2>
    826a:	0792      	lsls	r2, r2, #30
    826c:	d400      	bmi.n	8270 <__swsetup_r+0xc0>
    826e:	6963      	ldr	r3, [r4, #20]
    8270:	60a3      	str	r3, [r4, #8]
    8272:	2000      	movs	r0, #0
    8274:	6923      	ldr	r3, [r4, #16]
    8276:	4283      	cmp	r3, r0
    8278:	d107      	bne.n	828a <__swsetup_r+0xda>
    827a:	220c      	movs	r2, #12
    827c:	5ea3      	ldrsh	r3, [r4, r2]
    827e:	061a      	lsls	r2, r3, #24
    8280:	d503      	bpl.n	828a <__swsetup_r+0xda>
    8282:	2240      	movs	r2, #64	; 0x40
    8284:	4313      	orrs	r3, r2
    8286:	81a3      	strh	r3, [r4, #12]
    8288:	3801      	subs	r0, #1
    828a:	bd70      	pop	{r4, r5, r6, pc}
    828c:	20000150 	.word	0x20000150
    8290:	0000ceb0 	.word	0x0000ceb0
    8294:	0000ced0 	.word	0x0000ced0
    8298:	0000cef0 	.word	0x0000cef0

0000829c <__sflush_r>:
    829c:	b5f7      	push	{r0, r1, r2, r4, r5, r6, r7, lr}
    829e:	898a      	ldrh	r2, [r1, #12]
    82a0:	0005      	movs	r5, r0
    82a2:	000c      	movs	r4, r1
    82a4:	0713      	lsls	r3, r2, #28
    82a6:	d45a      	bmi.n	835e <__sflush_r+0xc2>
    82a8:	684b      	ldr	r3, [r1, #4]
    82aa:	2b00      	cmp	r3, #0
    82ac:	dc02      	bgt.n	82b4 <__sflush_r+0x18>
    82ae:	6c0b      	ldr	r3, [r1, #64]	; 0x40
    82b0:	2b00      	cmp	r3, #0
    82b2:	dd19      	ble.n	82e8 <__sflush_r+0x4c>
    82b4:	6ae7      	ldr	r7, [r4, #44]	; 0x2c
    82b6:	2f00      	cmp	r7, #0
    82b8:	d016      	beq.n	82e8 <__sflush_r+0x4c>
    82ba:	2300      	movs	r3, #0
    82bc:	682e      	ldr	r6, [r5, #0]
    82be:	602b      	str	r3, [r5, #0]
    82c0:	2380      	movs	r3, #128	; 0x80
    82c2:	015b      	lsls	r3, r3, #5
    82c4:	401a      	ands	r2, r3
    82c6:	d001      	beq.n	82cc <__sflush_r+0x30>
    82c8:	6d60      	ldr	r0, [r4, #84]	; 0x54
    82ca:	e014      	b.n	82f6 <__sflush_r+0x5a>
    82cc:	2301      	movs	r3, #1
    82ce:	6a21      	ldr	r1, [r4, #32]
    82d0:	0028      	movs	r0, r5
    82d2:	47b8      	blx	r7
    82d4:	1c43      	adds	r3, r0, #1
    82d6:	d10e      	bne.n	82f6 <__sflush_r+0x5a>
    82d8:	682b      	ldr	r3, [r5, #0]
    82da:	2b00      	cmp	r3, #0
    82dc:	d00b      	beq.n	82f6 <__sflush_r+0x5a>
    82de:	2b1d      	cmp	r3, #29
    82e0:	d001      	beq.n	82e6 <__sflush_r+0x4a>
    82e2:	2b16      	cmp	r3, #22
    82e4:	d102      	bne.n	82ec <__sflush_r+0x50>
    82e6:	602e      	str	r6, [r5, #0]
    82e8:	2000      	movs	r0, #0
    82ea:	e05a      	b.n	83a2 <__sflush_r+0x106>
    82ec:	2240      	movs	r2, #64	; 0x40
    82ee:	89a3      	ldrh	r3, [r4, #12]
    82f0:	4313      	orrs	r3, r2
    82f2:	81a3      	strh	r3, [r4, #12]
    82f4:	e055      	b.n	83a2 <__sflush_r+0x106>
    82f6:	89a3      	ldrh	r3, [r4, #12]
    82f8:	075b      	lsls	r3, r3, #29
    82fa:	d506      	bpl.n	830a <__sflush_r+0x6e>
    82fc:	6863      	ldr	r3, [r4, #4]
    82fe:	1ac0      	subs	r0, r0, r3
    8300:	6b63      	ldr	r3, [r4, #52]	; 0x34
    8302:	2b00      	cmp	r3, #0
    8304:	d001      	beq.n	830a <__sflush_r+0x6e>
    8306:	6c23      	ldr	r3, [r4, #64]	; 0x40
    8308:	1ac0      	subs	r0, r0, r3
    830a:	2300      	movs	r3, #0
    830c:	0002      	movs	r2, r0
    830e:	6a21      	ldr	r1, [r4, #32]
    8310:	0028      	movs	r0, r5
    8312:	6ae7      	ldr	r7, [r4, #44]	; 0x2c
    8314:	47b8      	blx	r7
    8316:	89a3      	ldrh	r3, [r4, #12]
    8318:	1c42      	adds	r2, r0, #1
    831a:	d106      	bne.n	832a <__sflush_r+0x8e>
    831c:	6829      	ldr	r1, [r5, #0]
    831e:	291d      	cmp	r1, #29
    8320:	d83a      	bhi.n	8398 <__sflush_r+0xfc>
    8322:	4a20      	ldr	r2, [pc, #128]	; (83a4 <__sflush_r+0x108>)
    8324:	40ca      	lsrs	r2, r1
    8326:	07d2      	lsls	r2, r2, #31
    8328:	d536      	bpl.n	8398 <__sflush_r+0xfc>
    832a:	2200      	movs	r2, #0
    832c:	6062      	str	r2, [r4, #4]
    832e:	6922      	ldr	r2, [r4, #16]
    8330:	6022      	str	r2, [r4, #0]
    8332:	04db      	lsls	r3, r3, #19
    8334:	d505      	bpl.n	8342 <__sflush_r+0xa6>
    8336:	1c43      	adds	r3, r0, #1
    8338:	d102      	bne.n	8340 <__sflush_r+0xa4>
    833a:	682b      	ldr	r3, [r5, #0]
    833c:	2b00      	cmp	r3, #0
    833e:	d100      	bne.n	8342 <__sflush_r+0xa6>
    8340:	6560      	str	r0, [r4, #84]	; 0x54
    8342:	6b61      	ldr	r1, [r4, #52]	; 0x34
    8344:	602e      	str	r6, [r5, #0]
    8346:	2900      	cmp	r1, #0
    8348:	d0ce      	beq.n	82e8 <__sflush_r+0x4c>
    834a:	0023      	movs	r3, r4
    834c:	3344      	adds	r3, #68	; 0x44
    834e:	4299      	cmp	r1, r3
    8350:	d002      	beq.n	8358 <__sflush_r+0xbc>
    8352:	0028      	movs	r0, r5
    8354:	f000 f998 	bl	8688 <_free_r>
    8358:	2000      	movs	r0, #0
    835a:	6360      	str	r0, [r4, #52]	; 0x34
    835c:	e021      	b.n	83a2 <__sflush_r+0x106>
    835e:	690f      	ldr	r7, [r1, #16]
    8360:	2f00      	cmp	r7, #0
    8362:	d0c1      	beq.n	82e8 <__sflush_r+0x4c>
    8364:	680b      	ldr	r3, [r1, #0]
    8366:	600f      	str	r7, [r1, #0]
    8368:	1bdb      	subs	r3, r3, r7
    836a:	9301      	str	r3, [sp, #4]
    836c:	2300      	movs	r3, #0
    836e:	0792      	lsls	r2, r2, #30
    8370:	d100      	bne.n	8374 <__sflush_r+0xd8>
    8372:	694b      	ldr	r3, [r1, #20]
    8374:	60a3      	str	r3, [r4, #8]
    8376:	e003      	b.n	8380 <__sflush_r+0xe4>
    8378:	9b01      	ldr	r3, [sp, #4]
    837a:	183f      	adds	r7, r7, r0
    837c:	1a1b      	subs	r3, r3, r0
    837e:	9301      	str	r3, [sp, #4]
    8380:	9b01      	ldr	r3, [sp, #4]
    8382:	2b00      	cmp	r3, #0
    8384:	ddb0      	ble.n	82e8 <__sflush_r+0x4c>
    8386:	9b01      	ldr	r3, [sp, #4]
    8388:	003a      	movs	r2, r7
    838a:	6a21      	ldr	r1, [r4, #32]
    838c:	0028      	movs	r0, r5
    838e:	6aa6      	ldr	r6, [r4, #40]	; 0x28
    8390:	47b0      	blx	r6
    8392:	2800      	cmp	r0, #0
    8394:	dcf0      	bgt.n	8378 <__sflush_r+0xdc>
    8396:	89a3      	ldrh	r3, [r4, #12]
    8398:	2240      	movs	r2, #64	; 0x40
    839a:	2001      	movs	r0, #1
    839c:	4313      	orrs	r3, r2
    839e:	81a3      	strh	r3, [r4, #12]
    83a0:	4240      	negs	r0, r0
    83a2:	bdfe      	pop	{r1, r2, r3, r4, r5, r6, r7, pc}
    83a4:	20400001 	.word	0x20400001

000083a8 <_fflush_r>:
    83a8:	690b      	ldr	r3, [r1, #16]
    83aa:	b570      	push	{r4, r5, r6, lr}
    83ac:	0005      	movs	r5, r0
    83ae:	000c      	movs	r4, r1
    83b0:	2b00      	cmp	r3, #0
    83b2:	d101      	bne.n	83b8 <_fflush_r+0x10>
    83b4:	2000      	movs	r0, #0
    83b6:	e01c      	b.n	83f2 <_fflush_r+0x4a>
    83b8:	2800      	cmp	r0, #0
    83ba:	d004      	beq.n	83c6 <_fflush_r+0x1e>
    83bc:	6983      	ldr	r3, [r0, #24]
    83be:	2b00      	cmp	r3, #0
    83c0:	d101      	bne.n	83c6 <_fflush_r+0x1e>
    83c2:	f000 f85f 	bl	8484 <__sinit>
    83c6:	4b0b      	ldr	r3, [pc, #44]	; (83f4 <_fflush_r+0x4c>)
    83c8:	429c      	cmp	r4, r3
    83ca:	d101      	bne.n	83d0 <_fflush_r+0x28>
    83cc:	686c      	ldr	r4, [r5, #4]
    83ce:	e008      	b.n	83e2 <_fflush_r+0x3a>
    83d0:	4b09      	ldr	r3, [pc, #36]	; (83f8 <_fflush_r+0x50>)
    83d2:	429c      	cmp	r4, r3
    83d4:	d101      	bne.n	83da <_fflush_r+0x32>
    83d6:	68ac      	ldr	r4, [r5, #8]
    83d8:	e003      	b.n	83e2 <_fflush_r+0x3a>
    83da:	4b08      	ldr	r3, [pc, #32]	; (83fc <_fflush_r+0x54>)
    83dc:	429c      	cmp	r4, r3
    83de:	d100      	bne.n	83e2 <_fflush_r+0x3a>
    83e0:	68ec      	ldr	r4, [r5, #12]
    83e2:	220c      	movs	r2, #12
    83e4:	5ea3      	ldrsh	r3, [r4, r2]
    83e6:	2b00      	cmp	r3, #0
    83e8:	d0e4      	beq.n	83b4 <_fflush_r+0xc>
    83ea:	0021      	movs	r1, r4
    83ec:	0028      	movs	r0, r5
    83ee:	f7ff ff55 	bl	829c <__sflush_r>
    83f2:	bd70      	pop	{r4, r5, r6, pc}
    83f4:	0000ceb0 	.word	0x0000ceb0
    83f8:	0000ced0 	.word	0x0000ced0
    83fc:	0000cef0 	.word	0x0000cef0

00008400 <_cleanup_r>:
    8400:	b510      	push	{r4, lr}
    8402:	4902      	ldr	r1, [pc, #8]	; (840c <_cleanup_r+0xc>)
    8404:	f000 f8b0 	bl	8568 <_fwalk_reent>
    8408:	bd10      	pop	{r4, pc}
    840a:	46c0      	nop			; (mov r8, r8)
    840c:	000083a9 	.word	0x000083a9

00008410 <std.isra.0>:
    8410:	2300      	movs	r3, #0
    8412:	b510      	push	{r4, lr}
    8414:	0004      	movs	r4, r0
    8416:	6003      	str	r3, [r0, #0]
    8418:	6043      	str	r3, [r0, #4]
    841a:	6083      	str	r3, [r0, #8]
    841c:	8181      	strh	r1, [r0, #12]
    841e:	6643      	str	r3, [r0, #100]	; 0x64
    8420:	81c2      	strh	r2, [r0, #14]
    8422:	6103      	str	r3, [r0, #16]
    8424:	6143      	str	r3, [r0, #20]
    8426:	6183      	str	r3, [r0, #24]
    8428:	0019      	movs	r1, r3
    842a:	2208      	movs	r2, #8
    842c:	305c      	adds	r0, #92	; 0x5c
    842e:	f7ff fccf 	bl	7dd0 <memset>
    8432:	4b05      	ldr	r3, [pc, #20]	; (8448 <std.isra.0+0x38>)
    8434:	6224      	str	r4, [r4, #32]
    8436:	6263      	str	r3, [r4, #36]	; 0x24
    8438:	4b04      	ldr	r3, [pc, #16]	; (844c <std.isra.0+0x3c>)
    843a:	62a3      	str	r3, [r4, #40]	; 0x28
    843c:	4b04      	ldr	r3, [pc, #16]	; (8450 <std.isra.0+0x40>)
    843e:	62e3      	str	r3, [r4, #44]	; 0x2c
    8440:	4b04      	ldr	r3, [pc, #16]	; (8454 <std.isra.0+0x44>)
    8442:	6323      	str	r3, [r4, #48]	; 0x30
    8444:	bd10      	pop	{r4, pc}
    8446:	46c0      	nop			; (mov r8, r8)
    8448:	00008df9 	.word	0x00008df9
    844c:	00008e21 	.word	0x00008e21
    8450:	00008e59 	.word	0x00008e59
    8454:	00008e85 	.word	0x00008e85

00008458 <__sfmoreglue>:
    8458:	b570      	push	{r4, r5, r6, lr}
    845a:	2568      	movs	r5, #104	; 0x68
    845c:	1e4b      	subs	r3, r1, #1
    845e:	435d      	muls	r5, r3
    8460:	000e      	movs	r6, r1
    8462:	0029      	movs	r1, r5
    8464:	3174      	adds	r1, #116	; 0x74
    8466:	f000 f955 	bl	8714 <_malloc_r>
    846a:	1e04      	subs	r4, r0, #0
    846c:	d008      	beq.n	8480 <__sfmoreglue+0x28>
    846e:	2100      	movs	r1, #0
    8470:	002a      	movs	r2, r5
    8472:	6001      	str	r1, [r0, #0]
    8474:	6046      	str	r6, [r0, #4]
    8476:	300c      	adds	r0, #12
    8478:	60a0      	str	r0, [r4, #8]
    847a:	3268      	adds	r2, #104	; 0x68
    847c:	f7ff fca8 	bl	7dd0 <memset>
    8480:	0020      	movs	r0, r4
    8482:	bd70      	pop	{r4, r5, r6, pc}

00008484 <__sinit>:
    8484:	6983      	ldr	r3, [r0, #24]
    8486:	b513      	push	{r0, r1, r4, lr}
    8488:	0004      	movs	r4, r0
    848a:	2b00      	cmp	r3, #0
    848c:	d128      	bne.n	84e0 <__sinit+0x5c>
    848e:	6483      	str	r3, [r0, #72]	; 0x48
    8490:	64c3      	str	r3, [r0, #76]	; 0x4c
    8492:	6503      	str	r3, [r0, #80]	; 0x50
    8494:	4b13      	ldr	r3, [pc, #76]	; (84e4 <__sinit+0x60>)
    8496:	4a14      	ldr	r2, [pc, #80]	; (84e8 <__sinit+0x64>)
    8498:	681b      	ldr	r3, [r3, #0]
    849a:	6282      	str	r2, [r0, #40]	; 0x28
    849c:	9301      	str	r3, [sp, #4]
    849e:	4298      	cmp	r0, r3
    84a0:	d101      	bne.n	84a6 <__sinit+0x22>
    84a2:	2301      	movs	r3, #1
    84a4:	6183      	str	r3, [r0, #24]
    84a6:	0020      	movs	r0, r4
    84a8:	f000 f820 	bl	84ec <__sfp>
    84ac:	6060      	str	r0, [r4, #4]
    84ae:	0020      	movs	r0, r4
    84b0:	f000 f81c 	bl	84ec <__sfp>
    84b4:	60a0      	str	r0, [r4, #8]
    84b6:	0020      	movs	r0, r4
    84b8:	f000 f818 	bl	84ec <__sfp>
    84bc:	2200      	movs	r2, #0
    84be:	60e0      	str	r0, [r4, #12]
    84c0:	2104      	movs	r1, #4
    84c2:	6860      	ldr	r0, [r4, #4]
    84c4:	f7ff ffa4 	bl	8410 <std.isra.0>
    84c8:	2201      	movs	r2, #1
    84ca:	2109      	movs	r1, #9
    84cc:	68a0      	ldr	r0, [r4, #8]
    84ce:	f7ff ff9f 	bl	8410 <std.isra.0>
    84d2:	2202      	movs	r2, #2
    84d4:	2112      	movs	r1, #18
    84d6:	68e0      	ldr	r0, [r4, #12]
    84d8:	f7ff ff9a 	bl	8410 <std.isra.0>
    84dc:	2301      	movs	r3, #1
    84de:	61a3      	str	r3, [r4, #24]
    84e0:	bd13      	pop	{r0, r1, r4, pc}
    84e2:	46c0      	nop			; (mov r8, r8)
    84e4:	0000ceac 	.word	0x0000ceac
    84e8:	00008401 	.word	0x00008401

000084ec <__sfp>:
    84ec:	b5f8      	push	{r3, r4, r5, r6, r7, lr}
    84ee:	4b1d      	ldr	r3, [pc, #116]	; (8564 <__sfp+0x78>)
    84f0:	0006      	movs	r6, r0
    84f2:	681d      	ldr	r5, [r3, #0]
    84f4:	69ab      	ldr	r3, [r5, #24]
    84f6:	2b00      	cmp	r3, #0
    84f8:	d102      	bne.n	8500 <__sfp+0x14>
    84fa:	0028      	movs	r0, r5
    84fc:	f7ff ffc2 	bl	8484 <__sinit>
    8500:	3548      	adds	r5, #72	; 0x48
    8502:	68ac      	ldr	r4, [r5, #8]
    8504:	686b      	ldr	r3, [r5, #4]
    8506:	3b01      	subs	r3, #1
    8508:	d405      	bmi.n	8516 <__sfp+0x2a>
    850a:	220c      	movs	r2, #12
    850c:	5ea7      	ldrsh	r7, [r4, r2]
    850e:	2f00      	cmp	r7, #0
    8510:	d010      	beq.n	8534 <__sfp+0x48>
    8512:	3468      	adds	r4, #104	; 0x68
    8514:	e7f7      	b.n	8506 <__sfp+0x1a>
    8516:	682b      	ldr	r3, [r5, #0]
    8518:	2b00      	cmp	r3, #0
    851a:	d001      	beq.n	8520 <__sfp+0x34>
    851c:	682d      	ldr	r5, [r5, #0]
    851e:	e7f0      	b.n	8502 <__sfp+0x16>
    8520:	2104      	movs	r1, #4
    8522:	0030      	movs	r0, r6
    8524:	f7ff ff98 	bl	8458 <__sfmoreglue>
    8528:	6028      	str	r0, [r5, #0]
    852a:	2800      	cmp	r0, #0
    852c:	d1f6      	bne.n	851c <__sfp+0x30>
    852e:	230c      	movs	r3, #12
    8530:	6033      	str	r3, [r6, #0]
    8532:	e016      	b.n	8562 <__sfp+0x76>
    8534:	2301      	movs	r3, #1
    8536:	0020      	movs	r0, r4
    8538:	425b      	negs	r3, r3
    853a:	81e3      	strh	r3, [r4, #14]
    853c:	3302      	adds	r3, #2
    853e:	81a3      	strh	r3, [r4, #12]
    8540:	6667      	str	r7, [r4, #100]	; 0x64
    8542:	6027      	str	r7, [r4, #0]
    8544:	60a7      	str	r7, [r4, #8]
    8546:	6067      	str	r7, [r4, #4]
    8548:	6127      	str	r7, [r4, #16]
    854a:	6167      	str	r7, [r4, #20]
    854c:	61a7      	str	r7, [r4, #24]
    854e:	305c      	adds	r0, #92	; 0x5c
    8550:	2208      	movs	r2, #8
    8552:	0039      	movs	r1, r7
    8554:	f7ff fc3c 	bl	7dd0 <memset>
    8558:	0020      	movs	r0, r4
    855a:	6367      	str	r7, [r4, #52]	; 0x34
    855c:	63a7      	str	r7, [r4, #56]	; 0x38
    855e:	64a7      	str	r7, [r4, #72]	; 0x48
    8560:	64e7      	str	r7, [r4, #76]	; 0x4c
    8562:	bdf8      	pop	{r3, r4, r5, r6, r7, pc}
    8564:	0000ceac 	.word	0x0000ceac

00008568 <_fwalk_reent>:
    8568:	b5f7      	push	{r0, r1, r2, r4, r5, r6, r7, lr}
    856a:	0004      	movs	r4, r0
    856c:	0007      	movs	r7, r0
    856e:	2600      	movs	r6, #0
    8570:	9101      	str	r1, [sp, #4]
    8572:	3448      	adds	r4, #72	; 0x48
    8574:	2c00      	cmp	r4, #0
    8576:	d016      	beq.n	85a6 <_fwalk_reent+0x3e>
    8578:	6863      	ldr	r3, [r4, #4]
    857a:	68a5      	ldr	r5, [r4, #8]
    857c:	9300      	str	r3, [sp, #0]
    857e:	9b00      	ldr	r3, [sp, #0]
    8580:	3b01      	subs	r3, #1
    8582:	9300      	str	r3, [sp, #0]
    8584:	d40d      	bmi.n	85a2 <_fwalk_reent+0x3a>
    8586:	89ab      	ldrh	r3, [r5, #12]
    8588:	2b01      	cmp	r3, #1
    858a:	d908      	bls.n	859e <_fwalk_reent+0x36>
    858c:	220e      	movs	r2, #14
    858e:	5eab      	ldrsh	r3, [r5, r2]
    8590:	3301      	adds	r3, #1
    8592:	d004      	beq.n	859e <_fwalk_reent+0x36>
    8594:	0029      	movs	r1, r5
    8596:	0038      	movs	r0, r7
    8598:	9b01      	ldr	r3, [sp, #4]
    859a:	4798      	blx	r3
    859c:	4306      	orrs	r6, r0
    859e:	3568      	adds	r5, #104	; 0x68
    85a0:	e7ed      	b.n	857e <_fwalk_reent+0x16>
    85a2:	6824      	ldr	r4, [r4, #0]
    85a4:	e7e6      	b.n	8574 <_fwalk_reent+0xc>
    85a6:	0030      	movs	r0, r6
    85a8:	bdfe      	pop	{r1, r2, r3, r4, r5, r6, r7, pc}
	...

000085ac <__swhatbuf_r>:
    85ac:	b570      	push	{r4, r5, r6, lr}
    85ae:	000e      	movs	r6, r1
    85b0:	001d      	movs	r5, r3
    85b2:	230e      	movs	r3, #14
    85b4:	5ec9      	ldrsh	r1, [r1, r3]
    85b6:	b090      	sub	sp, #64	; 0x40
    85b8:	0014      	movs	r4, r2
    85ba:	2900      	cmp	r1, #0
    85bc:	da06      	bge.n	85cc <__swhatbuf_r+0x20>
    85be:	2300      	movs	r3, #0
    85c0:	602b      	str	r3, [r5, #0]
    85c2:	89b3      	ldrh	r3, [r6, #12]
    85c4:	061b      	lsls	r3, r3, #24
    85c6:	d50f      	bpl.n	85e8 <__swhatbuf_r+0x3c>
    85c8:	2340      	movs	r3, #64	; 0x40
    85ca:	e00f      	b.n	85ec <__swhatbuf_r+0x40>
    85cc:	aa01      	add	r2, sp, #4
    85ce:	f000 fc85 	bl	8edc <_fstat_r>
    85d2:	2800      	cmp	r0, #0
    85d4:	dbf3      	blt.n	85be <__swhatbuf_r+0x12>
    85d6:	23f0      	movs	r3, #240	; 0xf0
    85d8:	9a02      	ldr	r2, [sp, #8]
    85da:	021b      	lsls	r3, r3, #8
    85dc:	4013      	ands	r3, r2
    85de:	4a05      	ldr	r2, [pc, #20]	; (85f4 <__swhatbuf_r+0x48>)
    85e0:	189b      	adds	r3, r3, r2
    85e2:	425a      	negs	r2, r3
    85e4:	4153      	adcs	r3, r2
    85e6:	602b      	str	r3, [r5, #0]
    85e8:	2380      	movs	r3, #128	; 0x80
    85ea:	00db      	lsls	r3, r3, #3
    85ec:	2000      	movs	r0, #0
    85ee:	6023      	str	r3, [r4, #0]
    85f0:	b010      	add	sp, #64	; 0x40
    85f2:	bd70      	pop	{r4, r5, r6, pc}
    85f4:	ffffe000 	.word	0xffffe000

000085f8 <__smakebuf_r>:
    85f8:	b5f7      	push	{r0, r1, r2, r4, r5, r6, r7, lr}
    85fa:	2602      	movs	r6, #2
    85fc:	898b      	ldrh	r3, [r1, #12]
    85fe:	0005      	movs	r5, r0
    8600:	000c      	movs	r4, r1
    8602:	4233      	tst	r3, r6
    8604:	d110      	bne.n	8628 <__smakebuf_r+0x30>
    8606:	ab01      	add	r3, sp, #4
    8608:	466a      	mov	r2, sp
    860a:	f7ff ffcf 	bl	85ac <__swhatbuf_r>
    860e:	9900      	ldr	r1, [sp, #0]
    8610:	0007      	movs	r7, r0
    8612:	0028      	movs	r0, r5
    8614:	f000 f87e 	bl	8714 <_malloc_r>
    8618:	2800      	cmp	r0, #0
    861a:	d10c      	bne.n	8636 <__smakebuf_r+0x3e>
    861c:	220c      	movs	r2, #12
    861e:	5ea3      	ldrsh	r3, [r4, r2]
    8620:	059a      	lsls	r2, r3, #22
    8622:	d423      	bmi.n	866c <__smakebuf_r+0x74>
    8624:	4333      	orrs	r3, r6
    8626:	81a3      	strh	r3, [r4, #12]
    8628:	0023      	movs	r3, r4
    862a:	3347      	adds	r3, #71	; 0x47
    862c:	6023      	str	r3, [r4, #0]
    862e:	6123      	str	r3, [r4, #16]
    8630:	2301      	movs	r3, #1
    8632:	6163      	str	r3, [r4, #20]
    8634:	e01a      	b.n	866c <__smakebuf_r+0x74>
    8636:	2280      	movs	r2, #128	; 0x80
    8638:	4b0d      	ldr	r3, [pc, #52]	; (8670 <__smakebuf_r+0x78>)
    863a:	62ab      	str	r3, [r5, #40]	; 0x28
    863c:	89a3      	ldrh	r3, [r4, #12]
    863e:	6020      	str	r0, [r4, #0]
    8640:	4313      	orrs	r3, r2
    8642:	81a3      	strh	r3, [r4, #12]
    8644:	9b00      	ldr	r3, [sp, #0]
    8646:	6120      	str	r0, [r4, #16]
    8648:	6163      	str	r3, [r4, #20]
    864a:	9b01      	ldr	r3, [sp, #4]
    864c:	2b00      	cmp	r3, #0
    864e:	d00a      	beq.n	8666 <__smakebuf_r+0x6e>
    8650:	230e      	movs	r3, #14
    8652:	5ee1      	ldrsh	r1, [r4, r3]
    8654:	0028      	movs	r0, r5
    8656:	f000 fc53 	bl	8f00 <_isatty_r>
    865a:	2800      	cmp	r0, #0
    865c:	d003      	beq.n	8666 <__smakebuf_r+0x6e>
    865e:	2201      	movs	r2, #1
    8660:	89a3      	ldrh	r3, [r4, #12]
    8662:	4313      	orrs	r3, r2
    8664:	81a3      	strh	r3, [r4, #12]
    8666:	89a3      	ldrh	r3, [r4, #12]
    8668:	431f      	orrs	r7, r3
    866a:	81a7      	strh	r7, [r4, #12]
    866c:	bdf7      	pop	{r0, r1, r2, r4, r5, r6, r7, pc}
    866e:	46c0      	nop			; (mov r8, r8)
    8670:	00008401 	.word	0x00008401

00008674 <malloc>:
    8674:	b510      	push	{r4, lr}
    8676:	4b03      	ldr	r3, [pc, #12]	; (8684 <malloc+0x10>)
    8678:	0001      	movs	r1, r0
    867a:	6818      	ldr	r0, [r3, #0]
    867c:	f000 f84a 	bl	8714 <_malloc_r>
    8680:	bd10      	pop	{r4, pc}
    8682:	46c0      	nop			; (mov r8, r8)
    8684:	20000150 	.word	0x20000150

00008688 <_free_r>:
    8688:	b530      	push	{r4, r5, lr}
    868a:	2900      	cmp	r1, #0
    868c:	d03e      	beq.n	870c <_free_r+0x84>
    868e:	3904      	subs	r1, #4
    8690:	680b      	ldr	r3, [r1, #0]
    8692:	2b00      	cmp	r3, #0
    8694:	da00      	bge.n	8698 <_free_r+0x10>
    8696:	18c9      	adds	r1, r1, r3
    8698:	4a1d      	ldr	r2, [pc, #116]	; (8710 <_free_r+0x88>)
    869a:	6813      	ldr	r3, [r2, #0]
    869c:	0014      	movs	r4, r2
    869e:	2b00      	cmp	r3, #0
    86a0:	d102      	bne.n	86a8 <_free_r+0x20>
    86a2:	604b      	str	r3, [r1, #4]
    86a4:	6011      	str	r1, [r2, #0]
    86a6:	e031      	b.n	870c <_free_r+0x84>
    86a8:	428b      	cmp	r3, r1
    86aa:	d90d      	bls.n	86c8 <_free_r+0x40>
    86ac:	680a      	ldr	r2, [r1, #0]
    86ae:	1888      	adds	r0, r1, r2
    86b0:	4283      	cmp	r3, r0
    86b2:	d103      	bne.n	86bc <_free_r+0x34>
    86b4:	6818      	ldr	r0, [r3, #0]
    86b6:	685b      	ldr	r3, [r3, #4]
    86b8:	1882      	adds	r2, r0, r2
    86ba:	600a      	str	r2, [r1, #0]
    86bc:	604b      	str	r3, [r1, #4]
    86be:	6021      	str	r1, [r4, #0]
    86c0:	e024      	b.n	870c <_free_r+0x84>
    86c2:	428a      	cmp	r2, r1
    86c4:	d803      	bhi.n	86ce <_free_r+0x46>
    86c6:	0013      	movs	r3, r2
    86c8:	685a      	ldr	r2, [r3, #4]
    86ca:	2a00      	cmp	r2, #0
    86cc:	d1f9      	bne.n	86c2 <_free_r+0x3a>
    86ce:	681d      	ldr	r5, [r3, #0]
    86d0:	195c      	adds	r4, r3, r5
    86d2:	428c      	cmp	r4, r1
    86d4:	d10b      	bne.n	86ee <_free_r+0x66>
    86d6:	6809      	ldr	r1, [r1, #0]
    86d8:	1869      	adds	r1, r5, r1
    86da:	1858      	adds	r0, r3, r1
    86dc:	6019      	str	r1, [r3, #0]
    86de:	4282      	cmp	r2, r0
    86e0:	d114      	bne.n	870c <_free_r+0x84>
    86e2:	6810      	ldr	r0, [r2, #0]
    86e4:	6852      	ldr	r2, [r2, #4]
    86e6:	1841      	adds	r1, r0, r1
    86e8:	6019      	str	r1, [r3, #0]
    86ea:	605a      	str	r2, [r3, #4]
    86ec:	e00e      	b.n	870c <_free_r+0x84>
    86ee:	428c      	cmp	r4, r1
    86f0:	d902      	bls.n	86f8 <_free_r+0x70>
    86f2:	230c      	movs	r3, #12
    86f4:	6003      	str	r3, [r0, #0]
    86f6:	e009      	b.n	870c <_free_r+0x84>
    86f8:	6808      	ldr	r0, [r1, #0]
    86fa:	180c      	adds	r4, r1, r0
    86fc:	42a2      	cmp	r2, r4
    86fe:	d103      	bne.n	8708 <_free_r+0x80>
    8700:	6814      	ldr	r4, [r2, #0]
    8702:	6852      	ldr	r2, [r2, #4]
    8704:	1820      	adds	r0, r4, r0
    8706:	6008      	str	r0, [r1, #0]
    8708:	604a      	str	r2, [r1, #4]
    870a:	6059      	str	r1, [r3, #4]
    870c:	bd30      	pop	{r4, r5, pc}
    870e:	46c0      	nop			; (mov r8, r8)
    8710:	20000f8c 	.word	0x20000f8c

00008714 <_malloc_r>:
    8714:	2303      	movs	r3, #3
    8716:	b570      	push	{r4, r5, r6, lr}
    8718:	1ccd      	adds	r5, r1, #3
    871a:	439d      	bics	r5, r3
    871c:	3508      	adds	r5, #8
    871e:	0006      	movs	r6, r0
    8720:	2d0c      	cmp	r5, #12
    8722:	d201      	bcs.n	8728 <_malloc_r+0x14>
    8724:	250c      	movs	r5, #12
    8726:	e005      	b.n	8734 <_malloc_r+0x20>
    8728:	2d00      	cmp	r5, #0
    872a:	da03      	bge.n	8734 <_malloc_r+0x20>
    872c:	230c      	movs	r3, #12
    872e:	2000      	movs	r0, #0
    8730:	6033      	str	r3, [r6, #0]
    8732:	e040      	b.n	87b6 <_malloc_r+0xa2>
    8734:	42a9      	cmp	r1, r5
    8736:	d8f9      	bhi.n	872c <_malloc_r+0x18>
    8738:	4b1f      	ldr	r3, [pc, #124]	; (87b8 <_malloc_r+0xa4>)
    873a:	681c      	ldr	r4, [r3, #0]
    873c:	001a      	movs	r2, r3
    873e:	0021      	movs	r1, r4
    8740:	2900      	cmp	r1, #0
    8742:	d013      	beq.n	876c <_malloc_r+0x58>
    8744:	680b      	ldr	r3, [r1, #0]
    8746:	1b5b      	subs	r3, r3, r5
    8748:	d40d      	bmi.n	8766 <_malloc_r+0x52>
    874a:	2b0b      	cmp	r3, #11
    874c:	d902      	bls.n	8754 <_malloc_r+0x40>
    874e:	600b      	str	r3, [r1, #0]
    8750:	18cc      	adds	r4, r1, r3
    8752:	e01e      	b.n	8792 <_malloc_r+0x7e>
    8754:	428c      	cmp	r4, r1
    8756:	d102      	bne.n	875e <_malloc_r+0x4a>
    8758:	6863      	ldr	r3, [r4, #4]
    875a:	6013      	str	r3, [r2, #0]
    875c:	e01a      	b.n	8794 <_malloc_r+0x80>
    875e:	684b      	ldr	r3, [r1, #4]
    8760:	6063      	str	r3, [r4, #4]
    8762:	000c      	movs	r4, r1
    8764:	e016      	b.n	8794 <_malloc_r+0x80>
    8766:	000c      	movs	r4, r1
    8768:	6849      	ldr	r1, [r1, #4]
    876a:	e7e9      	b.n	8740 <_malloc_r+0x2c>
    876c:	4c13      	ldr	r4, [pc, #76]	; (87bc <_malloc_r+0xa8>)
    876e:	6823      	ldr	r3, [r4, #0]
    8770:	2b00      	cmp	r3, #0
    8772:	d103      	bne.n	877c <_malloc_r+0x68>
    8774:	0030      	movs	r0, r6
    8776:	f000 fb2d 	bl	8dd4 <_sbrk_r>
    877a:	6020      	str	r0, [r4, #0]
    877c:	0029      	movs	r1, r5
    877e:	0030      	movs	r0, r6
    8780:	f000 fb28 	bl	8dd4 <_sbrk_r>
    8784:	1c43      	adds	r3, r0, #1
    8786:	d0d1      	beq.n	872c <_malloc_r+0x18>
    8788:	2303      	movs	r3, #3
    878a:	1cc4      	adds	r4, r0, #3
    878c:	439c      	bics	r4, r3
    878e:	42a0      	cmp	r0, r4
    8790:	d10a      	bne.n	87a8 <_malloc_r+0x94>
    8792:	6025      	str	r5, [r4, #0]
    8794:	0020      	movs	r0, r4
    8796:	2207      	movs	r2, #7
    8798:	300b      	adds	r0, #11
    879a:	1d23      	adds	r3, r4, #4
    879c:	4390      	bics	r0, r2
    879e:	1ac3      	subs	r3, r0, r3
    87a0:	d009      	beq.n	87b6 <_malloc_r+0xa2>
    87a2:	425a      	negs	r2, r3
    87a4:	50e2      	str	r2, [r4, r3]
    87a6:	e006      	b.n	87b6 <_malloc_r+0xa2>
    87a8:	1a21      	subs	r1, r4, r0
    87aa:	0030      	movs	r0, r6
    87ac:	f000 fb12 	bl	8dd4 <_sbrk_r>
    87b0:	1c43      	adds	r3, r0, #1
    87b2:	d1ee      	bne.n	8792 <_malloc_r+0x7e>
    87b4:	e7ba      	b.n	872c <_malloc_r+0x18>
    87b6:	bd70      	pop	{r4, r5, r6, pc}
    87b8:	20000f8c 	.word	0x20000f8c
    87bc:	20000f88 	.word	0x20000f88

000087c0 <__sfputc_r>:
    87c0:	6893      	ldr	r3, [r2, #8]
    87c2:	b510      	push	{r4, lr}
    87c4:	3b01      	subs	r3, #1
    87c6:	6093      	str	r3, [r2, #8]
    87c8:	2b00      	cmp	r3, #0
    87ca:	da05      	bge.n	87d8 <__sfputc_r+0x18>
    87cc:	6994      	ldr	r4, [r2, #24]
    87ce:	42a3      	cmp	r3, r4
    87d0:	db08      	blt.n	87e4 <__sfputc_r+0x24>
    87d2:	b2cb      	uxtb	r3, r1
    87d4:	2b0a      	cmp	r3, #10
    87d6:	d005      	beq.n	87e4 <__sfputc_r+0x24>
    87d8:	6813      	ldr	r3, [r2, #0]
    87da:	1c58      	adds	r0, r3, #1
    87dc:	6010      	str	r0, [r2, #0]
    87de:	7019      	strb	r1, [r3, #0]
    87e0:	b2c8      	uxtb	r0, r1
    87e2:	e001      	b.n	87e8 <__sfputc_r+0x28>
    87e4:	f7ff fc8c 	bl	8100 <__swbuf_r>
    87e8:	bd10      	pop	{r4, pc}

000087ea <__sfputs_r>:
    87ea:	b5f8      	push	{r3, r4, r5, r6, r7, lr}
    87ec:	0006      	movs	r6, r0
    87ee:	000f      	movs	r7, r1
    87f0:	0014      	movs	r4, r2
    87f2:	18d5      	adds	r5, r2, r3
    87f4:	42ac      	cmp	r4, r5
    87f6:	d008      	beq.n	880a <__sfputs_r+0x20>
    87f8:	7821      	ldrb	r1, [r4, #0]
    87fa:	003a      	movs	r2, r7
    87fc:	0030      	movs	r0, r6
    87fe:	f7ff ffdf 	bl	87c0 <__sfputc_r>
    8802:	3401      	adds	r4, #1
    8804:	1c43      	adds	r3, r0, #1
    8806:	d1f5      	bne.n	87f4 <__sfputs_r+0xa>
    8808:	e000      	b.n	880c <__sfputs_r+0x22>
    880a:	2000      	movs	r0, #0
    880c:	bdf8      	pop	{r3, r4, r5, r6, r7, pc}
	...

00008810 <_vfiprintf_r>:
    8810:	b5f0      	push	{r4, r5, r6, r7, lr}
    8812:	b09f      	sub	sp, #124	; 0x7c
    8814:	0006      	movs	r6, r0
    8816:	000f      	movs	r7, r1
    8818:	9202      	str	r2, [sp, #8]
    881a:	9305      	str	r3, [sp, #20]
    881c:	2800      	cmp	r0, #0
    881e:	d004      	beq.n	882a <_vfiprintf_r+0x1a>
    8820:	6983      	ldr	r3, [r0, #24]
    8822:	2b00      	cmp	r3, #0
    8824:	d101      	bne.n	882a <_vfiprintf_r+0x1a>
    8826:	f7ff fe2d 	bl	8484 <__sinit>
    882a:	4b7f      	ldr	r3, [pc, #508]	; (8a28 <_vfiprintf_r+0x218>)
    882c:	429f      	cmp	r7, r3
    882e:	d101      	bne.n	8834 <_vfiprintf_r+0x24>
    8830:	6877      	ldr	r7, [r6, #4]
    8832:	e008      	b.n	8846 <_vfiprintf_r+0x36>
    8834:	4b7d      	ldr	r3, [pc, #500]	; (8a2c <_vfiprintf_r+0x21c>)
    8836:	429f      	cmp	r7, r3
    8838:	d101      	bne.n	883e <_vfiprintf_r+0x2e>
    883a:	68b7      	ldr	r7, [r6, #8]
    883c:	e003      	b.n	8846 <_vfiprintf_r+0x36>
    883e:	4b7c      	ldr	r3, [pc, #496]	; (8a30 <_vfiprintf_r+0x220>)
    8840:	429f      	cmp	r7, r3
    8842:	d100      	bne.n	8846 <_vfiprintf_r+0x36>
    8844:	68f7      	ldr	r7, [r6, #12]
    8846:	89bb      	ldrh	r3, [r7, #12]
    8848:	071b      	lsls	r3, r3, #28
    884a:	d50a      	bpl.n	8862 <_vfiprintf_r+0x52>
    884c:	693b      	ldr	r3, [r7, #16]
    884e:	2b00      	cmp	r3, #0
    8850:	d007      	beq.n	8862 <_vfiprintf_r+0x52>
    8852:	2300      	movs	r3, #0
    8854:	ad06      	add	r5, sp, #24
    8856:	616b      	str	r3, [r5, #20]
    8858:	3320      	adds	r3, #32
    885a:	766b      	strb	r3, [r5, #25]
    885c:	3310      	adds	r3, #16
    885e:	76ab      	strb	r3, [r5, #26]
    8860:	e03d      	b.n	88de <_vfiprintf_r+0xce>
    8862:	0039      	movs	r1, r7
    8864:	0030      	movs	r0, r6
    8866:	f7ff fca3 	bl	81b0 <__swsetup_r>
    886a:	2800      	cmp	r0, #0
    886c:	d0f1      	beq.n	8852 <_vfiprintf_r+0x42>
    886e:	2001      	movs	r0, #1
    8870:	4240      	negs	r0, r0
    8872:	e0d6      	b.n	8a22 <_vfiprintf_r+0x212>
    8874:	9a05      	ldr	r2, [sp, #20]
    8876:	1d11      	adds	r1, r2, #4
    8878:	6812      	ldr	r2, [r2, #0]
    887a:	9105      	str	r1, [sp, #20]
    887c:	2a00      	cmp	r2, #0
    887e:	da00      	bge.n	8882 <_vfiprintf_r+0x72>
    8880:	e07f      	b.n	8982 <_vfiprintf_r+0x172>
    8882:	9209      	str	r2, [sp, #36]	; 0x24
    8884:	3401      	adds	r4, #1
    8886:	7823      	ldrb	r3, [r4, #0]
    8888:	2b2e      	cmp	r3, #46	; 0x2e
    888a:	d100      	bne.n	888e <_vfiprintf_r+0x7e>
    888c:	e08d      	b.n	89aa <_vfiprintf_r+0x19a>
    888e:	7821      	ldrb	r1, [r4, #0]
    8890:	2203      	movs	r2, #3
    8892:	4868      	ldr	r0, [pc, #416]	; (8a34 <_vfiprintf_r+0x224>)
    8894:	f000 fb5a 	bl	8f4c <memchr>
    8898:	2800      	cmp	r0, #0
    889a:	d007      	beq.n	88ac <_vfiprintf_r+0x9c>
    889c:	4b65      	ldr	r3, [pc, #404]	; (8a34 <_vfiprintf_r+0x224>)
    889e:	682a      	ldr	r2, [r5, #0]
    88a0:	1ac0      	subs	r0, r0, r3
    88a2:	2340      	movs	r3, #64	; 0x40
    88a4:	4083      	lsls	r3, r0
    88a6:	4313      	orrs	r3, r2
    88a8:	602b      	str	r3, [r5, #0]
    88aa:	3401      	adds	r4, #1
    88ac:	7821      	ldrb	r1, [r4, #0]
    88ae:	1c63      	adds	r3, r4, #1
    88b0:	2206      	movs	r2, #6
    88b2:	4861      	ldr	r0, [pc, #388]	; (8a38 <_vfiprintf_r+0x228>)
    88b4:	9302      	str	r3, [sp, #8]
    88b6:	7629      	strb	r1, [r5, #24]
    88b8:	f000 fb48 	bl	8f4c <memchr>
    88bc:	2800      	cmp	r0, #0
    88be:	d100      	bne.n	88c2 <_vfiprintf_r+0xb2>
    88c0:	e09d      	b.n	89fe <_vfiprintf_r+0x1ee>
    88c2:	4b5e      	ldr	r3, [pc, #376]	; (8a3c <_vfiprintf_r+0x22c>)
    88c4:	2b00      	cmp	r3, #0
    88c6:	d000      	beq.n	88ca <_vfiprintf_r+0xba>
    88c8:	e090      	b.n	89ec <_vfiprintf_r+0x1dc>
    88ca:	2207      	movs	r2, #7
    88cc:	9b05      	ldr	r3, [sp, #20]
    88ce:	3307      	adds	r3, #7
    88d0:	4393      	bics	r3, r2
    88d2:	3308      	adds	r3, #8
    88d4:	9305      	str	r3, [sp, #20]
    88d6:	696b      	ldr	r3, [r5, #20]
    88d8:	9a03      	ldr	r2, [sp, #12]
    88da:	189b      	adds	r3, r3, r2
    88dc:	616b      	str	r3, [r5, #20]
    88de:	9c02      	ldr	r4, [sp, #8]
    88e0:	7823      	ldrb	r3, [r4, #0]
    88e2:	2b00      	cmp	r3, #0
    88e4:	d104      	bne.n	88f0 <_vfiprintf_r+0xe0>
    88e6:	9b02      	ldr	r3, [sp, #8]
    88e8:	1ae3      	subs	r3, r4, r3
    88ea:	9304      	str	r3, [sp, #16]
    88ec:	d012      	beq.n	8914 <_vfiprintf_r+0x104>
    88ee:	e003      	b.n	88f8 <_vfiprintf_r+0xe8>
    88f0:	2b25      	cmp	r3, #37	; 0x25
    88f2:	d0f8      	beq.n	88e6 <_vfiprintf_r+0xd6>
    88f4:	3401      	adds	r4, #1
    88f6:	e7f3      	b.n	88e0 <_vfiprintf_r+0xd0>
    88f8:	9b04      	ldr	r3, [sp, #16]
    88fa:	9a02      	ldr	r2, [sp, #8]
    88fc:	0039      	movs	r1, r7
    88fe:	0030      	movs	r0, r6
    8900:	f7ff ff73 	bl	87ea <__sfputs_r>
    8904:	1c43      	adds	r3, r0, #1
    8906:	d100      	bne.n	890a <_vfiprintf_r+0xfa>
    8908:	e086      	b.n	8a18 <_vfiprintf_r+0x208>
    890a:	696a      	ldr	r2, [r5, #20]
    890c:	9b04      	ldr	r3, [sp, #16]
    890e:	4694      	mov	ip, r2
    8910:	4463      	add	r3, ip
    8912:	616b      	str	r3, [r5, #20]
    8914:	7823      	ldrb	r3, [r4, #0]
    8916:	2b00      	cmp	r3, #0
    8918:	d07e      	beq.n	8a18 <_vfiprintf_r+0x208>
    891a:	2201      	movs	r2, #1
    891c:	2300      	movs	r3, #0
    891e:	4252      	negs	r2, r2
    8920:	606a      	str	r2, [r5, #4]
    8922:	a902      	add	r1, sp, #8
    8924:	3254      	adds	r2, #84	; 0x54
    8926:	1852      	adds	r2, r2, r1
    8928:	3401      	adds	r4, #1
    892a:	602b      	str	r3, [r5, #0]
    892c:	60eb      	str	r3, [r5, #12]
    892e:	60ab      	str	r3, [r5, #8]
    8930:	7013      	strb	r3, [r2, #0]
    8932:	65ab      	str	r3, [r5, #88]	; 0x58
    8934:	7821      	ldrb	r1, [r4, #0]
    8936:	2205      	movs	r2, #5
    8938:	4841      	ldr	r0, [pc, #260]	; (8a40 <_vfiprintf_r+0x230>)
    893a:	f000 fb07 	bl	8f4c <memchr>
    893e:	2800      	cmp	r0, #0
    8940:	d008      	beq.n	8954 <_vfiprintf_r+0x144>
    8942:	4b3f      	ldr	r3, [pc, #252]	; (8a40 <_vfiprintf_r+0x230>)
    8944:	682a      	ldr	r2, [r5, #0]
    8946:	1ac0      	subs	r0, r0, r3
    8948:	2301      	movs	r3, #1
    894a:	4083      	lsls	r3, r0
    894c:	4313      	orrs	r3, r2
    894e:	602b      	str	r3, [r5, #0]
    8950:	3401      	adds	r4, #1
    8952:	e7ef      	b.n	8934 <_vfiprintf_r+0x124>
    8954:	682b      	ldr	r3, [r5, #0]
    8956:	06da      	lsls	r2, r3, #27
    8958:	d504      	bpl.n	8964 <_vfiprintf_r+0x154>
    895a:	2253      	movs	r2, #83	; 0x53
    895c:	2120      	movs	r1, #32
    895e:	a802      	add	r0, sp, #8
    8960:	1812      	adds	r2, r2, r0
    8962:	7011      	strb	r1, [r2, #0]
    8964:	071a      	lsls	r2, r3, #28
    8966:	d504      	bpl.n	8972 <_vfiprintf_r+0x162>
    8968:	2253      	movs	r2, #83	; 0x53
    896a:	212b      	movs	r1, #43	; 0x2b
    896c:	a802      	add	r0, sp, #8
    896e:	1812      	adds	r2, r2, r0
    8970:	7011      	strb	r1, [r2, #0]
    8972:	7822      	ldrb	r2, [r4, #0]
    8974:	2a2a      	cmp	r2, #42	; 0x2a
    8976:	d100      	bne.n	897a <_vfiprintf_r+0x16a>
    8978:	e77c      	b.n	8874 <_vfiprintf_r+0x64>
    897a:	9b09      	ldr	r3, [sp, #36]	; 0x24
    897c:	2000      	movs	r0, #0
    897e:	210a      	movs	r1, #10
    8980:	e005      	b.n	898e <_vfiprintf_r+0x17e>
    8982:	4252      	negs	r2, r2
    8984:	60ea      	str	r2, [r5, #12]
    8986:	2202      	movs	r2, #2
    8988:	4313      	orrs	r3, r2
    898a:	602b      	str	r3, [r5, #0]
    898c:	e77a      	b.n	8884 <_vfiprintf_r+0x74>
    898e:	7822      	ldrb	r2, [r4, #0]
    8990:	3a30      	subs	r2, #48	; 0x30
    8992:	2a09      	cmp	r2, #9
    8994:	d804      	bhi.n	89a0 <_vfiprintf_r+0x190>
    8996:	434b      	muls	r3, r1
    8998:	3401      	adds	r4, #1
    899a:	189b      	adds	r3, r3, r2
    899c:	2001      	movs	r0, #1
    899e:	e7f6      	b.n	898e <_vfiprintf_r+0x17e>
    89a0:	2800      	cmp	r0, #0
    89a2:	d100      	bne.n	89a6 <_vfiprintf_r+0x196>
    89a4:	e76f      	b.n	8886 <_vfiprintf_r+0x76>
    89a6:	9309      	str	r3, [sp, #36]	; 0x24
    89a8:	e76d      	b.n	8886 <_vfiprintf_r+0x76>
    89aa:	7863      	ldrb	r3, [r4, #1]
    89ac:	2b2a      	cmp	r3, #42	; 0x2a
    89ae:	d10a      	bne.n	89c6 <_vfiprintf_r+0x1b6>
    89b0:	9b05      	ldr	r3, [sp, #20]
    89b2:	3402      	adds	r4, #2
    89b4:	1d1a      	adds	r2, r3, #4
    89b6:	681b      	ldr	r3, [r3, #0]
    89b8:	9205      	str	r2, [sp, #20]
    89ba:	2b00      	cmp	r3, #0
    89bc:	da01      	bge.n	89c2 <_vfiprintf_r+0x1b2>
    89be:	2301      	movs	r3, #1
    89c0:	425b      	negs	r3, r3
    89c2:	9307      	str	r3, [sp, #28]
    89c4:	e763      	b.n	888e <_vfiprintf_r+0x7e>
    89c6:	2300      	movs	r3, #0
    89c8:	200a      	movs	r0, #10
    89ca:	001a      	movs	r2, r3
    89cc:	3401      	adds	r4, #1
    89ce:	606b      	str	r3, [r5, #4]
    89d0:	7821      	ldrb	r1, [r4, #0]
    89d2:	3930      	subs	r1, #48	; 0x30
    89d4:	2909      	cmp	r1, #9
    89d6:	d804      	bhi.n	89e2 <_vfiprintf_r+0x1d2>
    89d8:	4342      	muls	r2, r0
    89da:	3401      	adds	r4, #1
    89dc:	1852      	adds	r2, r2, r1
    89de:	2301      	movs	r3, #1
    89e0:	e7f6      	b.n	89d0 <_vfiprintf_r+0x1c0>
    89e2:	2b00      	cmp	r3, #0
    89e4:	d100      	bne.n	89e8 <_vfiprintf_r+0x1d8>
    89e6:	e752      	b.n	888e <_vfiprintf_r+0x7e>
    89e8:	9207      	str	r2, [sp, #28]
    89ea:	e750      	b.n	888e <_vfiprintf_r+0x7e>
    89ec:	ab05      	add	r3, sp, #20
    89ee:	9300      	str	r3, [sp, #0]
    89f0:	003a      	movs	r2, r7
    89f2:	4b14      	ldr	r3, [pc, #80]	; (8a44 <_vfiprintf_r+0x234>)
    89f4:	0029      	movs	r1, r5
    89f6:	0030      	movs	r0, r6
    89f8:	e000      	b.n	89fc <_vfiprintf_r+0x1ec>
    89fa:	bf00      	nop
    89fc:	e007      	b.n	8a0e <_vfiprintf_r+0x1fe>
    89fe:	ab05      	add	r3, sp, #20
    8a00:	9300      	str	r3, [sp, #0]
    8a02:	003a      	movs	r2, r7
    8a04:	4b0f      	ldr	r3, [pc, #60]	; (8a44 <_vfiprintf_r+0x234>)
    8a06:	0029      	movs	r1, r5
    8a08:	0030      	movs	r0, r6
    8a0a:	f000 f88b 	bl	8b24 <_printf_i>
    8a0e:	9003      	str	r0, [sp, #12]
    8a10:	9b03      	ldr	r3, [sp, #12]
    8a12:	3301      	adds	r3, #1
    8a14:	d000      	beq.n	8a18 <_vfiprintf_r+0x208>
    8a16:	e75e      	b.n	88d6 <_vfiprintf_r+0xc6>
    8a18:	89bb      	ldrh	r3, [r7, #12]
    8a1a:	065b      	lsls	r3, r3, #25
    8a1c:	d500      	bpl.n	8a20 <_vfiprintf_r+0x210>
    8a1e:	e726      	b.n	886e <_vfiprintf_r+0x5e>
    8a20:	980b      	ldr	r0, [sp, #44]	; 0x2c
    8a22:	b01f      	add	sp, #124	; 0x7c
    8a24:	bdf0      	pop	{r4, r5, r6, r7, pc}
    8a26:	46c0      	nop			; (mov r8, r8)
    8a28:	0000ceb0 	.word	0x0000ceb0
    8a2c:	0000ced0 	.word	0x0000ced0
    8a30:	0000cef0 	.word	0x0000cef0
    8a34:	0000cf16 	.word	0x0000cf16
    8a38:	0000cf1a 	.word	0x0000cf1a
    8a3c:	00000000 	.word	0x00000000
    8a40:	0000cf10 	.word	0x0000cf10
    8a44:	000087eb 	.word	0x000087eb

00008a48 <_printf_common>:
    8a48:	b5f7      	push	{r0, r1, r2, r4, r5, r6, r7, lr}
    8a4a:	0017      	movs	r7, r2
    8a4c:	9301      	str	r3, [sp, #4]
    8a4e:	688a      	ldr	r2, [r1, #8]
    8a50:	690b      	ldr	r3, [r1, #16]
    8a52:	9000      	str	r0, [sp, #0]
    8a54:	000c      	movs	r4, r1
    8a56:	4293      	cmp	r3, r2
    8a58:	da00      	bge.n	8a5c <_printf_common+0x14>
    8a5a:	0013      	movs	r3, r2
    8a5c:	0022      	movs	r2, r4
    8a5e:	603b      	str	r3, [r7, #0]
    8a60:	3243      	adds	r2, #67	; 0x43
    8a62:	7812      	ldrb	r2, [r2, #0]
    8a64:	2a00      	cmp	r2, #0
    8a66:	d001      	beq.n	8a6c <_printf_common+0x24>
    8a68:	3301      	adds	r3, #1
    8a6a:	603b      	str	r3, [r7, #0]
    8a6c:	6823      	ldr	r3, [r4, #0]
    8a6e:	069b      	lsls	r3, r3, #26
    8a70:	d502      	bpl.n	8a78 <_printf_common+0x30>
    8a72:	683b      	ldr	r3, [r7, #0]
    8a74:	3302      	adds	r3, #2
    8a76:	603b      	str	r3, [r7, #0]
    8a78:	2506      	movs	r5, #6
    8a7a:	6823      	ldr	r3, [r4, #0]
    8a7c:	401d      	ands	r5, r3
    8a7e:	d01e      	beq.n	8abe <_printf_common+0x76>
    8a80:	0023      	movs	r3, r4
    8a82:	3343      	adds	r3, #67	; 0x43
    8a84:	781b      	ldrb	r3, [r3, #0]
    8a86:	1e5a      	subs	r2, r3, #1
    8a88:	4193      	sbcs	r3, r2
    8a8a:	6822      	ldr	r2, [r4, #0]
    8a8c:	0692      	lsls	r2, r2, #26
    8a8e:	d51c      	bpl.n	8aca <_printf_common+0x82>
    8a90:	2030      	movs	r0, #48	; 0x30
    8a92:	18e1      	adds	r1, r4, r3
    8a94:	3143      	adds	r1, #67	; 0x43
    8a96:	7008      	strb	r0, [r1, #0]
    8a98:	0021      	movs	r1, r4
    8a9a:	1c5a      	adds	r2, r3, #1
    8a9c:	3145      	adds	r1, #69	; 0x45
    8a9e:	7809      	ldrb	r1, [r1, #0]
    8aa0:	18a2      	adds	r2, r4, r2
    8aa2:	3243      	adds	r2, #67	; 0x43
    8aa4:	3302      	adds	r3, #2
    8aa6:	7011      	strb	r1, [r2, #0]
    8aa8:	e00f      	b.n	8aca <_printf_common+0x82>
    8aaa:	0022      	movs	r2, r4
    8aac:	2301      	movs	r3, #1
    8aae:	3219      	adds	r2, #25
    8ab0:	9901      	ldr	r1, [sp, #4]
    8ab2:	9800      	ldr	r0, [sp, #0]
    8ab4:	9e08      	ldr	r6, [sp, #32]
    8ab6:	47b0      	blx	r6
    8ab8:	1c43      	adds	r3, r0, #1
    8aba:	d00e      	beq.n	8ada <_printf_common+0x92>
    8abc:	3501      	adds	r5, #1
    8abe:	68e3      	ldr	r3, [r4, #12]
    8ac0:	683a      	ldr	r2, [r7, #0]
    8ac2:	1a9b      	subs	r3, r3, r2
    8ac4:	429d      	cmp	r5, r3
    8ac6:	dbf0      	blt.n	8aaa <_printf_common+0x62>
    8ac8:	e7da      	b.n	8a80 <_printf_common+0x38>
    8aca:	0022      	movs	r2, r4
    8acc:	9901      	ldr	r1, [sp, #4]
    8ace:	3243      	adds	r2, #67	; 0x43
    8ad0:	9800      	ldr	r0, [sp, #0]
    8ad2:	9d08      	ldr	r5, [sp, #32]
    8ad4:	47a8      	blx	r5
    8ad6:	1c43      	adds	r3, r0, #1
    8ad8:	d102      	bne.n	8ae0 <_printf_common+0x98>
    8ada:	2001      	movs	r0, #1
    8adc:	4240      	negs	r0, r0
    8ade:	e020      	b.n	8b22 <_printf_common+0xda>
    8ae0:	2306      	movs	r3, #6
    8ae2:	6820      	ldr	r0, [r4, #0]
    8ae4:	68e1      	ldr	r1, [r4, #12]
    8ae6:	683a      	ldr	r2, [r7, #0]
    8ae8:	4003      	ands	r3, r0
    8aea:	2500      	movs	r5, #0
    8aec:	2b04      	cmp	r3, #4
    8aee:	d103      	bne.n	8af8 <_printf_common+0xb0>
    8af0:	1a8d      	subs	r5, r1, r2
    8af2:	43eb      	mvns	r3, r5
    8af4:	17db      	asrs	r3, r3, #31
    8af6:	401d      	ands	r5, r3
    8af8:	68a3      	ldr	r3, [r4, #8]
    8afa:	6922      	ldr	r2, [r4, #16]
    8afc:	4293      	cmp	r3, r2
    8afe:	dd01      	ble.n	8b04 <_printf_common+0xbc>
    8b00:	1a9b      	subs	r3, r3, r2
    8b02:	18ed      	adds	r5, r5, r3
    8b04:	2700      	movs	r7, #0
    8b06:	42bd      	cmp	r5, r7
    8b08:	d00a      	beq.n	8b20 <_printf_common+0xd8>
    8b0a:	0022      	movs	r2, r4
    8b0c:	2301      	movs	r3, #1
    8b0e:	321a      	adds	r2, #26
    8b10:	9901      	ldr	r1, [sp, #4]
    8b12:	9800      	ldr	r0, [sp, #0]
    8b14:	9e08      	ldr	r6, [sp, #32]
    8b16:	47b0      	blx	r6
    8b18:	1c43      	adds	r3, r0, #1
    8b1a:	d0de      	beq.n	8ada <_printf_common+0x92>
    8b1c:	3701      	adds	r7, #1
    8b1e:	e7f2      	b.n	8b06 <_printf_common+0xbe>
    8b20:	2000      	movs	r0, #0
    8b22:	bdfe      	pop	{r1, r2, r3, r4, r5, r6, r7, pc}

00008b24 <_printf_i>:
    8b24:	b5f0      	push	{r4, r5, r6, r7, lr}
    8b26:	b08b      	sub	sp, #44	; 0x2c
    8b28:	9206      	str	r2, [sp, #24]
    8b2a:	000a      	movs	r2, r1
    8b2c:	3243      	adds	r2, #67	; 0x43
    8b2e:	9307      	str	r3, [sp, #28]
    8b30:	9005      	str	r0, [sp, #20]
    8b32:	9204      	str	r2, [sp, #16]
    8b34:	7e0a      	ldrb	r2, [r1, #24]
    8b36:	000c      	movs	r4, r1
    8b38:	9b10      	ldr	r3, [sp, #64]	; 0x40
    8b3a:	2a6e      	cmp	r2, #110	; 0x6e
    8b3c:	d100      	bne.n	8b40 <_printf_i+0x1c>
    8b3e:	e0ab      	b.n	8c98 <_printf_i+0x174>
    8b40:	d811      	bhi.n	8b66 <_printf_i+0x42>
    8b42:	2a63      	cmp	r2, #99	; 0x63
    8b44:	d022      	beq.n	8b8c <_printf_i+0x68>
    8b46:	d809      	bhi.n	8b5c <_printf_i+0x38>
    8b48:	2a00      	cmp	r2, #0
    8b4a:	d100      	bne.n	8b4e <_printf_i+0x2a>
    8b4c:	e0b5      	b.n	8cba <_printf_i+0x196>
    8b4e:	2a58      	cmp	r2, #88	; 0x58
    8b50:	d000      	beq.n	8b54 <_printf_i+0x30>
    8b52:	e0c5      	b.n	8ce0 <_printf_i+0x1bc>
    8b54:	3145      	adds	r1, #69	; 0x45
    8b56:	700a      	strb	r2, [r1, #0]
    8b58:	4a81      	ldr	r2, [pc, #516]	; (8d60 <_printf_i+0x23c>)
    8b5a:	e04f      	b.n	8bfc <_printf_i+0xd8>
    8b5c:	2a64      	cmp	r2, #100	; 0x64
    8b5e:	d01d      	beq.n	8b9c <_printf_i+0x78>
    8b60:	2a69      	cmp	r2, #105	; 0x69
    8b62:	d01b      	beq.n	8b9c <_printf_i+0x78>
    8b64:	e0bc      	b.n	8ce0 <_printf_i+0x1bc>
    8b66:	2a73      	cmp	r2, #115	; 0x73
    8b68:	d100      	bne.n	8b6c <_printf_i+0x48>
    8b6a:	e0aa      	b.n	8cc2 <_printf_i+0x19e>
    8b6c:	d809      	bhi.n	8b82 <_printf_i+0x5e>
    8b6e:	2a6f      	cmp	r2, #111	; 0x6f
    8b70:	d029      	beq.n	8bc6 <_printf_i+0xa2>
    8b72:	2a70      	cmp	r2, #112	; 0x70
    8b74:	d000      	beq.n	8b78 <_printf_i+0x54>
    8b76:	e0b3      	b.n	8ce0 <_printf_i+0x1bc>
    8b78:	2220      	movs	r2, #32
    8b7a:	6809      	ldr	r1, [r1, #0]
    8b7c:	430a      	orrs	r2, r1
    8b7e:	6022      	str	r2, [r4, #0]
    8b80:	e037      	b.n	8bf2 <_printf_i+0xce>
    8b82:	2a75      	cmp	r2, #117	; 0x75
    8b84:	d01f      	beq.n	8bc6 <_printf_i+0xa2>
    8b86:	2a78      	cmp	r2, #120	; 0x78
    8b88:	d033      	beq.n	8bf2 <_printf_i+0xce>
    8b8a:	e0a9      	b.n	8ce0 <_printf_i+0x1bc>
    8b8c:	000e      	movs	r6, r1
    8b8e:	681a      	ldr	r2, [r3, #0]
    8b90:	3642      	adds	r6, #66	; 0x42
    8b92:	1d11      	adds	r1, r2, #4
    8b94:	6019      	str	r1, [r3, #0]
    8b96:	6813      	ldr	r3, [r2, #0]
    8b98:	7033      	strb	r3, [r6, #0]
    8b9a:	e0a4      	b.n	8ce6 <_printf_i+0x1c2>
    8b9c:	6821      	ldr	r1, [r4, #0]
    8b9e:	681a      	ldr	r2, [r3, #0]
    8ba0:	0608      	lsls	r0, r1, #24
    8ba2:	d406      	bmi.n	8bb2 <_printf_i+0x8e>
    8ba4:	0649      	lsls	r1, r1, #25
    8ba6:	d504      	bpl.n	8bb2 <_printf_i+0x8e>
    8ba8:	1d11      	adds	r1, r2, #4
    8baa:	6019      	str	r1, [r3, #0]
    8bac:	2300      	movs	r3, #0
    8bae:	5ed5      	ldrsh	r5, [r2, r3]
    8bb0:	e002      	b.n	8bb8 <_printf_i+0x94>
    8bb2:	1d11      	adds	r1, r2, #4
    8bb4:	6019      	str	r1, [r3, #0]
    8bb6:	6815      	ldr	r5, [r2, #0]
    8bb8:	2d00      	cmp	r5, #0
    8bba:	da3b      	bge.n	8c34 <_printf_i+0x110>
    8bbc:	232d      	movs	r3, #45	; 0x2d
    8bbe:	9a04      	ldr	r2, [sp, #16]
    8bc0:	426d      	negs	r5, r5
    8bc2:	7013      	strb	r3, [r2, #0]
    8bc4:	e036      	b.n	8c34 <_printf_i+0x110>
    8bc6:	6821      	ldr	r1, [r4, #0]
    8bc8:	681a      	ldr	r2, [r3, #0]
    8bca:	0608      	lsls	r0, r1, #24
    8bcc:	d406      	bmi.n	8bdc <_printf_i+0xb8>
    8bce:	0649      	lsls	r1, r1, #25
    8bd0:	d504      	bpl.n	8bdc <_printf_i+0xb8>
    8bd2:	6815      	ldr	r5, [r2, #0]
    8bd4:	1d11      	adds	r1, r2, #4
    8bd6:	6019      	str	r1, [r3, #0]
    8bd8:	b2ad      	uxth	r5, r5
    8bda:	e002      	b.n	8be2 <_printf_i+0xbe>
    8bdc:	1d11      	adds	r1, r2, #4
    8bde:	6019      	str	r1, [r3, #0]
    8be0:	6815      	ldr	r5, [r2, #0]
    8be2:	4b5f      	ldr	r3, [pc, #380]	; (8d60 <_printf_i+0x23c>)
    8be4:	7e22      	ldrb	r2, [r4, #24]
    8be6:	9303      	str	r3, [sp, #12]
    8be8:	2708      	movs	r7, #8
    8bea:	2a6f      	cmp	r2, #111	; 0x6f
    8bec:	d01d      	beq.n	8c2a <_printf_i+0x106>
    8bee:	270a      	movs	r7, #10
    8bf0:	e01b      	b.n	8c2a <_printf_i+0x106>
    8bf2:	0022      	movs	r2, r4
    8bf4:	2178      	movs	r1, #120	; 0x78
    8bf6:	3245      	adds	r2, #69	; 0x45
    8bf8:	7011      	strb	r1, [r2, #0]
    8bfa:	4a5a      	ldr	r2, [pc, #360]	; (8d64 <_printf_i+0x240>)
    8bfc:	6819      	ldr	r1, [r3, #0]
    8bfe:	9203      	str	r2, [sp, #12]
    8c00:	1d08      	adds	r0, r1, #4
    8c02:	6822      	ldr	r2, [r4, #0]
    8c04:	6018      	str	r0, [r3, #0]
    8c06:	680d      	ldr	r5, [r1, #0]
    8c08:	0610      	lsls	r0, r2, #24
    8c0a:	d402      	bmi.n	8c12 <_printf_i+0xee>
    8c0c:	0650      	lsls	r0, r2, #25
    8c0e:	d500      	bpl.n	8c12 <_printf_i+0xee>
    8c10:	b2ad      	uxth	r5, r5
    8c12:	07d3      	lsls	r3, r2, #31
    8c14:	d502      	bpl.n	8c1c <_printf_i+0xf8>
    8c16:	2320      	movs	r3, #32
    8c18:	431a      	orrs	r2, r3
    8c1a:	6022      	str	r2, [r4, #0]
    8c1c:	2710      	movs	r7, #16
    8c1e:	2d00      	cmp	r5, #0
    8c20:	d103      	bne.n	8c2a <_printf_i+0x106>
    8c22:	2320      	movs	r3, #32
    8c24:	6822      	ldr	r2, [r4, #0]
    8c26:	439a      	bics	r2, r3
    8c28:	6022      	str	r2, [r4, #0]
    8c2a:	0023      	movs	r3, r4
    8c2c:	2200      	movs	r2, #0
    8c2e:	3343      	adds	r3, #67	; 0x43
    8c30:	701a      	strb	r2, [r3, #0]
    8c32:	e002      	b.n	8c3a <_printf_i+0x116>
    8c34:	270a      	movs	r7, #10
    8c36:	4b4a      	ldr	r3, [pc, #296]	; (8d60 <_printf_i+0x23c>)
    8c38:	9303      	str	r3, [sp, #12]
    8c3a:	6863      	ldr	r3, [r4, #4]
    8c3c:	60a3      	str	r3, [r4, #8]
    8c3e:	2b00      	cmp	r3, #0
    8c40:	db09      	blt.n	8c56 <_printf_i+0x132>
    8c42:	2204      	movs	r2, #4
    8c44:	6821      	ldr	r1, [r4, #0]
    8c46:	4391      	bics	r1, r2
    8c48:	6021      	str	r1, [r4, #0]
    8c4a:	2d00      	cmp	r5, #0
    8c4c:	d105      	bne.n	8c5a <_printf_i+0x136>
    8c4e:	9e04      	ldr	r6, [sp, #16]
    8c50:	2b00      	cmp	r3, #0
    8c52:	d011      	beq.n	8c78 <_printf_i+0x154>
    8c54:	e07b      	b.n	8d4e <_printf_i+0x22a>
    8c56:	2d00      	cmp	r5, #0
    8c58:	d079      	beq.n	8d4e <_printf_i+0x22a>
    8c5a:	9e04      	ldr	r6, [sp, #16]
    8c5c:	0028      	movs	r0, r5
    8c5e:	0039      	movs	r1, r7
    8c60:	f7ff f846 	bl	7cf0 <__aeabi_uidivmod>
    8c64:	9b03      	ldr	r3, [sp, #12]
    8c66:	3e01      	subs	r6, #1
    8c68:	5c5b      	ldrb	r3, [r3, r1]
    8c6a:	0028      	movs	r0, r5
    8c6c:	7033      	strb	r3, [r6, #0]
    8c6e:	0039      	movs	r1, r7
    8c70:	f7fe ffb8 	bl	7be4 <__aeabi_uidiv>
    8c74:	1e05      	subs	r5, r0, #0
    8c76:	d1f1      	bne.n	8c5c <_printf_i+0x138>
    8c78:	2f08      	cmp	r7, #8
    8c7a:	d109      	bne.n	8c90 <_printf_i+0x16c>
    8c7c:	6823      	ldr	r3, [r4, #0]
    8c7e:	07db      	lsls	r3, r3, #31
    8c80:	d506      	bpl.n	8c90 <_printf_i+0x16c>
    8c82:	6863      	ldr	r3, [r4, #4]
    8c84:	6922      	ldr	r2, [r4, #16]
    8c86:	4293      	cmp	r3, r2
    8c88:	dc02      	bgt.n	8c90 <_printf_i+0x16c>
    8c8a:	2330      	movs	r3, #48	; 0x30
    8c8c:	3e01      	subs	r6, #1
    8c8e:	7033      	strb	r3, [r6, #0]
    8c90:	9b04      	ldr	r3, [sp, #16]
    8c92:	1b9b      	subs	r3, r3, r6
    8c94:	6123      	str	r3, [r4, #16]
    8c96:	e02b      	b.n	8cf0 <_printf_i+0x1cc>
    8c98:	6809      	ldr	r1, [r1, #0]
    8c9a:	681a      	ldr	r2, [r3, #0]
    8c9c:	0608      	lsls	r0, r1, #24
    8c9e:	d407      	bmi.n	8cb0 <_printf_i+0x18c>
    8ca0:	0649      	lsls	r1, r1, #25
    8ca2:	d505      	bpl.n	8cb0 <_printf_i+0x18c>
    8ca4:	1d11      	adds	r1, r2, #4
    8ca6:	6019      	str	r1, [r3, #0]
    8ca8:	6813      	ldr	r3, [r2, #0]
    8caa:	8aa2      	ldrh	r2, [r4, #20]
    8cac:	801a      	strh	r2, [r3, #0]
    8cae:	e004      	b.n	8cba <_printf_i+0x196>
    8cb0:	1d11      	adds	r1, r2, #4
    8cb2:	6019      	str	r1, [r3, #0]
    8cb4:	6813      	ldr	r3, [r2, #0]
    8cb6:	6962      	ldr	r2, [r4, #20]
    8cb8:	601a      	str	r2, [r3, #0]
    8cba:	2300      	movs	r3, #0
    8cbc:	9e04      	ldr	r6, [sp, #16]
    8cbe:	6123      	str	r3, [r4, #16]
    8cc0:	e016      	b.n	8cf0 <_printf_i+0x1cc>
    8cc2:	681a      	ldr	r2, [r3, #0]
    8cc4:	1d11      	adds	r1, r2, #4
    8cc6:	6019      	str	r1, [r3, #0]
    8cc8:	6816      	ldr	r6, [r2, #0]
    8cca:	2100      	movs	r1, #0
    8ccc:	6862      	ldr	r2, [r4, #4]
    8cce:	0030      	movs	r0, r6
    8cd0:	f000 f93c 	bl	8f4c <memchr>
    8cd4:	2800      	cmp	r0, #0
    8cd6:	d001      	beq.n	8cdc <_printf_i+0x1b8>
    8cd8:	1b80      	subs	r0, r0, r6
    8cda:	6060      	str	r0, [r4, #4]
    8cdc:	6863      	ldr	r3, [r4, #4]
    8cde:	e003      	b.n	8ce8 <_printf_i+0x1c4>
    8ce0:	0026      	movs	r6, r4
    8ce2:	3642      	adds	r6, #66	; 0x42
    8ce4:	7032      	strb	r2, [r6, #0]
    8ce6:	2301      	movs	r3, #1
    8ce8:	6123      	str	r3, [r4, #16]
    8cea:	2300      	movs	r3, #0
    8cec:	9a04      	ldr	r2, [sp, #16]
    8cee:	7013      	strb	r3, [r2, #0]
    8cf0:	9b07      	ldr	r3, [sp, #28]
    8cf2:	aa09      	add	r2, sp, #36	; 0x24
    8cf4:	9300      	str	r3, [sp, #0]
    8cf6:	0021      	movs	r1, r4
    8cf8:	9b06      	ldr	r3, [sp, #24]
    8cfa:	9805      	ldr	r0, [sp, #20]
    8cfc:	f7ff fea4 	bl	8a48 <_printf_common>
    8d00:	1c43      	adds	r3, r0, #1
    8d02:	d102      	bne.n	8d0a <_printf_i+0x1e6>
    8d04:	2001      	movs	r0, #1
    8d06:	4240      	negs	r0, r0
    8d08:	e027      	b.n	8d5a <_printf_i+0x236>
    8d0a:	6923      	ldr	r3, [r4, #16]
    8d0c:	0032      	movs	r2, r6
    8d0e:	9906      	ldr	r1, [sp, #24]
    8d10:	9805      	ldr	r0, [sp, #20]
    8d12:	9d07      	ldr	r5, [sp, #28]
    8d14:	47a8      	blx	r5
    8d16:	1c43      	adds	r3, r0, #1
    8d18:	d0f4      	beq.n	8d04 <_printf_i+0x1e0>
    8d1a:	6823      	ldr	r3, [r4, #0]
    8d1c:	2500      	movs	r5, #0
    8d1e:	079b      	lsls	r3, r3, #30
    8d20:	d40f      	bmi.n	8d42 <_printf_i+0x21e>
    8d22:	9b09      	ldr	r3, [sp, #36]	; 0x24
    8d24:	68e0      	ldr	r0, [r4, #12]
    8d26:	4298      	cmp	r0, r3
    8d28:	da17      	bge.n	8d5a <_printf_i+0x236>
    8d2a:	0018      	movs	r0, r3
    8d2c:	e015      	b.n	8d5a <_printf_i+0x236>
    8d2e:	0022      	movs	r2, r4
    8d30:	2301      	movs	r3, #1
    8d32:	3219      	adds	r2, #25
    8d34:	9906      	ldr	r1, [sp, #24]
    8d36:	9805      	ldr	r0, [sp, #20]
    8d38:	9e07      	ldr	r6, [sp, #28]
    8d3a:	47b0      	blx	r6
    8d3c:	1c43      	adds	r3, r0, #1
    8d3e:	d0e1      	beq.n	8d04 <_printf_i+0x1e0>
    8d40:	3501      	adds	r5, #1
    8d42:	68e3      	ldr	r3, [r4, #12]
    8d44:	9a09      	ldr	r2, [sp, #36]	; 0x24
    8d46:	1a9b      	subs	r3, r3, r2
    8d48:	429d      	cmp	r5, r3
    8d4a:	dbf0      	blt.n	8d2e <_printf_i+0x20a>
    8d4c:	e7e9      	b.n	8d22 <_printf_i+0x1fe>
    8d4e:	0026      	movs	r6, r4
    8d50:	9b03      	ldr	r3, [sp, #12]
    8d52:	3642      	adds	r6, #66	; 0x42
    8d54:	781b      	ldrb	r3, [r3, #0]
    8d56:	7033      	strb	r3, [r6, #0]
    8d58:	e78e      	b.n	8c78 <_printf_i+0x154>
    8d5a:	b00b      	add	sp, #44	; 0x2c
    8d5c:	bdf0      	pop	{r4, r5, r6, r7, pc}
    8d5e:	46c0      	nop			; (mov r8, r8)
    8d60:	0000cf21 	.word	0x0000cf21
    8d64:	0000cf32 	.word	0x0000cf32

00008d68 <_putc_r>:
    8d68:	b570      	push	{r4, r5, r6, lr}
    8d6a:	0006      	movs	r6, r0
    8d6c:	000d      	movs	r5, r1
    8d6e:	0014      	movs	r4, r2
    8d70:	2800      	cmp	r0, #0
    8d72:	d004      	beq.n	8d7e <_putc_r+0x16>
    8d74:	6983      	ldr	r3, [r0, #24]
    8d76:	2b00      	cmp	r3, #0
    8d78:	d101      	bne.n	8d7e <_putc_r+0x16>
    8d7a:	f7ff fb83 	bl	8484 <__sinit>
    8d7e:	4b12      	ldr	r3, [pc, #72]	; (8dc8 <_putc_r+0x60>)
    8d80:	429c      	cmp	r4, r3
    8d82:	d101      	bne.n	8d88 <_putc_r+0x20>
    8d84:	6874      	ldr	r4, [r6, #4]
    8d86:	e008      	b.n	8d9a <_putc_r+0x32>
    8d88:	4b10      	ldr	r3, [pc, #64]	; (8dcc <_putc_r+0x64>)
    8d8a:	429c      	cmp	r4, r3
    8d8c:	d101      	bne.n	8d92 <_putc_r+0x2a>
    8d8e:	68b4      	ldr	r4, [r6, #8]
    8d90:	e003      	b.n	8d9a <_putc_r+0x32>
    8d92:	4b0f      	ldr	r3, [pc, #60]	; (8dd0 <_putc_r+0x68>)
    8d94:	429c      	cmp	r4, r3
    8d96:	d100      	bne.n	8d9a <_putc_r+0x32>
    8d98:	68f4      	ldr	r4, [r6, #12]
    8d9a:	68a3      	ldr	r3, [r4, #8]
    8d9c:	3b01      	subs	r3, #1
    8d9e:	60a3      	str	r3, [r4, #8]
    8da0:	2b00      	cmp	r3, #0
    8da2:	da05      	bge.n	8db0 <_putc_r+0x48>
    8da4:	69a2      	ldr	r2, [r4, #24]
    8da6:	4293      	cmp	r3, r2
    8da8:	db08      	blt.n	8dbc <_putc_r+0x54>
    8daa:	b2eb      	uxtb	r3, r5
    8dac:	2b0a      	cmp	r3, #10
    8dae:	d005      	beq.n	8dbc <_putc_r+0x54>
    8db0:	6823      	ldr	r3, [r4, #0]
    8db2:	b2e8      	uxtb	r0, r5
    8db4:	1c5a      	adds	r2, r3, #1
    8db6:	6022      	str	r2, [r4, #0]
    8db8:	701d      	strb	r5, [r3, #0]
    8dba:	e004      	b.n	8dc6 <_putc_r+0x5e>
    8dbc:	0022      	movs	r2, r4
    8dbe:	0029      	movs	r1, r5
    8dc0:	0030      	movs	r0, r6
    8dc2:	f7ff f99d 	bl	8100 <__swbuf_r>
    8dc6:	bd70      	pop	{r4, r5, r6, pc}
    8dc8:	0000ceb0 	.word	0x0000ceb0
    8dcc:	0000ced0 	.word	0x0000ced0
    8dd0:	0000cef0 	.word	0x0000cef0

00008dd4 <_sbrk_r>:
    8dd4:	2300      	movs	r3, #0
    8dd6:	b570      	push	{r4, r5, r6, lr}
    8dd8:	4c06      	ldr	r4, [pc, #24]	; (8df4 <_sbrk_r+0x20>)
    8dda:	0005      	movs	r5, r0
    8ddc:	0008      	movs	r0, r1
    8dde:	6023      	str	r3, [r4, #0]
    8de0:	f7f8 ffb4 	bl	1d4c <_sbrk>
    8de4:	1c43      	adds	r3, r0, #1
    8de6:	d103      	bne.n	8df0 <_sbrk_r+0x1c>
    8de8:	6823      	ldr	r3, [r4, #0]
    8dea:	2b00      	cmp	r3, #0
    8dec:	d000      	beq.n	8df0 <_sbrk_r+0x1c>
    8dee:	602b      	str	r3, [r5, #0]
    8df0:	bd70      	pop	{r4, r5, r6, pc}
    8df2:	46c0      	nop			; (mov r8, r8)
    8df4:	200023d4 	.word	0x200023d4

00008df8 <__sread>:
    8df8:	b570      	push	{r4, r5, r6, lr}
    8dfa:	000c      	movs	r4, r1
    8dfc:	250e      	movs	r5, #14
    8dfe:	5f49      	ldrsh	r1, [r1, r5]
    8e00:	f000 f8b0 	bl	8f64 <_read_r>
    8e04:	2800      	cmp	r0, #0
    8e06:	db03      	blt.n	8e10 <__sread+0x18>
    8e08:	6d63      	ldr	r3, [r4, #84]	; 0x54
    8e0a:	181b      	adds	r3, r3, r0
    8e0c:	6563      	str	r3, [r4, #84]	; 0x54
    8e0e:	e003      	b.n	8e18 <__sread+0x20>
    8e10:	89a2      	ldrh	r2, [r4, #12]
    8e12:	4b02      	ldr	r3, [pc, #8]	; (8e1c <__sread+0x24>)
    8e14:	4013      	ands	r3, r2
    8e16:	81a3      	strh	r3, [r4, #12]
    8e18:	bd70      	pop	{r4, r5, r6, pc}
    8e1a:	46c0      	nop			; (mov r8, r8)
    8e1c:	ffffefff 	.word	0xffffefff

00008e20 <__swrite>:
    8e20:	b5f8      	push	{r3, r4, r5, r6, r7, lr}
    8e22:	001f      	movs	r7, r3
    8e24:	898b      	ldrh	r3, [r1, #12]
    8e26:	0005      	movs	r5, r0
    8e28:	000c      	movs	r4, r1
    8e2a:	0016      	movs	r6, r2
    8e2c:	05db      	lsls	r3, r3, #23
    8e2e:	d505      	bpl.n	8e3c <__swrite+0x1c>
    8e30:	230e      	movs	r3, #14
    8e32:	5ec9      	ldrsh	r1, [r1, r3]
    8e34:	2200      	movs	r2, #0
    8e36:	2302      	movs	r3, #2
    8e38:	f000 f874 	bl	8f24 <_lseek_r>
    8e3c:	89a2      	ldrh	r2, [r4, #12]
    8e3e:	4b05      	ldr	r3, [pc, #20]	; (8e54 <__swrite+0x34>)
    8e40:	0028      	movs	r0, r5
    8e42:	4013      	ands	r3, r2
    8e44:	81a3      	strh	r3, [r4, #12]
    8e46:	0032      	movs	r2, r6
    8e48:	230e      	movs	r3, #14
    8e4a:	5ee1      	ldrsh	r1, [r4, r3]
    8e4c:	003b      	movs	r3, r7
    8e4e:	f000 f81f 	bl	8e90 <_write_r>
    8e52:	bdf8      	pop	{r3, r4, r5, r6, r7, pc}
    8e54:	ffffefff 	.word	0xffffefff

00008e58 <__sseek>:
    8e58:	b570      	push	{r4, r5, r6, lr}
    8e5a:	000c      	movs	r4, r1
    8e5c:	250e      	movs	r5, #14
    8e5e:	5f49      	ldrsh	r1, [r1, r5]
    8e60:	f000 f860 	bl	8f24 <_lseek_r>
    8e64:	89a3      	ldrh	r3, [r4, #12]
    8e66:	1c42      	adds	r2, r0, #1
    8e68:	d103      	bne.n	8e72 <__sseek+0x1a>
    8e6a:	4a05      	ldr	r2, [pc, #20]	; (8e80 <__sseek+0x28>)
    8e6c:	4013      	ands	r3, r2
    8e6e:	81a3      	strh	r3, [r4, #12]
    8e70:	e004      	b.n	8e7c <__sseek+0x24>
    8e72:	2280      	movs	r2, #128	; 0x80
    8e74:	0152      	lsls	r2, r2, #5
    8e76:	4313      	orrs	r3, r2
    8e78:	81a3      	strh	r3, [r4, #12]
    8e7a:	6560      	str	r0, [r4, #84]	; 0x54
    8e7c:	bd70      	pop	{r4, r5, r6, pc}
    8e7e:	46c0      	nop			; (mov r8, r8)
    8e80:	ffffefff 	.word	0xffffefff

00008e84 <__sclose>:
    8e84:	b510      	push	{r4, lr}
    8e86:	230e      	movs	r3, #14
    8e88:	5ec9      	ldrsh	r1, [r1, r3]
    8e8a:	f000 f815 	bl	8eb8 <_close_r>
    8e8e:	bd10      	pop	{r4, pc}

00008e90 <_write_r>:
    8e90:	b570      	push	{r4, r5, r6, lr}
    8e92:	0005      	movs	r5, r0
    8e94:	0008      	movs	r0, r1
    8e96:	0011      	movs	r1, r2
    8e98:	2200      	movs	r2, #0
    8e9a:	4c06      	ldr	r4, [pc, #24]	; (8eb4 <_write_r+0x24>)
    8e9c:	6022      	str	r2, [r4, #0]
    8e9e:	001a      	movs	r2, r3
    8ea0:	f7f8 ff2c 	bl	1cfc <_write>
    8ea4:	1c43      	adds	r3, r0, #1
    8ea6:	d103      	bne.n	8eb0 <_write_r+0x20>
    8ea8:	6823      	ldr	r3, [r4, #0]
    8eaa:	2b00      	cmp	r3, #0
    8eac:	d000      	beq.n	8eb0 <_write_r+0x20>
    8eae:	602b      	str	r3, [r5, #0]
    8eb0:	bd70      	pop	{r4, r5, r6, pc}
    8eb2:	46c0      	nop			; (mov r8, r8)
    8eb4:	200023d4 	.word	0x200023d4

00008eb8 <_close_r>:
    8eb8:	2300      	movs	r3, #0
    8eba:	b570      	push	{r4, r5, r6, lr}
    8ebc:	4c06      	ldr	r4, [pc, #24]	; (8ed8 <_close_r+0x20>)
    8ebe:	0005      	movs	r5, r0
    8ec0:	0008      	movs	r0, r1
    8ec2:	6023      	str	r3, [r4, #0]
    8ec4:	f7f8 ff54 	bl	1d70 <_close>
    8ec8:	1c43      	adds	r3, r0, #1
    8eca:	d103      	bne.n	8ed4 <_close_r+0x1c>
    8ecc:	6823      	ldr	r3, [r4, #0]
    8ece:	2b00      	cmp	r3, #0
    8ed0:	d000      	beq.n	8ed4 <_close_r+0x1c>
    8ed2:	602b      	str	r3, [r5, #0]
    8ed4:	bd70      	pop	{r4, r5, r6, pc}
    8ed6:	46c0      	nop			; (mov r8, r8)
    8ed8:	200023d4 	.word	0x200023d4

00008edc <_fstat_r>:
    8edc:	2300      	movs	r3, #0
    8ede:	b570      	push	{r4, r5, r6, lr}
    8ee0:	4c06      	ldr	r4, [pc, #24]	; (8efc <_fstat_r+0x20>)
    8ee2:	0005      	movs	r5, r0
    8ee4:	0008      	movs	r0, r1
    8ee6:	0011      	movs	r1, r2
    8ee8:	6023      	str	r3, [r4, #0]
    8eea:	f7f8 ff45 	bl	1d78 <_fstat>
    8eee:	1c43      	adds	r3, r0, #1
    8ef0:	d103      	bne.n	8efa <_fstat_r+0x1e>
    8ef2:	6823      	ldr	r3, [r4, #0]
    8ef4:	2b00      	cmp	r3, #0
    8ef6:	d000      	beq.n	8efa <_fstat_r+0x1e>
    8ef8:	602b      	str	r3, [r5, #0]
    8efa:	bd70      	pop	{r4, r5, r6, pc}
    8efc:	200023d4 	.word	0x200023d4

00008f00 <_isatty_r>:
    8f00:	2300      	movs	r3, #0
    8f02:	b570      	push	{r4, r5, r6, lr}
    8f04:	4c06      	ldr	r4, [pc, #24]	; (8f20 <_isatty_r+0x20>)
    8f06:	0005      	movs	r5, r0
    8f08:	0008      	movs	r0, r1
    8f0a:	6023      	str	r3, [r4, #0]
    8f0c:	f7f8 ff3a 	bl	1d84 <_isatty>
    8f10:	1c43      	adds	r3, r0, #1
    8f12:	d103      	bne.n	8f1c <_isatty_r+0x1c>
    8f14:	6823      	ldr	r3, [r4, #0]
    8f16:	2b00      	cmp	r3, #0
    8f18:	d000      	beq.n	8f1c <_isatty_r+0x1c>
    8f1a:	602b      	str	r3, [r5, #0]
    8f1c:	bd70      	pop	{r4, r5, r6, pc}
    8f1e:	46c0      	nop			; (mov r8, r8)
    8f20:	200023d4 	.word	0x200023d4

00008f24 <_lseek_r>:
    8f24:	b570      	push	{r4, r5, r6, lr}
    8f26:	0005      	movs	r5, r0
    8f28:	0008      	movs	r0, r1
    8f2a:	0011      	movs	r1, r2
    8f2c:	2200      	movs	r2, #0
    8f2e:	4c06      	ldr	r4, [pc, #24]	; (8f48 <_lseek_r+0x24>)
    8f30:	6022      	str	r2, [r4, #0]
    8f32:	001a      	movs	r2, r3
    8f34:	f7f8 ff28 	bl	1d88 <_lseek>
    8f38:	1c43      	adds	r3, r0, #1
    8f3a:	d103      	bne.n	8f44 <_lseek_r+0x20>
    8f3c:	6823      	ldr	r3, [r4, #0]
    8f3e:	2b00      	cmp	r3, #0
    8f40:	d000      	beq.n	8f44 <_lseek_r+0x20>
    8f42:	602b      	str	r3, [r5, #0]
    8f44:	bd70      	pop	{r4, r5, r6, pc}
    8f46:	46c0      	nop			; (mov r8, r8)
    8f48:	200023d4 	.word	0x200023d4

00008f4c <memchr>:
    8f4c:	b2c9      	uxtb	r1, r1
    8f4e:	1882      	adds	r2, r0, r2
    8f50:	4290      	cmp	r0, r2
    8f52:	d004      	beq.n	8f5e <memchr+0x12>
    8f54:	7803      	ldrb	r3, [r0, #0]
    8f56:	428b      	cmp	r3, r1
    8f58:	d002      	beq.n	8f60 <memchr+0x14>
    8f5a:	3001      	adds	r0, #1
    8f5c:	e7f8      	b.n	8f50 <memchr+0x4>
    8f5e:	2000      	movs	r0, #0
    8f60:	4770      	bx	lr
	...

00008f64 <_read_r>:
    8f64:	b570      	push	{r4, r5, r6, lr}
    8f66:	0005      	movs	r5, r0
    8f68:	0008      	movs	r0, r1
    8f6a:	0011      	movs	r1, r2
    8f6c:	2200      	movs	r2, #0
    8f6e:	4c06      	ldr	r4, [pc, #24]	; (8f88 <_read_r+0x24>)
    8f70:	6022      	str	r2, [r4, #0]
    8f72:	001a      	movs	r2, r3
    8f74:	f7f8 fea2 	bl	1cbc <_read>
    8f78:	1c43      	adds	r3, r0, #1
    8f7a:	d103      	bne.n	8f84 <_read_r+0x20>
    8f7c:	6823      	ldr	r3, [r4, #0]
    8f7e:	2b00      	cmp	r3, #0
    8f80:	d000      	beq.n	8f84 <_read_r+0x20>
    8f82:	602b      	str	r3, [r5, #0]
    8f84:	bd70      	pop	{r4, r5, r6, pc}
    8f86:	46c0      	nop			; (mov r8, r8)
    8f88:	200023d4 	.word	0x200023d4
    8f8c:	42000800 	.word	0x42000800
    8f90:	42000c00 	.word	0x42000c00
    8f94:	42001000 	.word	0x42001000
    8f98:	42001400 	.word	0x42001400
    8f9c:	42001800 	.word	0x42001800
    8fa0:	42001c00 	.word	0x42001c00
    8fa4:	0c0b0a09 	.word	0x0c0b0a09
    8fa8:	00000e0d 	.word	0x00000e0d
    8fac:	00000fe2 	.word	0x00000fe2
    8fb0:	00000fde 	.word	0x00000fde
    8fb4:	00000fde 	.word	0x00000fde
    8fb8:	0000103c 	.word	0x0000103c
    8fbc:	0000103c 	.word	0x0000103c
    8fc0:	00000ff6 	.word	0x00000ff6
    8fc4:	00000fe8 	.word	0x00000fe8
    8fc8:	00000ffc 	.word	0x00000ffc
    8fcc:	0000102a 	.word	0x0000102a
    8fd0:	00001224 	.word	0x00001224
    8fd4:	00001204 	.word	0x00001204
    8fd8:	00001204 	.word	0x00001204
    8fdc:	00001290 	.word	0x00001290
    8fe0:	00001216 	.word	0x00001216
    8fe4:	00001232 	.word	0x00001232
    8fe8:	00001208 	.word	0x00001208
    8fec:	00001240 	.word	0x00001240
    8ff0:	00001280 	.word	0x00001280
    8ff4:	42002c00 	.word	0x42002c00
    8ff8:	42003000 	.word	0x42003000
    8ffc:	42003400 	.word	0x42003400
    9000:	42003800 	.word	0x42003800
    9004:	42003c00 	.word	0x42003c00
    9008:	1d1c1c1b 	.word	0x1d1c1c1b
    900c:	0000001d 	.word	0x0000001d
    9010:	10000800 	.word	0x10000800
    9014:	40002000 	.word	0x40002000
    9018:	00008000 	.word	0x00008000
	...

00009028 <csc_gap_handle>:
	...
    903c:	00002071 0000205d 00000000 00000000     q ..] ..........
    904c:	00002089 00000000 00000000 00000000     . ..............
    905c:	00000000 00002089 00000000 00000000     ..... ..........
	...
    9074:	0000000d 61460a0d 64656c69 206f7420     ......Failed to 
    9084:	646e6573 61686320 74636172 73697265     send characteris
    9094:	20636974 74697257 65522065 73657571     tic Write Reques
    90a4:	00000074 625f7461 635f656c 61726168     t...at_ble_chara
    90b4:	72657463 69747369 61765f63 5f65756c     cteristic_value_
    90c4:	20746567 756c6176 65672065 61662074     get value get fa
    90d4:	64656c69 00000000 6c696146 74206465     iled....Failed t
    90e4:	6564206f 656e6966 65687420 69727020     o define the pri
    90f4:	7972616d 72657320 65636976 00000000     mary service....
    9104:	20454c42 63616542 61206e6f 72657664     BLE Beacon adver
    9114:	65736974 746e656d 74616420 65732061     tisement data se
    9124:	61662074 64656c69 00000000 625f7461     t failed....at_b
    9134:	635f656c 61726168 72657463 69747369     le_characteristi
    9144:	61765f63 5f65756c 20746573 756c6176     c_value_set valu
    9154:	65732065 61662074 64656c69 00000000     e set failed....
    9164:	625f7461 6e5f656c 6669746f 74616369     at_ble_notificat
    9174:	5f6e6f69 646e6573 61662020 64656c69     ion_send  failed
    9184:	00000000 20454c42 65766461 73697472     ....BLE advertis
    9194:	6e656d65 61662074 64656c69 00000000     ement failed....
    91a4:	65766441 73697472 6e656d65 74732074     Advertisement st
    91b4:	65747261 00000064 20202020 20202020     arted...        
    91c4:	00002020                                  ..

000091c8 <csc_gatt_server_handle>:
    91c8:	0000206d 00000000 000020e9 00000000     m ....... ......
	...
    91f0:	0000237c 0000237e 00002364 00002364     |#..~#..d#..d#..
    9200:	00002364 0000237c 00002364 00002364     d#..|#..d#..d#..
    9210:	00002ee2 00002f56 00002eca 00002f5c     ....V/......\/..
    9220:	00002ed0 00002ed6 00002edc 00003204     .............2..
    9230:	00003204 00003204 00003204 00003204     .2...2...2...2..
    9240:	00003204 00003204 00003204 00003204     .2...2...2...2..
    9250:	00003204 00003204 00003204 00003204     .2...2...2...2..
    9260:	00003204 00003204 00003204 00003204     .2...2...2...2..
    9270:	00003204 00003204 00003222 00003222     .2...2.."2.."2..
    9280:	00003222 00003222 00003222 00003222     "2.."2.."2.."2..
    9290:	00003222 00003222 00003222 00003222     "2.."2.."2.."2..
    92a0:	00003244 00003244 00003244 00003244     D2..D2..D2..D2..
    92b0:	00003244 00003244 00003244 00003244     D2..D2..D2..D2..
    92c0:	00003244 00003244 00003266 00003266     D2..D2..f2..f2..
    92d0:	00003266 00003266 00003266 00003266     f2..f2..f2..f2..
    92e0:	00003280 00003280 00003280 00003280     .2...2...2...2..
    92f0:	00003280 00003280 00003280 00003280     .2...2...2...2..
    9300:	00003280 0000329a 0000329a 000032bc     .2...2...2...2..
    9310:	000032bc 000032bc 34333231 00003635     .2...2..123456..
    9320:	efcdab00 00efcdab a5d5c51b 85a60002     ................
    9330:	393511e5 fd5abba0 00000000 b2d60600     ..59..Z.........
    9340:	f8f005f0 00000000                       ........

00009348 <ble_mgr_gatt_server_handle>:
	...
    9360:	000022c1 000022fd 000022c5 00000000     ."..."..."......
    9370:	6e616353 676e696e 61662020 64656c69     Scanning  failed
    9380:	00000000 2055544d 6e616843 46206567     ....MTU Change F
    9390:	656c6961 43202c64 656e6e6f 6f697463     ailed, Connectio
    93a0:	6148206e 656c646e 2c64253a 65704f20     n Handle:%d, Ope
    93b0:	69746172 253a6e6f 00000064 69766544     ration:%d...Devi
    93c0:	64206563 6f637369 63656e6e 20646574     ce disconnected 
    93d0:	73616552 303a6e6f 32302578 61482078     Reason:0x%02x Ha
    93e0:	656c646e 2578303d 00000078 72636e45     ndle=0x%x...Encr
    93f0:	69747079 66206e6f 656c6961 00000064     yption failed...
    9400:	72636e45 69747079 63206e6f 6c706d6f     Encryption compl
    9410:	64657465 63757320 73736563 6c6c7566     eted successfull
    9420:	00000079 20454c42 69766544 6e206563     y...BLE Device n
    9430:	6620746f 646e756f 636e6520 74707972     ot found encrypt
    9440:	206e6f69 6f666e69 00000000 6f666e49     ion info....Info
    9450:	78616d3a 6d756d69 2e6f6e20 7320666f     :maximum no.of s
    9460:	206e6163 69766564 72206563 68636165     can device reach
    9470:	2e2e6465 6f74532e 6e697070 63532067     ed...Stopping Sc
    9480:	00006e61 6c696146 74206465 7473206f     an..Failed to st
    9490:	7320706f 6e6e6163 00676e69 72696150     op scanning.Pair
    94a0:	20676e69 6c696166 2e2e6465 7369442e     ing failed...Dis
    94b0:	6e6e6f63 69746365 0000676e 63736944     connecting..Disc
    94c0:	656e6e6f 52207463 65757165 46207473     onnect Request F
    94d0:	656c6961 00000064 72696150 20676e69     ailed...Pairing 
    94e0:	636f7270 72756465 6f632065 656c706d     procedure comple
    94f0:	20646574 63637573 66737365 796c6c75     ted successfully
    9500:	00000000 20454c42 69766544 6e206563     ....BLE Device n
    9510:	6620746f 646e756f 206f7420 726f7473     ot found to stor
    9520:	68742065 61702065 6e697269 6e692067     e the pairing in
    9530:	00006f66 6e6e6f43 65746365 6f742064     fo..Connected to
    9540:	65657020 65642072 65636976 74697720      peer device wit
    9550:	64612068 73657264 78302073 78323025     h address 0x%02x
    9560:	78323025 78323025 78323025 78323025     %02x%02x%02x%02x
    9570:	78323025 00000000 6e6e6f43 69746365     %02x....Connecti
    9580:	48206e6f 6c646e61 64252065 00000000     on Handle %d....
    9590:	6f736552 6e69766c 61522067 6d6f646e     Resolving Random
    95a0:	64646120 73736572 69616620 2a64656c      address failed*
    95b0:	0000002a 2078614d 626d756e 6f207265     *...Max number o
    95c0:	6f632066 63656e6e 6e6f6974 61657220     f connection rea
    95d0:	64656863 6425203a 3d3d3d20 7369443e     ched: %d ===>Dis
    95e0:	6e6e6f63 69746365 2e2e676e 0000002e     connecting......
    95f0:	69766544 43206563 656e6e6f 6f697463     Device Connectio
    9600:	6146206e 64656c69 53202d20 75746174     n Failed - Statu
    9610:	25203a73 00000064 72636e45 69747079     s: %d...Encrypti
    9620:	4e206e6f 7320746f 74726174 00006465     on Not started..
    9630:	76616c53 65532065 69727563 52207974     Slave Security R
    9640:	2d207165 74754120 746e6568 74616369     eq - Authenticat
    9650:	206e6f69 6c696146 00006465 72696150     ion Failed..Pair
    9660:	71655220 74736575 41202d20 65687475      Request - Authe
    9670:	6369746e 6f697461 6146206e 64656c69     ntication Failed
    9680:	00000000 65746e45 68742072 61502065     ....Enter the Pa
    9690:	656b7373 2d362879 69676944 69202974     sskey(6-Digit) i
    96a0:	6554206e 6e696d72 003a6c61 206e6950     n Terminal:.Pin 
    96b0:	656d6954 0074756f 63736944 656e6e6f     Timeout.Disconne
    96c0:	6e697463 2e2e2067 0000002e 61656c50     cting ......Plea
    96d0:	45206573 7265746e 65687420 6c6f6620     se Enter the fol
    96e0:	69776f6c 5020676e 2d737361 65646f63     lowing Pass-code
    96f0:	206e6f28 6568746f 65442072 65636976     (on other Device
    9700:	00003a29 72696150 79656b2d 70657220     ):..Pair-key rep
    9710:	6620796c 656c6961 00000064 20424f4f     ly failed...OOB 
    9720:	74616546 20657275 20746f4e 70707573     Feature Not supp
    9730:	6574726f 00000064 65746e45 20646572     orted...Entered 
    9740:	73736150 646f632d 00003a65 72696150     Pass-code:..Pair
    9750:	20676e69 6f666e69 74616d72 206e6f69     ing information 
    9760:	7020666f 20726565 69766564 69206563     of peer device i
    9770:	6f6e2073 76612074 616c6961 2e656c62     s not available.
    9780:	00000000 61656c50 75206573 6961706e     ....Please unpai
    9790:	68742072 65642065 65636976 6f726620     r the device fro
    97a0:	6570206d 64207265 63697665 6f6d2865     m peer device(mo
    97b0:	656c6962 65732029 6e697474 6d207367     bile) settings m
    97c0:	20756e65 20646e61 72617473 61702074     enu and start pa
    97d0:	6e697269 67612067 006e6961 72636e45     iring again.Encr
    97e0:	69747079 52206e6f 65757165 52207473     yption Request R
    97f0:	796c7065 69614620 0064656c 74696e49     eply Failed.Init
    9800:	696c6169 676e697a 4c544220 30303143     ializing BTLC100
    9810:	00000030 434c5442 30303031 696e4920     0...BTLC1000 Ini
    9820:	6c616974 74617a69 206e6f69 6c696166     tialization fail
    9830:	00006465 61656c50 63206573 6b636568     ed..Please check
    9840:	65687420 776f7020 61207265 6320646e      the power and c
    9850:	656e6e6f 6f697463 202f206e 64726168     onnection / hard
    9860:	65726177 6e6f6320 7463656e 0000726f     ware connector..
    9870:	472d5242 61727261 00000000 69766544     BR-Garra....Devi
    9880:	6e206563 20656d61 20746573 6c696166     ce name set fail
    9890:	00006465 61204442 65726464 67207373     ed..BD address g
    98a0:	66207465 656c6961 00000064 41204442     et failed...BD A
    98b0:	65726464 303a7373 32302578 32302558     ddress:0x%02X%02
    98c0:	32302558 32302558 32302558 32302558     X%02X%02X%02X%02
    98d0:	41202c58 65726464 54207373 3a657079     X, Address Type:
    98e0:	00006425 20746553 20454c42 69766544     %d..Set BLE Devi
    98f0:	63206563 69666e6f 61727567 6e6f6974     ce configuration
    9900:	69616620 0064656c 20746553 20454c42      failed.Set BLE 
    9910:	69766544 41206563 65726464 66207373     Device Address f
    9920:	656c6961 00000064 6e616353 676e696e     ailed...Scanning
    9930:	502e2e2e 7361656c 61772065 2e2e7469     ...Please wait..
    9940:	0000002e 20454c42 65766441 73697472     ....BLE Advertis
    9950:	6e656d65 61642074 73206174 66207465     ement data set f
    9960:	656c6961 00000064                       ailed...

00009968 <ble_mgr_gap_handle>:
    9968:	000022bd 00002479 000022d5 00000000     ."..y$..."......
    9978:	00000000 00002625 0000232d 000022d1     ....%&..-#..."..
    9988:	0000293d 000024f9 00002b35 00002955     =)...$..5+..U)..
    9998:	00002c85 00002dcd 000023b5 0000283d     .,...-...#..=(..
	...

000099b4 <tc_interrupt_vectors.12755>:
    99b4:	15141312 00000016                       ........

000099bc <app_gap_handle>:
	...
    99d0:	000039ad 000039b1 00000000 00000000     .9...9..........
	...

00009a08 <__FUNCTION__.7971>:
    9a08:	646e6168 625f656c 655f656c 746e6576     handle_ble_event
    9a18:	42494c00 20294528 36312d25 30252873     .LIB(E) %-16s(%0
    9a28:	20296433 73323325 3a202928 2e2e0020     3d) %32s() : ...
    9a38:	2f2e2e2f 2e2f2e2e 6c622f2e 74735f65     /../../../ble_st
    9a48:	2f6b6361 5f697061 65726f63 6576652f     ack/api_core/eve
    9a58:	632e746e 686e5500 6c646e61 0a3a6465     nt.c.Unhandled:.
    9a68:	63727309 3a64695f 30257830 090a7834     .src_id:0x%04x..
    9a78:	5f67736d 303a6469 34302578 41000a78     msg_id:0x%04x..A
    9a88:	6c656d74 726f4320 74612e70                       tmel Corp.

00009a92 <__FUNCTION__.7955>:
    9a92:	625f7461 735f656c 645f7465 635f7665     at_ble_set_dev_c
    9aa2:	69666e6f 74610067                                onfig.

00009aa8 <__FUNCTION__.8096>:
    9aa8:	625f7461 635f656c 5f6e6e6f 61647075     at_ble_conn_upda
    9ab8:	725f6574 796c7065 01030000                       te_reply.

00009ac1 <CSWTCH.64>:
    9ac1:	03010300 03030303 03030303 2e020303     ................
    9ad1:	2e2e2f2e 2f2e2e2f 622f2e2e 735f656c     ./../../../ble_s
    9ae1:	6b636174 6970612f 726f635f 61672f65     tack/api_core/ga
    9af1:	00632e70 61766e49 2064696c 61726150     p.c.Invalid Para
    9b01:	6574656d 65207372 726f7272 61745300     meters error.Sta
    9b11:	20737574 7830203a 58323025 6e49000a     tus : 0x%02X..In
    9b21:	696c6176 61502064 656d6172 73726574     valid Parameters
    9b31:	6b6e5500 6e776f6e 64646120 73736572     .Unknown address
    9b41:	70797420 78302065 3e32253c 55000a0d      type 0x<%2>...U
    9b51:	6f6e6b6e 64206e77 63697665 6f722065     nknown device ro
    9b61:	3020656c 32253c78 000a0d3e 2055544d     le 0x<%2>...MTU 
    9b71:	756c6156 78652065 64656563 78616d20     Value exceed max
    9b81:	6d756d69 6c6c6120 6465776f 6c617620     imum allowed val
    9b91:	0d206575 6e69000a 66726574 5f656361     ue ...interface_
    9ba1:	74696e69 2e2e2e20 25783020 0d583230     init ... 0x%02X.
    9bb1:	6e55000a 656c6261 206f7420 65736572     ..Unable to rese
    9bc1:	253c2074 3e583230 61000a0d 6c625f74     t <%02X>...at_bl
    9bd1:	65735f65 65645f74 6f635f76 6769666e     e_set_dev_config
    9be1:	2e2e2e20 25783020 0d583230 6e55000a      ... 0x%02X...Un
    9bf1:	656c6261 206f7420 20746573 61666564     able to set defa
    9c01:	20746c75 69766564 6e206563 20656d61     ult device name 
    9c11:	3230253c 0a0d3e58 746e4900 61767265     <%02X>...Interva
    9c21:	6163206c 2074276e 30206562 20726f20     l can't be 0 or 
    9c31:	7373656c 4e000a0d 204c4c55 6e696f70     less...NULL poin
    9c41:	0d726574 554e000a 70204c4c 746e696f     ter...NULL point
    9c51:	65207265 726f7272 766e4900 64696c61     er error.Invalid
    9c61:	76656420 20656369 656d616e 69727720      device name wri
    9c71:	70206574 696d7265 6f697373 6573006e     te permission.se
    9c81:	65642074 65636976 6e6f6320 20676966     t device config 
    9c91:	6c696166 202c6465 74617473 203a7375     failed, status: 
    9ca1:	3e64253c 766e4900 64696c61 6e6f4320     <%d>.Invalid Con
    9cb1:	6f4d202e 3c206564 0d3e6425 6f4e000a     . Mode <%d>...No
    9cc1:	706d4520 45207974 7972746e 726f6620      Empty Entry for
    9cd1:	6e6f6320 7463656e 0d6e6f69 6e49000a      connection...In
    9ce1:	696c6176 6e692064 76726574 0a0d6c61     valid interval..
    9cf1:	616e5500 20656c62 67206f74 61207465     .Unable to get a
    9d01:	65726464 0a0d7373 766e4900 64696c61     ddress...Invalid
    9d11:	74754120 79542068 25206570 000a0d64      Auth Type %d...

00009d21 <__FUNCTION__.7934>:
    9d21:	625f7461 645f656c 63697665 616e5f65     at_ble_device_na
    9d31:	735f656d 61007465                                me_set.

00009d38 <__FUNCTION__.7888>:
    9d38:	625f7461 695f656c 0074696e              at_ble_init.

00009d44 <CSWTCH.62>:
    9d44:	2e100402 2e2e2f2e 2f2e2e2f 622f2e2e     ...../../../../b
    9d54:	735f656c 6b636174 6970612f 726f635f     le_stack/api_cor
    9d64:	61672f65 635f7474 6e65696c 00632e74     e/gatt_client.c.
    9d74:	61766e49 2064696c 61726150 6574656d     Invalid Paramete
    9d84:	0a0d7372 67695300 2064656e 276e6163     rs...Signed can'
    9d94:	65622074 74697720 65722068 6e6f7073     t be with respon
    9da4:	0a0d6573 766e4900 646c6961 646e6520     se...Invaild end
    9db4:	20726f20 72617473 61682074 656c646e      or start handle
    9dc4:	000a2073 6c6c754e 49555520 74702044     s ..Null UUID pt
    9dd4:	000a2072 61766e49 20646c69 72616863     r ..Invaild char
    9de4:	6e61685f 5f656c64 6e756f63 000a2074     _handle_count ..
    9df4:	6c6c754e 61686320 61685f72 656c646e     Null char_handle
    9e04:	73696c5f 74702074 000a2072              _list ptr ..

00009e10 <__FUNCTION__.7375>:
    9e10:	625f7461 635f656c 61726168 72657463     at_ble_character
    9e20:	69747369 72775f63 00657469              istic_write.

00009e2c <__FUNCTION__.7256>:
    9e2c:	72657375 7365645f 70697263 6e6f6974     user_description
    9e3c:	6665645f 00656e69 2e2f2e2e 2e2e2f2e     _define.../../..
    9e4c:	2f2e2e2f 5f656c62 63617473 70612f6b     /../ble_stack/ap
    9e5c:	6f635f69 672f6572 5f747461 76726573     i_core/gatt_serv
    9e6c:	632e7265 00000000                       er.c....

00009e74 <interface_send_msg>:
    9e74:	20001fd4 00215752                       ... RW!.

00009e7c <dummy_buffer>:
    9e7c:	20001bd4                                ... 

00009e80 <__FUNCTION__.7900>:
    9e80:	625f7461 655f656c 7972636e 6f697470     at_ble_encryptio
    9e90:	65725f6e 73657571 65725f74 00796c70     n_request_reply.

00009ea0 <__FUNCTION__.7856>:
    9ea0:	625f7461 705f656c 5f726961 5f79656b     at_ble_pair_key_
    9eb0:	6c706572 2e2e0079 2f2e2e2f 2e2f2e2e     reply.../../../.
    9ec0:	6c622f2e 74735f65 2f6b6361 5f697061     ./ble_stack/api_
    9ed0:	65726f63 6365732f 74697275 00632e79     core/security.c.
    9ee0:	61766e49 2064696c 2079654b 657a6973     Invalid Key size
    9ef0:	0d642520 6e55000a 776f6e6b 6e616820      %d...Unknow han
    9f00:	20656c64 49007825 4c41564e 43204449     dle %x.INVALID C
    9f10:	2e4e4e4f 4e414820 0a454c44 564e4900     ONN. HANDLE..INV
    9f20:	44494c41 41454620 45525554 49000a53     ALID FEATURES..I
    9f30:	4c41564e 4b204449 53205945 0d455a49     NVALID KEY SIZE.
    9f40:	4e55000a 574f4e4b 5541204e 4e454854     ..UNKNOWN AUTHEN
    9f50:	5954202e 0a0d4550 4b4e5500 4e574f4e     . TYPE...UNKNOWN
    9f60:	59454b20 53494420 0a0d2e54 4b544c00      KEY DIST....LTK
    9f70:	20736920 20746f6e 766f7270 64656469      is not provided
    9f80:	49000a0d 4c41564e 4b204449 45205945     ...INVALID KEY E
    9f90:	5952544e 49000a0d 4c41564e 44204449     NTRY...INVALID D
    9fa0:	4d205645 0d45444f 4e49000a 494c4156     EV MODE...INVALI
    9fb0:	59542044 0a0d4550 6b6e5500 20776f6e     D TYPE...Unknow 
    9fc0:	646e6148 0a0d656c 766e4900 64696c61     Handle...Invalid
    9fd0:	6c6f5220 000a0d65 61766e49 2064696c      Role...Invalid 
    9fe0:	656c6f52 00782520                       Role %x.

00009fe8 <__FUNCTION__.7881>:
    9fe8:	63656863 6e655f6b 72705f63 7365636f     check_enc_proces
    9ff8:	74610073                                         s.

00009ffa <__FUNCTION__.7891>:
    9ffa:	625f7461 655f656c 7972636e 6f697470     at_ble_encryptio
    a00a:	74735f6e 00747261                       n_start.

0000a012 <__FUNCTION__.7837>:
    a012:	625f7461 615f656c 65687475 6369746e     at_ble_authentic
    a022:	00657461                                ate.

0000a026 <__FUNCTION__.7247>:
    a026:	63706167 706d635f 7476655f 70616700              gapc_cmp_evt.

0000a033 <__FUNCTION__.7476>:
    a033:	63706167 7665645f 666e695f 65725f6f     gapc_dev_info_re
    a043:	6e695f71 61685f64 656c646e 2e2e0072     q_ind_handler...
    a053:	2f2e2e2f 2e2f2e2e 6c622f2e 74735f65     /../../../ble_st
    a063:	2f6b6361 5f697061 746e6f63 6c6c6f72     ack/api_controll
    a073:	695f7265 7265746e 65636166 7061672f     er_interface/gap
    a083:	61745f63 632e6b73 43454c00 6f632042     c_task.c.LECB co
    a093:	63656e6e 6e6f6974 65726320 6f697461     nnection creatio
    a0a3:	6166206e 64656c69 4c000a20 20424345     n failed ..LECB 
    a0b3:	6b6e696c 73696420 6e6e6f63 69746365     link disconnecti
    a0c3:	66206e6f 756c6961 0a206572 74654700     on failure ..Get
    a0d3:	65657020 65642072 65636976 666e6920      peer device inf
    a0e3:	7265206f 2c726f72 61745320 3a737574     o error, Status:
    a0f3:	00642520 43504147 5445475f 4e4f435f      %d.GAPC_GET_CON
    a103:	4148435f 4c454e4e 50414d5f 7453202c     _CHANNEL_MAP, St
    a113:	73757461 7830203a 58323025 686e5500     atus: 0x%02X.Unh
    a123:	6c646e61 4f206465 253c2050 3e583230     andled OP <%02X>
    a133:	44000a0d 63697665 614e2065 6e20656d     ...Device Name n
    a143:	7320746f 67007465                                ot set.

0000a14a <__FUNCTION__.7677>:
    a14a:	6d706167 7365725f 725f7465 685f7165     gapm_reset_req_h
    a15a:	6c646e61 67007265                                andler.

0000a161 <__FUNCTION__.7694>:
    a161:	6d706167 7465735f 7665645f 6e6f635f     gapm_set_dev_con
    a171:	5f676966 5f646d63 646e6168 0072656c     fig_cmd_handler.
    a181:	2e2f2e2e 2e2e2f2e 2f2e2e2f 5f656c62     ../../../../ble_
    a191:	63617473 70612f6b 6f635f69 6f72746e     stack/api_contro
    a1a1:	72656c6c 746e695f 61667265 672f6563     ller_interface/g
    a1b1:	5f6d7061 6b736174 5700632e 3a504f2e     apm_task.c.W.OP:
    a1c1:	32302520 52202c78 3a504f2e 78323025      %02x, R.OP:%02x
    a1d1:	55000a0d 6e61686e 64656c64 20504f20     ...Unhandled OP 
    a1e1:	253c7830 3e583230 67000a0d                       0x<%02X>...

0000a1ec <__FUNCTION__.7706>:
    a1ec:	6d706167 7465675f 7665645f 6e6f635f     gapm_get_dev_con
    a1fc:	5f676966 5f646d63 646e6168 0072656c     fig_cmd_handler.

0000a20c <__FUNCTION__.7761>:
    a20c:	6d706167 706d635f 7476655f 2f2e2e00     gapm_cmp_evt.../
    a21c:	2e2f2e2e 2e2e2f2e 656c622f 6174735f     ../../../ble_sta
    a22c:	612f6b63 635f6970 72746e6f 656c6c6f     ck/api_controlle
    a23c:	6e695f72 66726574 2f656361 74746167     r_interface/gatt
    a24c:	61745f63 632e6b73 69614600 2064656c     c_task.c.Failed 
    a25c:	64616572 20676e69 72616863 65746361     reading characte
    a26c:	74736972 0a206369 74616700                       ristic ..

0000a275 <__FUNCTION__.7433>:
    a275:	74746167 6f635f63 656c706d 655f6574     gattc_complete_e
    a285:	685f7476 6c646e61 2e007265 2e2e2f2e     vt_handler.../..
    a295:	2f2e2e2f 622f2e2e 735f656c 6b636174     /../../ble_stack
    a2a5:	6970612f 6e6f635f 6c6f7274 5f72656c     /api_controller_
    a2b5:	65746e69 63616672 61672f65 5f6d7474     interface/gattm_
    a2c5:	6b736174 6700632e                                task.c.

0000a2cc <__FUNCTION__.6998>:
    a2cc:	74746167 64615f6d 74615f64 62697274     gattm_add_attrib
    a2dc:	5f657475 5f716572 646e6168 0072656c     ute_req_handler.
    a2ec:	b5f8fea5                                         ..

0000a2ee <patch_data>:
    a2ee:	461eb5f8 460c4617 f0024610 283ffab7     ...F.F.F.F....?(
    a2fe:	484cd031 89808821 d0052800 4d4a1d82     1.LH!....(....JM
    a30e:	d1034291 e0102402 e7f82200 d0042800     .B...$..."...(..
    a31e:	42911c82 2400d103 2200e007 2800e7f9     ...B...$..."...(
    a32e:	1d00d000 d10a4281 48402401 23016800     .....B...$@H.h.#
    a33e:	463ab281 f002483e 7004fa97 2306e009     ..:F>H.....p...#
    a34e:	4631463a f002483b 8821fa8f 21808001     :F1F;H....!....!
    a35e:	68297101 20004788 b5ffbdf8 460cb081     .q)h.G. .......F
    a36e:	f0029803 283ffa7b 9803d036 0a007822     ....{.?(6..."x..
    a37e:	26000201 4d2b482f 2a003109 2702d005     ...&/H+M.1.*...'
    a38e:	d0172a01 d1272a02 8862e029 b2931d92     .*...*'.).b.....
    a39e:	f0029a03 4607fa69 280089a8 1c80d000     ....i..F...(....
    a3ae:	713e8038 807a8862 1d781d21 fa62f002     8.>qb.z.!.x...b.
    a3be:	e00e4638 9a032308 fa56f002 290089a9     8F...#....V....)
    a3ce:	1d09d000 71068001 88628047 0a127142     .......qG.b.Bq..
    a3de:	49157182 47886809 b0052000 230ebdf0     .q.I.h.G. .....#
    a3ee:	f0029a03 89a9fa41 d0002900 80011d89     ....A....)......
    a3fe:	21087106 88628041 0a127142 88a27182     .q.!A.b.Bq...q..
    a40e:	0a1271c2 88e27202 0a127242 89227282     .q...r..Br...r".
    a41e:	0a1272c2 e7dc7302 4907b510 f0022014     .r...s.....I. ..
    a42e:	bd10fa2f 100408e4 100400e4 10040018     /...............
    a43e:	00000e0a 00000c14 10007c44 4610b510     ........D|.....F
    a44e:	f002460c cc07fa0b ffdaf001 bd102000     .F........... ..
    a45e:	4614b570 f0024610 2306fa01 21044622     p..F.F.....#"F.!
    a46e:	f0024824 4604fa01 f0012000 4605fce5     $H.....F. .....F
    a47e:	1ca02104 fa0af002 122970a5 120970e1     .!.......p)..p..
    a48e:	12097121 20017161 20007060 7020491a     !q..aq. `p. .I p
    a49e:	46206809 20004788 b570bd70 46104614     .h F.G. p.p..F.F
    a4ae:	f9dcf002 23064813 21044622 f0021c40     .....H.#"F.!@...
    a4be:	4604f9db f0012000 4605fd47 1ca02104     ...F. ..G..F.!..
    a4ce:	f9e4f002 0a2970a5 0a0970e1 0a097121     .....p)..p..!q..
    a4de:	20017161 20007060 70204907 46206809     aq. `p. .I p.h F
    a4ee:	20004788 b510bd70 20154904 f9c8f002     .G. p....I. ....
    a4fe:	0000bd10 00003801 100400e4 10007c84     .....8.......|..
    a50e:	2001b51c f9c8f002 f9ccf002 68004844     ... ........DH.h
    a51e:	4d444780 07407b28 28030f40 4942d803     .GDM({@.@..(..BI
    a52e:	68092000 48414788 26007801 d00e2900     . .h.GAH.x.&.)..
    a53e:	ca06a23f 91009201 22007006 46682105     ?........p.".!hF
    a54e:	f9b6f002 21052200 f0024668 68a8f9b7     .....".!hF.....h
    a55e:	d4030040 78014838 d0fc2900 f9b4f002     @...8H.x.)......
    a56e:	f9b8f002 f9bcf002 4c344935 68606809     ........5I4L.h`h
    a57e:	49344788 f0022003 f000f9b9 68a0fbe9     .G4I. .........h
    a58e:	68a84780 d40a0040 28017820 7860d1fc     .G.h@... x.(..`x
    a59e:	d0042800 492d7066 60c8482b f002e7fe     .(..fp-I+H.`....
    a5ae:	f7fff9ab f7ffff39 4829ff9e 47806800     ....9.....)H.h.G
    a5be:	4828b662 f9a6f002 07007b28 f002d501     b.(H....({......
    a5ce:	4c25f9a7 15a56860 606043a8 20064923     ..%L`h...C``#I. 
    a5de:	47886809 43286860 68a06060 430801e9     .h.G`h(C``.h...C
    a5ee:	4c1f60a0 f99af002 47806820 d0f92800     .`.L.... h.G.(..
    a5fe:	f002481c e7f5f999 20004601 d00d2900     .H.......F. .)..
    a60e:	d1072902 780a490c d0042a02 29017809     .)...I.x.*...x.)
    a61e:	4815d100 48144770 47703010 47704813     ...HpG.H.0pG.HpG
    a62e:	10040160 10040828 100401c0 10040025     `...(.......%...
    a63e:	54554f42 00000021 100400d9 10040000     BOUT!...........
    a64e:	10040104 10005e1d 05fa0004 e000ed00     .....^..........
    a65e:	10040154 100403bc 4000f400 10040210     T..........@....
    a66e:	1004010c 100405ec 10007bb0 0001e2bc     .........{......
    a67e:	4addb5f0 49dd6816 48dd4bdd 128c3340     ...J.h.I.K.H@3..
    a68e:	2e0012cd 6886d026 400e6857 0fff073f     ....&..hWh.@?...
    a69e:	4337047f 689e6087 6851400e 0fc90709     ..7C.`.h.@Qh....
    a6ae:	43310449 69416099 40216853 0fdb075b     I.1C.`AiSh!@[...
    a6be:	430b01db 69416143 40296853 0fdb079b     ...CCaAiSh)@....
    a6ce:	430b019b 49cb6143 400b6943 07c96851     ...CCa.ICi.@Qh..
    a6de:	e02e0fc9 68d64ac8 07f60d76 68d6d12c     .....J.hv...,..h
    a6ee:	07f60d36 6886d028 400e68d7 0fff033f     6...(..h.h.@?...
    a6fe:	4337047f 689e6087 68d1400e 0fc90309     ..7C.`.h.@.h....
    a70e:	43310449 69416099 402168d3 0fdb04db     I.1C.`Ai.h!@....
    a71e:	430b01db 69416143 402968d3 0fdb051b     ...CCaAi.h)@....
    a72e:	430b019b 49b36143 400b6943 054968d1     ...CCa.ICi.@.hI.
    a73e:	03c90fc9 61414319 4770bdf0 49afb530     .....CAa..pG0..I
    a74e:	61082000 684849ae 43102201 49ad6048     . .a.IHh.".CH`.I
    a75e:	158a6988 61884390 680048ab d1042800     .i...C.a.H.h.(..
    a76e:	69184baa 43202404 69086118 78254ca8     .K.i.$ C.a.i.L%x
    a77e:	02db2303 d1002d01 25e14398 43a803ad     .#...-...C.%...C
    a78e:	68c86108 78242502 2c0143a8 241cd101     .a.h.%$x.C.,...$
    a79e:	242043a0 439043a0 43984a9e 60c84390     .C $.C.C.J.C.C.`
    a7ae:	4f9dbd30 26004c9d 47806838 d10d2800     0..O.L.&8h.G.(..
    a7be:	28027a20 f002d00a 2802f8bd f002d0fb      z.(.......(....
    a7ce:	2800f8b9 bf00d102 72202001 25007a20     ...(.....  r z.%
    a7de:	d03b2800 d04e2801 d1e52802 88004890     .(;..(N..(...H..
    a7ee:	d0022800 6800488f f0024780 7860f8a9     .(...H.h.G....`x
    a7fe:	d0012800 f8aaf002 f8aef002 20016aa1     .(...........j. 
    a80e:	f0024788 4888f8af 47806800 68004887     .G.....H.h.G.H.h
    a81e:	48794780 074068c0 28030f40 4984d803     .GyH.h@.@..(...I
    a82e:	68092001 78a04788 70a01c40 68004881     . .h.G.x@..p.H.h
    a83e:	6a204780 d0012800 47806a20 ff7ef7ff     .G j.(.. j.G..~.
    a84e:	2001497d 61886809 e01bb662 280079e0     }I. .h.ab....y.(
    a85e:	bf30d100 78284d79 d1a52801 f888f002     ..0.yM(x.(......
    a86e:	f002702e 4876f88b 28006800 4874d19c     .p....vH.h.(..tH
    a87e:	f848f002 2004e798 f886f002 47806838     ..H.... ....8h.G
    a88e:	d0012800 e78f7226 f884f002 f888f002     .(..&r..........
    a89e:	d1fb2800 f86cf002 f888f002 28027a20     .(....l..... z.(
    a8ae:	2002d043 48677220 07c16800 2101d005     C..  rgH.h.....!
    a8be:	430d0449 1c497921 07807121 6960d402     I..C!yI.!q....`i
    a8ce:	d0052800 04802001 79604305 71601c40     .(... ...C`y@.`q
    a8de:	04002001 70664305 495b78e0 70e01c40     . ...Cfp.x[I@..p
    a8ee:	20016809 4f444788 28017c38 2000d020     .h. .GDO8|.( .. 
    a8fe:	43284956 f0024308 743ef85f 20006aa1     VI(C.C.._.>t.j. 
    a90e:	48404788 22026981 61814311 69814850     .G@H.i.".C.aPH.i
    a91e:	439122c0 69816181 43911582 4c4d6181     .".C.a.i...C.aML
    a92e:	47806820 d1fb2800 f002e7fe e73bf827      h.G.(......'.;.
    a93e:	02402001 b510e7dc 8410f3ef b6724a46     . @.........FJr.
    a94e:	68506811 23001c49 60114158 f0016050     .hPhI..#XA.`P`..
    a95e:	b662ff3b 8810f384 b510bd10 207c493f     ;.b.........?I| 
    a96e:	4a216048 7a11483e d10e2901 493d4b3e     H`!J>H.z.)..>K=I
    a97e:	4b3e8019 61592101 21044b3d 493d8019     ..>K.!Ya=K.!..=I
    a98e:	493d6001 21006041 68d37211 680c491e     .`=IA`.!.r.h.I.h
    a99e:	d01842a3 60d3680b 4a38680b 2b004938     .B...h.`.h8J8I.+
    a9ae:	4b38d007 4a388013 4a3860c2 4a386102     ..8K..8J.`8J.a8J
    a9be:	4b38e006 4a388013 4a3860c2 4a386102     ..8K..8J.`8J.a8J
    a9ce:	8809800a 49376081 22076848 43100712     .....`7IHh."...C
    a9de:	48326048 1e404934 bd106208 48332101     H`2H4I@..b...!3H
    a9ee:	60480709 ffeef001 10007bd0 fffdffff     ..H`.....{......
    a9fe:	40020800 ffff7fff 10040828 4000b200     ...@....(......@
    aa0e:	40014000 4000b000 10007d38 e000ed00     .@.@...@8}......
    aa1e:	100400d9 20058000 1004018c 1004001c     ....... ........
    aa2e:	10040094 100400a0 10040170 10040160     ........p...`...
    aa3e:	100401c0 10040154 1004015c 10040141     ....T...\...A...
    aa4e:	100405ec 10040168 10040210 00400001     ....h.........@.
    aa5e:	4000e200 10040188 10040240 40025100     ...@....@....Q.@
    aa6e:	4000e040 000009c4 10007be8 4000f000     @..@.....{.....@
    aa7e:	1004009c 03020000 06050403 10040090     ................
    aa8e:	10040096 000004a6 01020c0d 00000c03     ................
    aa9e:	00001f12 000005d7 01021617 00001603     ................
    aaae:	0000291c 40024000 40041840 0001e1ad     .)...@.@@..@....
    aabe:	4c39b5f8 28006920 4838d006 28006800     ..9L i.(..8H.h.(
    aace:	4836d102 ff1ef001 4f364e35 2d006925     ..6H....5N6O%i.-
    aade:	0628d060 2080d503 f00161a0 07a8ff79     `.(.... .a..y...
    aaee:	2002d503 f00161a0 0728ff79 2008d504     ... .a..y.(.... 
    aafe:	200061a0 ff78f001 d50505e8 300120ff     .a. ..x...... .0
    ab0e:	200161a0 ff70f001 d50405a8 02402001     .a. ..p...... @.
    ab1e:	f00161a0 0668ff6f 2040d503 f00161a0     .a..o.h...@ .a..
    ab2e:	06e8ff6f 2010d503 f00161a0 0768ff6f     o...... .a..o.h.
    ab3e:	4919d51e 31c02001 6bc863c8 d1fc2800     ...I. .1.c.k.(..
    ab4e:	491969e0 49196008 68092004 20044788     .i.I.`.I. .h.G. 
    ab5e:	491761a0 62082000 68004816 88304780     .a.I. .b.H.h.G0.
    ab6e:	d0052800 47806838 ff56f001 ff30f001     .(..8h.G..V...0.
    ab7e:	d00a07e8 28008830 2001d107 683861a0     ....0..(... .a8h
    ab8e:	f0014780 f001ff49 06a8ff23 2020d59e     .G..I...#.....  
    ab9e:	e79b61a0 0000bdf8 40040000 100405ec     .a.........@....
    abae:	10040094 10040174 10007be0 10040210     ....t....{......
    abbe:	4000b000 10040110 4604b5fe ff32f001     ...@.......F..2.
    abce:	f0019000 4607ff35 46257a20 0f000700     ....5..F z%F....
    abde:	90013564 78a84626 28003624 f001d101     d5..&F.x$6.(....
    abee:	4630ff2d ff30f001 481e4621 ff32f001     -.0F..0.!F.H..2.
    abfe:	481d78a9 d1032900 42f99900 8801d000     .x.H.).....B....
    ac0e:	22029901 4919008b 800a1859 804a8df2     ..."...IY.....J.
    ac1e:	78ab9900 430b19c9 4a164e15 25014916     ...x...C.N.J.I.%
    ac2e:	d1142b00 07db8803 2300d011 6836800b     .+.........#..6h
    ac3e:	d0012e00 e0008015 804b8013 490f68a2     ..........K..h.I
    ac4e:	624a1e52 620a8882 62888840 800dbdfe     R.Jb...b@..b....
    ac5e:	28006830 2004d001 2003e000 804d8010     0h.(... ... ..M.
    ac6e:	0000bdfe 1004085c 1004007c 40030000     ....\...|......@
    ac7e:	10007d38 1004009c 10007be4 40024040     8}.......{..@@.@
    ac8e:	68094911 0a814348 18890bc2 18080c00     .I.hHC..........
    ac9e:	30ff30ff 0a803002 b5304770 8800480b     .0.0.0..pG0..H..
    acae:	ffeef7ff 46034d0a f7ff8828 b284ffe9     .....M.F(.......
    acbe:	f7ff8868 0559ffe5 b28002a2 43014311     h.....Y......C.C
    acce:	63c14804 0000bd30 10040204 10007be8     .H.c0........{..
    acde:	10040090 40040000 0a04b510 2810b2c0     .......@.......(
    acee:	dc0ed034 d023280c 2803dc06 280ad017     4....(#....(...(
    acfe:	280bd020 e019d111 d013280d d10c280e      ..(.....(...(..
    ad0e:	2837e012 dc04d01a d0152811 d1042812     ..7(.....(...(..
    ad1e:	2838e01a 2839d014 f001d014 0221fea1     ..8(..9(......!.
    ad2e:	bd104308 e7fa200a e7f8200b e7f62008     .C... ... ... ..
    ad3e:	e7f42009 e7f22007 e7f02005 e7ee2014     . ... ... ... ..
    ad4e:	e7ec2015 e7ea200e e7e82006 e7e62004     . ... ... ... ..
    ad5e:	2003b510 fe8af001 20034902 fd90f001     ... .....I. ....
    ad6e:	0000bd10 10007b18 4618b570 4601460d     .....{..p..F.F.F
    ad7e:	23822400 f001481e 7969fd77 2900682a     .$.#.H..w.iy*h.)
    ad8e:	2980d001 2112d901 792be027 d0082b08     ...)...!'.+y.+..
    ad9e:	d00f2b10 d01b2b20 5d13e01e 70ab1905     .+.. +.....]...p
    adae:	428c1c64 e016d3f9 19055b13 0a1b70ab     d..B.....[...p..
    adbe:	1ca470eb d3f7428c e00c0049 19055913     .p...B..I....Y..
    adce:	0a1b70ab 0a1b70eb 0a1b712b 1d24716b     .p...p..+q..kq$.
    adde:	d3f3428c 70410089 70012100 78424601     .B....Ap.!.p.FBx
    adee:	1c92390c 4903814a 47886809 bd702000     .9..J..I.h.G. p.
    adfe:	00000319 100400e4 4c6eb5f8 d00f0005     ..........nL....
    ae0e:	28027fa0 7fe0d107 d0012801 d1022805     ...(.....(...(..
    ae1e:	f00168e0 2d01fe31 2000d13e fe32f001     .h..1..->.. ..2.
    ae2e:	29007fa1 4863d00a 29013016 2902d01b     ...)..cH.0.)...)
    ae3e:	f001d070 2800fe2d e09ad12e 28017fe0     p...-..(.......(
    ae4e:	2805d006 2806d008 2807d006 e005d108     ...(...(...(....
    ae5e:	f0012003 bdf8fe23 e7fa2008 e7f82004     . ..#.... ... ..
    ae6e:	fe10f001 7fe1bdf8 d0162901 d0252905     .........)...)%.
    ae7e:	d0502906 d1f52907 f0014605 ba00fe15     .)P..)...F......
    ae8e:	78e90a00 43080200 90006800 220068a0     ...x...C.h...h."
    ae9e:	21046843 47984668 4605e068 fe0af001     Ch.!hF.Gh..F....
    aeae:	280078a8 2822d003 7fe0d906 882be7d8     .x.(.."(......+.
    aebe:	22004601 e0574618 e01b493f 46054f3f     .F.".FW.?I..?O.F
    aece:	88406839 46064788 060043f0 d0140e00     9h@..G.F.C......
    aede:	88a86839 80a84788 88eb4602 46318828     9h...G...F..(.1F
    aeee:	fcc2f001 60e0380c 894868e1 d00f2800     .....8.`.hH..(..
    aefe:	310c88e8 fde4f001 88ebbdf8 210a886a     ...1........j..!
    af0e:	f001482f 380cfcb1 882960e0 e7eb8141     /H.....8.`).A...
    af1e:	e01e4608 4604e017 fdc6f001 0a05ba00     .F.....F........
    af2e:	022d78e0 1d204305 fdbef001 0a00ba00     .x-..C .........
    af3e:	020079e1 60284308 fdc8f001 46282104     .y...C(`.....!(F
    af4e:	fdcaf001 7fe1bdf8 d0072901 d1f92905     .........)...)..
    af5e:	491c68e0 300c6809 e0074788 f0014604     .h.I.h.0.G...F..
    af6e:	78a1fda9 4a148820 fdbcf001 fdaef001     ...x ..J........
    af7e:	f001bdf8 bdf8fdbd 2003b510 fdbef001     ........... ....
    af8e:	69204c0c fd78f001 28006a20 f001d003     .L i..x. j.(....
    af9e:	2000fdbb 68206220 d0052800 f0014805     ...  b h.(...H..
    afae:	f001fdb9 bd10fdbd 20042100 fdbef001     .........!. ....
    afbe:	0000bd10 10040bb0 10007bea 100400bc     .........{......
    afce:	00000d21 100400e4 4604b570 3c0c4828     !.......p..F(H.<
    afde:	07c56ac0 0fed88e0 d0122805 8610f3ef     .j.......(......
    afee:	4824b672 f0014621 b662fd35 8810f386     r.$H!F..5.b.....
    affe:	492188a0 d10d4288 b2c188e0 d005290b     ..!I.B.......)..
    b00e:	4621e008 f001481d e02cfd97 02000a00     ..!F.H....,.....
    b01e:	80e03014 491a88a0 d1104288 88e04919     .0.....I.B...I..
    b02e:	42886809 201bd10b fd1af001 f0014606     .h.B... .....F..
    b03e:	2801fc15 2100d103 f0014630 88e0fd77     ...(...!0F..w...
    b04e:	d0102804 28048920 2d00d10d 480ed004     .(.. ..(...-...H
    b05e:	28006800 e006d004 2001490c e0026208     .h.(.....I. .b..
    b06e:	f0014809 2001fc4f fd6cf001 0000bd70     .H..O.. ..l.p...
    b07e:	4000b1c0 10040bd4 00000c13 10040c20     ...@........ ...
    b08e:	00000e03 10040018 100405ec 4000b000     ...............@
    b09e:	48c6b5fe 4dc44ec3 24006941 01c909c9     ...H.N.MAi.$....
    b0ae:	43112255 68816141 00490849 69c16081     U".CAa.hI.I..`.i
    b0be:	40114abf 69c161c1 43112202 48bd61c1     .J.@.a.i.".C.a.H
    b0ce:	18380527 f001210d 9001fd43 210d48ba     '.8..!..C....H.!
    b0de:	f0011838 9000fd3d 006148b8 0480180f     8...=....Ha.....
    b0ee:	f0014639 4ab5fd3b 43504639 fd36f001     9F..;..J9FPC..6.
    b0fe:	46394ab2 f0014350 219dfd31 21014348     .J9FPC..1..!HC.!
    b10e:	18400449 0c80219d 18420209 230c4621     I.@..!....B.!F.#
    b11e:	98014359 4baa5070 60431988 98006082     YC..pP.K..C`.`..
    b12e:	48a85068 60481949 b2e41c64 d3c62c28     hP.HI.H`d...(,..
    b13e:	48a52501 600505ed 60424aa4 60812100     .%.H...`.JB`.!.`
    b14e:	60c34ba3 61416101 61c26185 62436205     .K.`.aAa.a.a.bCb
    b15e:	62c16281 69e04c95 43882102 69e061e0     .b.b.L.i.!.C.a.i
    b16e:	43c94993 61e04308 210168a0 60a04308     .I.C.C.a.h.!.C.`
    b17e:	61e04898 49984899 49996001 49996041     .H.a.H.I.`.IA`.I
    b18e:	f7ff6081 4898fa75 48996160 60014997     .`..u..H`a.H.I.`
    b19e:	60416841 22806841 60414391 68084995     AhA`Ah.".CA`.I.h
    b1ae:	43100492 49946008 12126808 439043a8     ...C.`.I.h...C.C
    b1be:	68124a92 d1012a00 43904a91 05122207     .J.h.*...J.C."..
    b1ce:	60084390 b510bdfe 69604c78 09c02155     .C.`....xL`iU!..
    b1de:	430801c0 48816160 6001497f 60414980     ...C`a.H.I.`.IA`
    b1ee:	60814980 fa44f7ff 6160487f 61e04879     .I.`..D..H`ayH.a
    b1fe:	497869e0 43083980 68a061e0 43082101     .ixI.9.C.a.h.!.C
    b20e:	497b60a0 158a6848 60484310 68084979     .`{IHh...CH`yI.h
    b21e:	43100452 49786008 22416808 43900452     R..C.`xI.hA"R..C
    b22e:	68124a76 d1012a00 43904a75 05122207     vJ.h.*..uJ.C."..
    b23e:	60084390 b240bd10 b5704770 4a712100     .C.`..@.pGp..!qJ
    b24e:	460d2315 188c021b 1d096025 d3fa4299     .#.F....%`...B..
    b25e:	4a6d2103 62d10409 6201496c 6241496c     .!mJ...blI.blIAb
    b26e:	2206496c 212c6141 496b540a 496b6281     lI."Aa,!.TkI.bkI
    b27e:	496b6001 496b6041 496c61c1 6008486a     .`kIA`kI.alIjH.`
    b28e:	3c404c6a 03896b20 43084388 f0016320     jL@< k...C.C c..
    b29e:	4867fc6b 6ba06085 09000100 430805a1     k.gH.`.k.......C
    b2ae:	4c4263a0 63602003 49622009 60c80580     .cBL. `c. bI...`
    b2be:	feeef7ff 4860494f 60483180 495f4860     ....OI`H.1H``H_I
    b2ce:	49606141 49606181 495b61c1 62013113     Aa`I.a`I.a[I.1.b
    b2de:	30404842 4a5d68c1 68120989 43110189     BH@0.h]J...h...C
    b2ee:	68a060c1 03892101 60a04388 200c4958     .`.h.!...C.`XI. 
    b2fe:	bd706188 4857b570 28008800 2005d00a     .ap.p.WH...(... 
    b30e:	23000200 2215493f 18440212 1d006023     ...#?I."..D.#`..
    b31e:	d3fa4290 68004850 61604c24 6800484f     .B..PH.h$L`aOH.h
    b32e:	6148492e 49382003 62c80400 483e493f     .IHa. 8I...b?I>H
    b33e:	4d3e6008 6b283d40 43880389 63284308     .`>M@=(k...C.C(c
    b34e:	fc12f001 fb09f7ff 01006ba8 02e10900     .........k......
    b35e:	63a84308 68004842 20034780 20096360     .C.cBH.h.G. `c. 
    b36e:	05804934 f7ff60c8 4922ff2e 31804832     4I...`...."I2H.1
    b37e:	48336048 61414931 61814932 61c14932     H`3H1IAa2I.a2I.a
    b38e:	3113492d 48156201 68c13040 09894a2f     -I.1.b.H@0.h/J..
    b39e:	01896812 60c14311 210168a0 43880389     .h...C.`.h.!...C
    b3ae:	bd7060a0 40022800 40022a00 40020000     .`p..(.@.*.@...@
    b3be:	feefcfff 4b100007 4b180007 00000962     .......K...Kb...
    b3ce:	423d55af 420155af 40022c00 00048060     .U=B.U.B.,.@`...
    b3de:	00008060 01103080 00002402 40020800     `....0...$.....@
    b3ee:	6438ee11 00010ee4 6a029143 0f600107     ..8d....C..j..`.
    b3fe:	4000f400 40041800 40020180 10007d38     ...@...@...@8}..
    b40e:	04000700 40030000 40041a80 0001b645     .......@...@E...
    b41e:	0001b637 0001b35b 0001b363 0001b32f     7...[...c.../...
    b42e:	0001b349 100060db 054a0756 40040080     I....`..V.J....@
    b43e:	4000f000 40024000 00000303 d6d6e8ff     ...@.@.@........
    b44e:	40041900 8199afc4 0000516a 10007c14     ...@....jQ...|..
    b45e:	4000e200 10007be4 10007c1c 10007c20     ...@.{...|.. |..
    b46e:	10040184 03892101 d3004288 49704608     .....!...B...FpI
    b47e:	43486809 0b420ac1 0c421851 0c821851     .hHC..B.Q.B.Q...
    b48e:	0cc21851 0d021851 0d821851 0e021851     Q...Q...Q...Q...
    b49e:	0e421851 0e821851 18511c40 18400f80     Q.B.Q...@.Q...@.
    b4ae:	1e40d000 47704770 2600b5fe 90002040     ..@.pGpG...&@ ..
    b4be:	8010f3ef 4c5f9001 2001b672 f0018060     ......_Lr.. `...
    b4ce:	2800fb59 2002d074 80602601 fa32f001     Y..(t.. .&`...2.
    b4de:	d0fb2802 80602003 fa2cf001 d0f12800     .(... `...,..(..
    b4ee:	20044d54 350c8060 280078e8 2005d060     TM. `..5.x.(`.. 
    b4fe:	88288060 d15b2800 80602007 9000484e     `.(..([.. `.NH..
    b50e:	8800484e d0042800 78a9484d 180f8800     NH...(..MH.x....
    b51e:	78a8e002 18476861 80602008 88004849     ...xahG.. `.IH..
    b52e:	d0032800 fb2cf001 d0fb2800 80602009     .(....,..(... `.
    b53e:	46684639 fb2af001 d0732800 8060200a     9FhF..*..(s.. `.
    b54e:	fb2af001 d06d2800 8060200b 46684639     ..*..(m.. `.9FhF
    b55e:	fb28f001 d0652800 98004f39 1a408839     ..(..(e.9O..9.@.
    b56e:	d35f2805 8060200c fb22f001 d0202800     .(_.. `..."..( .
    b57e:	8060200f 68004834 28004780 4833d003     . `.4H.h.G.(..3H
    b58e:	07806800 2010d44e 49318060 62082000     .h..N.. `.1I. .b
    b59e:	68c04830 06804930 60080e80 fb0ef001     0H.h0I.....`....
    b5ae:	fb12f001 98004924 d1044288 e00a2000     ....$I...B... ..
    b5be:	2600e038 4921e036 29008809 8839d001     8..&6.!I...)..9.
    b5ce:	6861e000 90001a40 80602011 21014823     ..ah@.... `.#H.!
    b5de:	6bc163c1 d1fc2900 38c04820 4f2069c0     .c.k.).. H.8.i O
    b5ee:	98006038 ff3ef7ff 201260a0 79298060     8`....>..`. `.)y
    b5fe:	f00168a0 2001faef 0780491a 78206008     .h..... .I...` x
    b60e:	70201c40 80602013 69404817 48116078     @. p. `..H@ix`.H
    b61e:	69403840 481560b8 47806a80 68014814     @8@i.`.H.j.G.H.h
    b62e:	d5fc0049 9801b662 8810f380 bdfe4630     I...b.......0F..
    b63e:	10040204 100400f0 0000ffff 10040094     ................
    b64e:	1004009c 10007be6 1004018c 4000e000     .....{.........@
    b65e:	4000b000 40020840 10007c14 400400c0     ...@@..@.|.....@
    b66e:	10007c18 e000e100 40020000 10040d90     .|.........@....
    b67e:	e000e200 0ec906c1 40882001 6008492f     ......... .@/I.`
    b68e:	06c14770 20010ec9 492c4088 60083180     pG..... .@,I.1.`
    b69e:	06c14770 20010ec9 49294088 47706008     pG..... .@)I.`pG
    b6ae:	f001b570 2501fa9d 106c03ed 4a251063     p......%..l.c.%J
    b6be:	d0122800 60102000 63901e40 f7ff2018     .(... .`@..c. ..
    b6ce:	6950ffe8 61504328 43206950 69506150     ..Pi(CPaPi CPaPi
    b6de:	61504318 f7ff2018 481bffdc 481b6390     .CPa. .....H.c.H
    b6ee:	07896801 6ad1d006 62d14329 43296b11     .h.....j)C.b.k)C
    b6fe:	62156311 06896801 d0060f89 43216ad1     .c.b.h.......j!C
    b70e:	6b1162d1 63114321 68006214 0f800580     .b.k!C.c.b.h....
    b71e:	6ad0d006 62d04318 43186b10 62136310     ...j.C.b.k.C.c.b
    b72e:	f7ff2018 201fffa7 ffa4f7ff f7ff2015     . ..... ..... ..
    b73e:	201bffa1 ff9ef7ff 0000bd70 e000e100     ... ....p.......
    b74e:	e000e280 40011000 0000ffff 4000f000     .......@.......@
    b75e:	4857b5f8 48577801 68462901 d11d4856     ..WH.xWH.)FhVH..
    b76e:	d11b2e01 6a8a4955 401a4b55 431a4b55     ....UI.jUK.@UK.C
    b77e:	6aca628a 401a4b54 431a2301 688162ca     .b.jTK.@.#.C.b.h
    b78e:	40114a52 43114a52 69016081 4311220c     RJ.@RJ.C.`.i.".C
    b79e:	68416101 02122277 60414391 220f6901     .aAhw"...CA`.i."
    b7ae:	43110292 484b6101 e0006805 69686928     ...C.aKH.h..(ihi
    b7be:	d1fb07c0 68004848 0f400080 f0010003     ....HH.h..@.....
    b7ce:	0508fa15 110e0b08 1c1a1714 026424e1     .............$d.
    b7de:	24e1e013 e01002a4 02e424e1 24e1e00d     ...$.....$.....$
    b7ee:	e00a0324 022424e1 244be007 e0040264     $....$$...K$d...
    b7fe:	0224244b 244be001 483801e4 46216807     K$$...K$..8H.h!F
    b80e:	f0014638 b282f9ab 43504620 20001a39     8F...... FPC9.. 
    b81e:	e0020923 b2c01c40 428b1ac9 1c40d3fa     #...@......B..@.
    b82e:	48230841 28017800 2e01d103 2020d101     A.#H.x.(......  
    b83e:	20006228 00d262a8 626a430a 21014a28     (b. .b...Cjb(J.!
    b84e:	491d6011 680a3180 01120912 60a8600a     .`.I.1.h.....`.`
    b85e:	210269a8 61a84308 b430bdf8 4c1d4b21     .i.!.C.a..0.!K.L
    b86e:	6019609a 68246058 d10d290a 2d047805     .`.`X`$h.)...x.-
    b87e:	7845d10a d1072d0e 2d1f7905 7940d104     ..Ex.-...y.-..@y
    b88e:	d1012820 60191e49 d0082900 07c06860      (..I..`.)..`h..
    b89e:	6858d0fc 60257805 60581c40 2000e7f2     ..Xh.x%`@.X`... 
    b8ae:	2a006058 6098d002 4710bc30 4770bc30     X`.*...`0..G0.pG
    b8be:	100400d9 10007c9c 4000b040 4000b180     .....|..@..@...@
    b8ce:	c0c0ffff 02030000 ffffc0c0 ff8888ff     ................
    b8de:	00111100 1004015c 10040828 10007cb0     ....\...(....|..
    b8ee:	e000e100 10041968 493ab5fe 68094838     ....h.....:I8H.h
    b8fe:	4d394788 4a382000 3d504b38 24261c41     .G9M. 8J8KP=A.&$
    b90e:	43440749 0f49260a 434618a4 807c18f7     I.DC.&I...FC..|.
    b91e:	4361240a 19494c31 19343c40 1c408761     .$aC1LI.@<4.a.@.
    b92e:	dbeb2808 68204c2e 438821f0 430821e0     .(...L h.!.C.!.C
    b93e:	482b6020 30c02196 0a526b02 430a0252      `+H.!.0.kR.R..C
    b94e:	6b016302 40114a27 43114a27 48276301     .c.k'J.@'J.C.c'H
    b95e:	682060e0 438800e1 68206020 43881049     .` h...C ` hI..C
    b96e:	22066020 46684922 ff84f000 88084669      `.""IhF....iF..
    b97e:	04098849 62614301 88884669 682062a0     I....CabiF...b h
    b98e:	43881561 60204308 21074815 61013080     a..C.C `.H.!.0.a
    b99e:	39184916 49156301 63413124 39c0490e     .I.9.c.I$1Ac.I.9
    b9ae:	48146381 7c00210a 19404348 f7ff62e0     .c.H.!.|HC@..b..
    b9be:	2001f974 f920f001 f924f001 7800480e     t.. .. ...$..H.x
    b9ce:	d0012800 f924f001 f928f001 0000bdfe     .(....$...(.....
    b9de:	10040d90 100400ec 00000aca 40030a80     ...............@
    b9ee:	40040000 fc00ffff 01e50000 0000033a     ...@........:...
    b9fe:	0001f8b2 10040b9c 100400a4 21004803     .............H.!
    ba0e:	60016041 21026801 47706001 4000d000     A`.`.h.!.`pG...@
    ba1e:	6802b510 43086b10 20046310 fe2af7ff     ...h.k.C.c. ..*.
    ba2e:	b510bd10 6b106802 63104388 f7ff2004     .....h.k.C.c. ..
    ba3e:	bd10fe28 2101b5f0 0f240704 2300460a     (......!..$..F.#
    ba4e:	40a24db3 d82a2818 28074cb2 6863d801     .M.@.(*..L.(..ch
    ba5e:	280fe006 68a3d801 2817e002 68e3d800     ...(...h...(...h
    ba6e:	0ef70746 40be2607 280743b3 6063d801     F....&.@.C.(..c`
    ba7e:	280fe006 60a3d801 2817e002 60e3d800     ...(...`...(...`
    ba8e:	d2082810 68534aa4 430b4081 69136053     .(...JSh.@.CS`.i
    ba9e:	6113430b 49a1e001 7728e00d 4603bdf0     .C.a...I..(w...F
    baae:	2b033b2c 4c9ed8fa 07866923 40b10fb6     ,;.+...L#i.....@
    babe:	6123438b 684b499b 604b4313 4313690b     .C#a.IKh.CK`.i.C
    bace:	e7ea610b 4892b530 7f022101 d2062a10     .a..0..H.!...*..
    bade:	685c4b91 4095460d 605c43ac 4b8ce009     .K\h.F.@.C\`...K
    baee:	071c7f1b 23010f24 2a1840a3 4a8bd203     ....$..#.@.*...J
    bafe:	7741e005 3a2cbd30 d8042a03 68544a89     ..Aw0.,:.*...JTh
    bb0e:	6054439c 2100e7f5 b530e7f3 23004880     .CT`...!..0..H.#
    bb1e:	24017f01 d2052910 68554a7f 4325408c     ...$.)...JUh.@%C
    bb2e:	e0096055 7f124a7a 0f240714 40a22201     U`..zJ....$..".@
    bb3e:	d2032918 e0054979 bd307743 2903392c     .)..yI..Cw0.,9.)
    bb4e:	4978d8fb 4314684c e7f5604c 4606b570     ..xILh.CL`..p..F
    bb5e:	460c4615 f7ff2004 4b6dfd94 609e2001     .F.F. ....mK. .`
    bb6e:	605c60dd 841c7798 6801e004 02090a09     .`\`.w.....h....
    bb7e:	600131fe 68006818 07c96881 2004d1f5     .1.`.h.h.h..... 
    bb8e:	fd78f7ff ff9ef7ff 20094967 bd706048     ..x.....gI. H`p.
    bb9e:	2500b570 e04c4c5e 2a007fa2 6862d026     p..%^LL....*&.bh
    bbae:	d00d2a00 780268a0 60a01c40 68016808     .*...h.x@..`.h.h
    bbbe:	02090a09 60014311 1e406860 e01a6060     .....C.``h@.``..
    bbce:	0a096801 31fe0209 48576001 1e496841     .h.....1.`WHAhI.
    bbde:	68406041 d10e2800 f7ff77a5 68e1ff96     A`@h.(...w.....h
    bbee:	d0082900 60e52000 e0044788 0a096801     .)... .`.G...h..
    bbfe:	31fe0209 69606001 d0172800 68096821     ...1.``i.(..!h.h
    bc0e:	70016849 1e406920 69616120 61611c49     Ih.p i@. aaiI.aa
    bc1e:	d10e2800 21016165 f7ff6820 69a1ff02     .(..ea.! h.....i
    bc2e:	d0022900 61a52000 bd704788 68006820     .)... .a.Gp. h.h
    bc3e:	68216840 68c26808 d1ad07d2 b5f0bd70     @h!h.h.h....p...
    bc4e:	4606b087 4668211c ffeef000 2e004f37     ...F.!hF....7O..
    bc5e:	7838d106 d1032800 482d2124 ffe4f000     ..8x.(..$!-H....
    bc6e:	46692000 74087048 744a2201 70887008     . iFHp.t."Jt.p.p
    bc7e:	7b00482f 0f400740 d80b2803 492d00c2     /H.{@.@..(....-I
    bc8e:	5a8b4668 18518243 8282884a 82c2888a     hF.ZC.Q.J.......
    bc9e:	830188c9 4c284d1e d0022e01 d00d2e00     .....M(L........
    bcae:	7820e012 d0022800 28027820 4821d10c     .. x.(.. x.(..!H
    bcbe:	4922466a f0003808 e005ffbd 28007838     jF"I.8......8x.(
    bcce:	481cd102 60283808 28007820 7820d002     ...H.8(` x.(.. x
    bcde:	d1032802 78004814 feacf7ff 68282101     .(...H.x.....!(h
    bcee:	fe9ff7ff f0002014 7820ffab d00c2800     ..... .... x.(..
    bcfe:	28027820 4912d107 f0002014 2101ffa7      x.(...I. .....!
    bd0e:	f7ff6828 b007fe85 490ebdf0 0000e7f4     (h.........I....
    bd1e:	10041e00 4000b040 40010000 40011000     ....@..@...@...@
    bd2e:	4000f400 40013000 10007ca8 10040000     ...@.0.@.|......
    bd3e:	10040828 10040198 100400d9 40006000     (............`.@
    bd4e:	10006a35 0001d1c7 428849f8 2000d301     5j.......I.B... 
    bd5e:	49f74770 29951841 2001d201 49f54770     pG.IA..)... pG.I
    bd6e:	184122ff 42913216 2002d201 49f14770     ."A..2.B... pG.I
    bd7e:	1840318b d201288b 47702003 47702004     .1@..(... pG. pG
    bd8e:	01092129 d2014288 47702000 29131a41     )!...B... pGA..)
    bd9e:	2001d201 49e84770 29121841 2002d201     ... pG.IA..)... 
    bdae:	49e54770 18413912 d2012912 47702003     pG.I.9A..)... pG
    bdbe:	392449e1 29241841 2004d201 49de4770     .I$9A.$)... pG.I
    bdce:	18413948 d2012912 47702005 395a49da     H9A..)... pG.IZ9
    bdde:	295b1841 2006d201 216b4770 1a4000c9     A.[)... pGk!..@.
    bdee:	d20128da 47702007 47702008 010049d3     .(... pG. pG.I..
    bdfe:	03411a08 18890302 18890282 18890242     ..A.........B...
    be0e:	18890202 18890182 18890102 188900c2     ................
    be1e:	21011808 280004c9 1840dd02 47701500     ...!...(..@...pG
    be2e:	15001a08 47704240 0080b508 28009000     ....@BpG.......(
    be3e:	1e40dd01 bd08e7fa 4606b5f0 4fc048c1     ..@........F.H.O
    be4e:	b0896841 22072500 43910412 04122205     Ah...%."...C."..
    be5e:	60414311 684849bc 020022f9 06120a00     .CA`.IHh."......
    be6e:	09c04310 220301c0 60484310 48b42205     .C.....".CH`.".H
    be7e:	38080292 4ab56002 230c6990 01000900     ...8.`.J.i.#....
    be8e:	61904318 23386888 23184398 60884318     .C.a.h8#.C.#.C.`
    be9e:	15096910 61104308 f7ff2028 48acffc5     .i...C.a( .....H
    beae:	21096884 f0004668 49a5febf 3908466a     .h.!hF.....IjF.9
    bebe:	6848e00d d5fc03c0 f7ff200a 6838ffb5     ..Hh..... ....8h
    bece:	50d000a3 68481945 d4fc03c0 2c001e64     ...PE.Hh....d..,
    bede:	489cd1ef 22076841 43910412 04522201     ...HAh."...C."R.
    beee:	60414311 6881489a f0004628 4601fe37     .CA`.H.h(F..7..F
    befe:	6b804898 d40c00c0 30404896 69806982     .H.k.....H@0.i.i
    bf0e:	d5030612 0e400640 e0034240 0e400640     ....@.@.@B..@.@.
    bf1e:	2000e000 60114a90 2e001a08 6030d000     ... .J.`......0`
    bf2e:	ff64f7ff bdf0b009 0280498c 02011840     ..d......I..@...
    bf3e:	18890182 18890142 188900c2 21011808     ....B..........!
    bf4e:	18400489 47700cc0 497eb5f0 4f7c4606     ..@...pG..~I.F|O
    bf5e:	68482500 1d3fb089 04122207 22054390     .%Hh..?.."...C."
    bf6e:	43100412 4a786048 21fb6850 0a000200     ...CH`xJPh.!....
    bf7e:	43080609 01c009c0 43082102 21056050     ...C.....!.CP`.!
    bf8e:	0289486f 60013808 69884970 0900230c     oH...8.`pI.i.#..
    bf9e:	43180100 68906188 43982338 43182318     ...C.a.h8#.C.#.C
    bfae:	69086090 4310150a 48696108 20286884     .`.i...C.aiH.h( 
    bfbe:	ff3af7ff 46682109 fe36f000 466a4960     ..:..!hF..6.`IjF
    bfce:	e00d3908 03c06848 200ad5fc ff2cf7ff     .9..Hh..... ..,.
    bfde:	00a36838 194550d0 03c06848 1e64d4fc     8h...PE.Hh....d.
    bfee:	d1ef2c00 68484957 04122207 43902401     .,..WIHh."...$.C
    bffe:	43200464 48566048 46286881 fdaef000     d. CH`VH.h(F....
    c00e:	46024955 60483980 6b814852 d40a0089     UI.F.9H`RH.k....
    c01e:	01896b81 d5036b81 0dc901c9 e0034249     .k...k......IB..
    c02e:	0dc901c9 2100e000 00406b80 4849d413     .......!.k@...IH
    c03e:	69833040 021d6980 d5074b49 28084018     @0.i.i..IK...@.(
    c04e:	2001d901 2000e000 e0054240 28084018     ... ... @B...@.(
    c05e:	2001d901 2000e000 226b1a51 1a8900d2     ... ... Q.k"....
    c06e:	00804348 18400489 18400491 0c801900     HC....@...@.....
    c07e:	d0002e00 f7ff6030 e753ff57 2800b5fe     ....0`..W.S....(
    c08e:	4833d076 4d376840 26024c37 d0702800     v.3H@h7M7L.&.(p.
    c09e:	f7ffa801 4f30ff59 37409901 04096339     ....Y.0O..@79c..
    c0ae:	63381808 f7ff4668 6378fec7 62389800     ..8chF....xc..8b
    c0be:	68034825 02002007 98014383 fe60f7ff     %H.h. ...C....`.
    c0ce:	18400081 392c4922 98001847 fe3cf7ff     ..@."I,9G.....<.
    c0de:	491d5c38 0d400740 60084318 09c16960     8\.I@.@..C.``i..
    c0ee:	01c94822 221e6940 22f34390 00d29b00     "H..@i.".C."....
    c0fe:	42932710 2234d901 4a0de005 189a322d     .'.B..4"...J-2..
    c10e:	d8032a5b 43112244 e0484338 32894a08     [*..D".C8CH..J.2
    c11e:	220e189f d8012f5b e0052355 1ebf4f05     ..."[/..U#...O..
    c12e:	2f8919df 2356d826 e0334319 000007ff     .../&.V#.C3.....
    c13e:	fffff896 fffff9ab fffffd5d 000076a0     ........]....v..
    c14e:	4000b1c8 4000f000 4000f400 4000b000     ...@...@...@...@
    c15e:	10007d34 4000a000 10007f80 00003d43     4}.....@....C=..
    c16e:	007fff00 40022a00 40020000 40020800     .....*.@...@...@
    c17e:	e076e0a2 189a4afe d8032a5b 43112267     ..v..J..[*..g".C
    c18e:	e007220a 325c4afa 2a5b189a 2278d804     ."...J\2..[*..x"
    c19e:	22064311 e0024310 43112279 61614330     .C.".C..y".C0Caa
    c1ae:	614849f4 68a249f4 08522000 60a20052     .IHa.I.h. R.R..`
    c1be:	4bf269e2 61e2401a 433269e2 23f361e2     .i.K.@.a.i2C.a.#
    c1ce:	00db9a00 d906429a 4342220c 18574bec     .....B..."BC.KW.
    c1de:	4bec607b 4bece03f 2b5b18d3 220cd806     {`.K?..K..[+..."
    c1ee:	4bea4342 607b1857 e0344be9 335c4be6     BC.KW.{`.K4..K\3
    c1fe:	2b5b18d3 220cd806 4be64342 607b1857     ..[+..."BC.KW.{`
    c20e:	e0284be5 3b5c4bda 2b8918d3 220cd806     .K(..K\;...+..."
    c21e:	4be24342 607b1857 e01c4be1 18d34bd4     BC.KW.{`.K...K..
    c22e:	d8062b5b 4342220c 18574bde 4bde607b     [+..."BC.KW.{`.K
    c23e:	4bcfe011 18d2335c d8062a5b 4342220c     ...K\3..[*..."BC
    c24e:	18574bda 4bda607b 220ce005 4bd94342     .KW.{`.K..."BC.K
    c25e:	607b1857 19524bd8 1c406053 d3ae2828     W.{`.KR.S`@.((..
    c26e:	49c5e01e 20006962 01d209d2 431a2355     ...Ibi. ....U#.C
    c27e:	68a26162 00520852 69e260a2 401a4bbf     ba.hR.R..`.i.K.@
    c28e:	69e261e2 61e24332 270c4bc2 437a4602     .a.i2C.a.K.'.FzC
    c29e:	607b1857 19524fc0 1c406057 d3f42828     W.{`.OR.W`@.((..
    c2ae:	43b069e0 69e061e0 43c949b4 61e04308     .i.C.a.i.I.C.C.a
    c2be:	210168a0 60a04308 2001bdfe 2300e6de     .h.!.C.`... ...#
    c2ce:	68036003 d5fc041b 408b2301 431349bb     .`.h.....#.@.I.C
    c2de:	6801600b dafc2900 47704608 49b8b5f0     .`.h.)...FpG...I
    c2ee:	6d0ab085 92012200 2a00680a 2800d07e     ...m."...h.*~..(
    c2fe:	48b4d07c 04c06880 48b30ec4 68c09404     |..H.h.....H...h
    c30e:	0b804db2 07c04eb2 48acd02a 21071d00     .M...N..*..H...!
    c31e:	90029100 433169a9 9a0161a9 f7ff9900     .....i1C.a......
    c32e:	0847ffce 044049ab 0c40400f 69a84307     ..G..I@..@@..C.i
    c33e:	61a843b0 99009a01 f7ff9802 0846ffc0     .C.a..........F.
    c34e:	044049a4 0c40400e 0b394306 91030b30     .I@..@@..C9.0...
    c35e:	d5001a40 02804240 fc00f000 e03c4605     @...@B.......F<.
    c36e:	4f9d4896 90023008 90002006 217d6cc8     .H.O.0... ...l}!
    c37e:	42880209 4f99d1db 4605e7d9 42be9404     ...B...O...F...B
    c38e:	2c1fd203 1c64d204 2c00e002 1e64d000     ...,..d....,..d.
    c39e:	6888498c 0212221f 02224390 608a4302     .I.h."...C"..C.`
    c3ae:	f7ff2001 9a01fd41 98029900 ff87f7ff     . ..A...........
    c3be:	49880846 400e0440 43060c40 0b319803     F..I@..@@..C..1.
    c3ce:	99031a08 4240d500 f0000280 2c1ffbc7     ......@B.......,
    c3de:	2c00d005 42a8d003 2805da01 42a8dccd     ...,...B...(...B
    c3ee:	4978dd0a 221f6888 e0000212 4390e004     ..xI.h.".......C
    c3fe:	02129a04 608a4302 bdf0b005 e76d2001     .....C.`..... m.
    c40e:	b5104b6f 33140052 461a60da 6050326c     oK..R..3.`.Fl2P`
    c41e:	28006091 d0024618 fa12f000 f000bd10     .`.(.F..........
    c42e:	bd10fc1b 2001b500 fcfef7ff b500bd00     ....... ........
    c43e:	f7ff2002 bd00fcf9 2064b500 fcf4f7ff     . ........d ....
    c44e:	b500bd00 f7ff20a0 bd00fcef b08fb5f0     ..... ..........
    c45e:	90052000 69804862 90030e00 68804859     . ..bH.i....YH.h
    c46e:	08c09009 495700c0 60881d80 69504a5d     ......WI...`]JPi
    c47e:	485d900b 483f6150 68c13040 495b910a     ..]HPa?H@0.h..[I
    c48e:	210160c1 0409485a 21ff6201 31084859     .`.!ZH...b.!YH.1
    c49e:	49596081 27016808 43389008 6008463b     .`YI.h.'..8C;F.`
    c4ae:	90076890 609043b8 495469d0 40089006     .h...C.`.iTI...@
    c4be:	43082102 695061d0 08400040 48506150     .!.C.aPi@.@.PaPH
    c4ce:	691460d0 08400060 21006110 60536051     .`.i`.@..a.!Q`S`
    c4de:	f7ff2001 6051fca9 f7ff2064 4825fca5     . ....Q`d ....%H
    c4ee:	6a003080 0d450600 462007fe 61104330     .0.j..E... F0C.a
    c4fe:	60576051 f7ff2001 6051fc97 f7ff2064     Q`W`. ....Q`d ..
    c50e:	481cfc93 6a003080 0f400600 69504305     ...H.0.j..@..CPi
    c51e:	40184b3c 4303052b 61534333 07402003     <K.@+..C3CSa. @.
    c52e:	61104320 60576051 f7ff2001 6051fc7d      C.aQ`W`. ..}.Q`
    c53e:	f7ff2064 2700fc79 463e4a0e 3280463d     d ..y..'.J>F=F.2
    c54e:	4b2b6251 62184830 f7ff20a0 2001fc6d     Qb+K0H.b. ..m.. 
    c55e:	20a06250 fc68f7ff 62516a90 482a19c7     Pb. ..h..jQb..*H
    c56e:	1c404b23 20026218 fc5ef7ff e04d2001     #K@..b. ..^.. M.
    c57e:	fffffa05 40020800 40022800 feefcfff     .......@.(.@....
    c58e:	423d34af 420134af fffff8c3 423d44af     .4=B.4.B.....D=B
    c59e:	420144af 423d55af 420155af 423d56af     .D.B.U=B.U.B.V=B
    c5ae:	420156af 423d67af 420167af 423d78af     .V.B.g=B.g.B.x=B
    c5be:	420178af 423d79af 420179af 4000c000     .x.B.y=B.y.B...@
    c5ce:	10007cb4 4000f400 10040828 4000b000     .|.....@(......@
    c5de:	00000200 3fff8000 018cba80 01964000     .......?.....@..
    c5ee:	4000a040 40020000 6a029155 0000800f     @..@...@U..j....
    c5fe:	40041800 40024a00 40025000 f80f8fff     ...@.J.@.P.@....
    c60e:	05c62762 800fffff 0001007f 20a06250     b'..........Pb. 
    c61e:	fc0af7ff 1c6d6a90 2d101986 2000d390     .....jm....-... 
    c62e:	1bb96250 f0004844 4607fa99 6b804843     Pb..DH.....FCH.k
    c63e:	db032800 28009803 0087d000 25004840     .(.....(....@H.%
    c64e:	4840900d 180e0069 46310480 fa86f000     ..@Hi.....1F....
    c65e:	46314a3c f0004350 4a3afa81 43504631     <J1FPC....:J1FPC
    c66e:	fa7cf000 43782101 184004c9 28ff0d00     ..|..!xC..@....(
    c67e:	20ffd900 d1002d00 210c9005 43699a0d     ... .-.....!..iC
    c68e:	6891188a 02090a09 60914301 2d281c6d     ...h.....C.`m.(-
    c69e:	482dd3d7 990b6104 4a2c6141 60119908     ..-H.a..Aa,J...`
    c6ae:	21004a2b 4a2b6091 4a2b6211 60d1990a     +J.!.`+J.b+J...`
    c6be:	61c19906 99094a29 68816091 60819907     ...a)J...`.h...`
    c6ce:	98054927 98056388 bdf0b00f 2800b53e     'I...c......>..(
    c6de:	2400d018 d0162804 d1132806 f7ff2001     ...$.(...(... ..
    c6ee:	f000fdfd 2001f89c fcc8f7ff 90002001     ....... ..... ..
    c6fe:	23049002 a11c4a1b 48209401 fab2f000     ...#.J.... H....
    c70e:	fea4f7ff 481ebd3e 491e6800 1a406809     ....>..H.h.I.h@.
    c71e:	4348491d f000491d 491dfa21 684b680a     .IHC.I..!..I.hKh
    c72e:	415c1880 604c6008 f0004814 f000f889     ..\A.`L`.H......
    c73e:	f000f84b bd3ef874 0013b800 4000a000     K...t.>........@
    c74e:	40022800 00000962 40020000 40025000     .(.@b......@.P.@
    c75e:	40024a00 40041800 40020840 4000f400     .J.@...@@..@...@
    c76e:	10007fc0 1000715f 74616256 6574565f     ...._q..Vbat_Vte
    c77e:	435f706d 62696c61 00000000 10007cc8     mp_Calib.....|..
    c78e:	10007be0 10007c18 00000271 0007a120     .{...|..q... ...
    c79e:	10040240 492c4602 43c02000 e0046809     @....F,I. .C.h..
    c7ae:	d101428a 47702000 29006989 4770d1f8     .B... pG.i.)..pG
    c7be:	4604b510 4608460b ffecf7ff d0022800     ...F.F.F.....(..
    c7ce:	61986820 bd106023 4e1fb5f8 462f2500      h.a#`.....N.%/F
    c7de:	e0216830 69844a1d 68136881 1a596852     0h!..J.i.h.hRhY.
    c7ee:	d31741ba 29007901 4b18d00c 681968c2     .A...y.)...K.h.h
    c7fe:	1851685b 60814605 29006901 6940d00b     [hQ..F.`.i.)..@i
    c80e:	e0084788 42816831 6034d101 61ace000     .G..1h.B..4`...a
    c81e:	e7f16187 46204605 d1db2800 b510bdf8     .a...F F.(......
    c82e:	6800480b 480b0841 61411e49 2207490a     .H.hA..HI.Aa.I."
    c83e:	021c69cb 23000a24 618361cc bd106102     .i..$..#.a.a.a..
    c84e:	48014601 0000e7b4 1004021c 10040240     .F.H........@...
    c85e:	10007cb0 e000e000 e000ed04 4801b403     .|.............H
    c86e:	bd019001 0001a2f9 4801b403 bd019001     ...........H....
    c87e:	00019fe9 4801b403 bd019001 0001de29     .......H....)...
    c88e:	4801b403 bd019001 0001a251 4801b403     ...H....Q......H
    c89e:	bd019001 0001de5b 4801b403 bd019001     ....[......H....
    c8ae:	0001de17 4801b403 bd019001 0001bb9d     .......H........
    c8be:	4801b403 bd019001 0001bf11 4801b403     ...H...........H
    c8ce:	bd019001 0001d0ad 4801b403 bd019001     ...........H....
    c8de:	0001bb9f 4801b403 bd019001 0001bfd5     .......H........
    c8ee:	4801b403 bd019001 0001bdd1 4801b403     ...H...........H
    c8fe:	bd019001 00019c6d 4801b403 bd019001     ....m......H....
    c90e:	0001bb7d 4801b403 bd019001 0001dbdd     }......H........
    c91e:	4801b403 bd019001 00000215 4801b403     ...H...........H
    c92e:	bd019001 0001b83b 4801b403 bd019001     ....;......H....
    c93e:	0001dc5b 4801b403 bd019001 0001cf37     [......H....7...
    c94e:	4801b403 bd019001 0001d6f5 4801b403     ...H...........H
    c95e:	bd019001 0001b7fb 4801b403 bd019001     ...........H....
    c96e:	00000b15 4801b403 bd019001 0001bdd5     .......H........
    c97e:	4801b403 bd019001 0001d4d1 4801b403     ...H...........H
    c98e:	bd019001 0001d4ed 4801b403 bd019001     ...........H....
    c99e:	0001cffb 4801b403 bd019001 00000ab7     .......H........
    c9ae:	4801b403 bd019001 00000e17 4801b403     ...H...........H
    c9be:	bd019001 000000d5 4801b403 bd019001     ...........H....
    c9ce:	0001cdbf 4801b403 bd019001 000011e3     .......H........
    c9de:	4801b403 bd019001 00012edd 4801b403     ...H...........H
    c9ee:	bd019001 00006685 4801b403 bd019001     .....f.....H....
    c9fe:	00006651 4801b403 bd019001 00012faf     Qf.....H...../..
    ca0e:	4801b403 bd019001 00006647 4801b403     ...H....Gf.....H
    ca1e:	bd019001 00005081 4801b403 bd019001     .....P.....H....
    ca2e:	0001ba01 4801b403 bd019001 000131af     .......H.....1..
    ca3e:	4801b403 bd019001 00005df3 4801b403     ...H.....].....H
    ca4e:	bd019001 000082af 4801b403 bd019001     ...........H....
    ca5e:	0000533d 4801b403 bd019001 000190bf     =S.....H........
    ca6e:	4801b403 bd019001 00018bdb 4801b403     ...H...........H
    ca7e:	bd019001 0001a27d 4801b403 bd019001     ....}......H....
    ca8e:	0001a0b1 4801b403 bd019001 00019ab5     .......H........
    ca9e:	4801b403 bd019001 000197fd 4801b403     ...H...........H
    caae:	bd019001 00019a65 4801b403 bd019001     ....e......H....
    cabe:	0001de8b 4801b403 bd019001 00019af1     .......H........
    cace:	4801b403 bd019001 00019a85 4801b403     ...H...........H
    cade:	bd019001 00019a45 4801b403 bd019001     ....E......H....
    caee:	0001bfd9 4801b403 bd019001 00019b05     .......H........
    cafe:	4801b403 bd019001 00019a9f 4801b403     ...H...........H
    cb0e:	bd019001 00019ca1 4801b403 bd019001     ...........H....
    cb1e:	00019f09 4801b403 bd019001 00019095     .......H........
    cb2e:	4801b403 bd019001 00019711 4801b403     ...H...........H
    cb3e:	bd019001 0001a2a1 4801b403 bd019001     ...........H....
    cb4e:	0001d577 4801b403 bd019001 00019c81     w......H........
    cb5e:	4801b403 bd019001 0001dd01 4801b403     ...H...........H
    cb6e:	bd019001 0001dcd5 4801b403 bd019001     ...........H....
    cb7e:	0001b2a7 4801b403 bd019001 00019c47     .......H....G...
    cb8e:	4801b403 bd019001 0001b731 4801b403     ...H....1......H
    cb9e:	bd019001 0001a543 4801b403 bd019001     ....C......H....
    cbae:	00001399 4801b403 bd019001 000131d3     .......H.....1..
    cbbe:	4801b403 bd019001 000196d1 4801b403     ...H...........H
    cbce:	bd019001 0001c9db 4801b403 bd019001     ...........H....
    cbde:	0001c93d 4801b403 bd019001 00006839     =......H....9h..
    cbee:	4801b403 bd019001 0001cc03 4801b403     ...H...........H
    cbfe:	bd019001 0001e283 4801b403 bd019001     ...........H....
    cc0e:	00006a2d 4801b403 bd019001 0001c9ff     -j.....H........
    cc1e:	4801b403 bd019001 00006a01 4801b403     ...H.....j.....H
    cc2e:	bd019001 0001c999 4801b403 bd019001     ...........H....
    cc3e:	0001de5b 4801b403 bd019001 0001d25b     [......H....[...
    cc4e:	4801b403 bd019001 000007bd 4801b403     ...H...........H
    cc5e:	bd019001 000007d7 4801b403 bd019001     ...........H....
    cc6e:	0001d751 4801b403 bd019001 0001d6fd     Q......H........
    cc7e:	27100000 00000000 10007ba8 100400d8     ...'.....{......
    cc8e:	00010001 00000805 00019685 00000300     ................
    cc9e:	10005c0d 00000301 000192f7 00000302     .\..............
    ccae:	00019379 00000303 000193a3 00000304     y...............
    ccbe:	000193d5 0000030a 00019403 00000305     ................
    ccce:	0001947f 0000030f 000194b1 00000312     ................
    ccde:	000194e5 00000313 00019535 00000314     ........5.......
    ccee:	0001956b 00000315 000195ab 00000316     k...............
    ccfe:	000195f1 00000317 0001963b 00000318     ........;.......
    cd0e:	0001942b 10007b28 00000010 0001befb     +...({..........
    cd1e:	100066ff 0001bef3 0001bef5 0001d099     .f..............
    cd2e:	100069f1 0001d0fd 0001d0ff 00000000     .i..............
    cd3e:	00000004 00000001 00000000 00000000     ................
    cd4e:	00010001 00000000 00000000 00000000     ................
	...
    cd7e:	00000011 00000000 00000000 00000000     ................
    cd8e:	00000c13 10005185 00000e0b 100051ff     .....Q.......Q..
	...
    cda6:	10007c24 00000002 10007c34 10007c3c     $|......4|..<|..
    cdb6:	10007c54 00080001 00000000 00000000     T|..............
    cdc6:	00003800 100052e1 00003801 100052f5     .8...R...8...R..
    cdd6:	00003802 1000533f 00000000 00000000     .8..?S..........
    cde6:	10007c5c 00000003 00000000 10007c7c     \|..........||..
    cdf6:	10007c94 00080001 00000000 00000000     .|..............
    ce06:	00000101 00000000 0001cccb 0000002f     ............/...
    ce16:	00000000 018cba80 00000001 00000000     ................
    ce26:	0bb80fa0 00000000 00000000 00000000     ................
	...
    ce72:	05050505 05050505 05050505 04050505     ................
    ce82:	04040404 04040404 03030304 02020303     ................
    ce92:	01020202 01010101 00000000 00000000     ................
    cea2:	00000001 00000002 00f00043                       ........C.

0000ceac <_global_impure_ptr>:
    ceac:	200000f0                                ... 

0000ceb0 <__sf_fake_stdin>:
	...

0000ced0 <__sf_fake_stdout>:
	...

0000cef0 <__sf_fake_stderr>:
	...
    cf10:	2b302d23 6c680020 6665004c 47464567     #-0+ .hlL.efgEFG
    cf20:	32313000 36353433 41393837 45444342     .0123456789ABCDE
    cf30:	31300046 35343332 39383736 64636261     F.0123456789abcd
    cf40:	00006665                                ef..

0000cf44 <_init>:
    cf44:	b5f8      	push	{r3, r4, r5, r6, r7, lr}
    cf46:	46c0      	nop			; (mov r8, r8)
    cf48:	bcf8      	pop	{r3, r4, r5, r6, r7}
    cf4a:	bc08      	pop	{r3}
    cf4c:	469e      	mov	lr, r3
    cf4e:	4770      	bx	lr

0000cf50 <__init_array_start>:
    cf50:	000000dd 	.word	0x000000dd

0000cf54 <_fini>:
    cf54:	b5f8      	push	{r3, r4, r5, r6, r7, lr}
    cf56:	46c0      	nop			; (mov r8, r8)
    cf58:	bcf8      	pop	{r3, r4, r5, r6, r7}
    cf5a:	bc08      	pop	{r3}
    cf5c:	469e      	mov	lr, r3
    cf5e:	4770      	bx	lr

0000cf60 <__fini_array_start>:
    cf60:	000000b5 	.word	0x000000b5
